
Senior Design.elf:     file format elf32-avr

Sections:
Idx Name          Size      VMA       LMA       File off  Algn
  0 .data         00000272  00800200  000033d6  0000346a  2**0
                  CONTENTS, ALLOC, LOAD, DATA
  1 .text         000033d6  00000000  00000000  00000094  2**1
                  CONTENTS, ALLOC, LOAD, READONLY, CODE
  2 .bss          00000070  00800472  00800472  000036dc  2**0
                  ALLOC
  3 .comment      0000005c  00000000  00000000  000036dc  2**0
                  CONTENTS, READONLY
  4 .note.gnu.avr.deviceinfo 00000040  00000000  00000000  00003738  2**2
                  CONTENTS, READONLY
  5 .debug_aranges 00000080  00000000  00000000  00003778  2**0
                  CONTENTS, READONLY, DEBUGGING
  6 .debug_info   00000baa  00000000  00000000  000037f8  2**0
                  CONTENTS, READONLY, DEBUGGING
  7 .debug_abbrev 00000283  00000000  00000000  000043a2  2**0
                  CONTENTS, READONLY, DEBUGGING
  8 .debug_line   00001dc3  00000000  00000000  00004625  2**0
                  CONTENTS, READONLY, DEBUGGING
  9 .debug_frame  00000284  00000000  00000000  000063e8  2**2
                  CONTENTS, READONLY, DEBUGGING
 10 .debug_str    000002be  00000000  00000000  0000666c  2**0
                  CONTENTS, READONLY, DEBUGGING
 11 .debug_loc    00008611  00000000  00000000  0000692a  2**0
                  CONTENTS, READONLY, DEBUGGING
 12 .debug_ranges 000000b8  00000000  00000000  0000ef3b  2**0
                  CONTENTS, READONLY, DEBUGGING

Disassembly of section .text:

00000000 <__vectors>:
       0:	9d c4       	rjmp	.+2362   	; 0x93c <__ctors_end>
       2:	00 00       	nop
       4:	bc c4       	rjmp	.+2424   	; 0x97e <__bad_interrupt>
       6:	00 00       	nop
       8:	ba c4       	rjmp	.+2420   	; 0x97e <__bad_interrupt>
       a:	00 00       	nop
       c:	b8 c4       	rjmp	.+2416   	; 0x97e <__bad_interrupt>
       e:	00 00       	nop
      10:	b6 c4       	rjmp	.+2412   	; 0x97e <__bad_interrupt>
      12:	00 00       	nop
      14:	b4 c4       	rjmp	.+2408   	; 0x97e <__bad_interrupt>
      16:	00 00       	nop
      18:	b2 c4       	rjmp	.+2404   	; 0x97e <__bad_interrupt>
      1a:	00 00       	nop
      1c:	b0 c4       	rjmp	.+2400   	; 0x97e <__bad_interrupt>
      1e:	00 00       	nop
      20:	ae c4       	rjmp	.+2396   	; 0x97e <__bad_interrupt>
      22:	00 00       	nop
      24:	ac c4       	rjmp	.+2392   	; 0x97e <__bad_interrupt>
      26:	00 00       	nop
      28:	aa c4       	rjmp	.+2388   	; 0x97e <__bad_interrupt>
      2a:	00 00       	nop
      2c:	a8 c4       	rjmp	.+2384   	; 0x97e <__bad_interrupt>
      2e:	00 00       	nop
      30:	a6 c4       	rjmp	.+2380   	; 0x97e <__bad_interrupt>
      32:	00 00       	nop
      34:	a4 c4       	rjmp	.+2376   	; 0x97e <__bad_interrupt>
      36:	00 00       	nop
      38:	a2 c4       	rjmp	.+2372   	; 0x97e <__bad_interrupt>
      3a:	00 00       	nop
      3c:	a0 c4       	rjmp	.+2368   	; 0x97e <__bad_interrupt>
      3e:	00 00       	nop
      40:	9e c4       	rjmp	.+2364   	; 0x97e <__bad_interrupt>
      42:	00 00       	nop
      44:	9c c4       	rjmp	.+2360   	; 0x97e <__bad_interrupt>
      46:	00 00       	nop
      48:	9a c4       	rjmp	.+2356   	; 0x97e <__bad_interrupt>
      4a:	00 00       	nop
      4c:	98 c4       	rjmp	.+2352   	; 0x97e <__bad_interrupt>
      4e:	00 00       	nop
      50:	96 c4       	rjmp	.+2348   	; 0x97e <__bad_interrupt>
      52:	00 00       	nop
      54:	94 c4       	rjmp	.+2344   	; 0x97e <__bad_interrupt>
      56:	00 00       	nop
      58:	92 c4       	rjmp	.+2340   	; 0x97e <__bad_interrupt>
      5a:	00 00       	nop
      5c:	90 c4       	rjmp	.+2336   	; 0x97e <__bad_interrupt>
      5e:	00 00       	nop
      60:	8e c4       	rjmp	.+2332   	; 0x97e <__bad_interrupt>
      62:	00 00       	nop
      64:	8d c4       	rjmp	.+2330   	; 0x980 <__vector_25>
      66:	00 00       	nop
      68:	8a c4       	rjmp	.+2324   	; 0x97e <__bad_interrupt>
      6a:	00 00       	nop
      6c:	88 c4       	rjmp	.+2320   	; 0x97e <__bad_interrupt>
      6e:	00 00       	nop
      70:	86 c4       	rjmp	.+2316   	; 0x97e <__bad_interrupt>
      72:	00 00       	nop
      74:	84 c4       	rjmp	.+2312   	; 0x97e <__bad_interrupt>
      76:	00 00       	nop
      78:	82 c4       	rjmp	.+2308   	; 0x97e <__bad_interrupt>
      7a:	00 00       	nop
      7c:	80 c4       	rjmp	.+2304   	; 0x97e <__bad_interrupt>
      7e:	00 00       	nop
      80:	7e c4       	rjmp	.+2300   	; 0x97e <__bad_interrupt>
      82:	00 00       	nop
      84:	7c c4       	rjmp	.+2296   	; 0x97e <__bad_interrupt>
      86:	00 00       	nop
      88:	7a c4       	rjmp	.+2292   	; 0x97e <__bad_interrupt>
      8a:	00 00       	nop
      8c:	78 c4       	rjmp	.+2288   	; 0x97e <__bad_interrupt>
      8e:	00 00       	nop
      90:	97 c4       	rjmp	.+2350   	; 0x9c0 <__vector_36>
      92:	00 00       	nop
      94:	74 c4       	rjmp	.+2280   	; 0x97e <__bad_interrupt>
      96:	00 00       	nop
      98:	72 c4       	rjmp	.+2276   	; 0x97e <__bad_interrupt>
      9a:	00 00       	nop
      9c:	70 c4       	rjmp	.+2272   	; 0x97e <__bad_interrupt>
      9e:	00 00       	nop
      a0:	6e c4       	rjmp	.+2268   	; 0x97e <__bad_interrupt>
      a2:	00 00       	nop
      a4:	6c c4       	rjmp	.+2264   	; 0x97e <__bad_interrupt>
      a6:	00 00       	nop
      a8:	6a c4       	rjmp	.+2260   	; 0x97e <__bad_interrupt>
      aa:	00 00       	nop
      ac:	68 c4       	rjmp	.+2256   	; 0x97e <__bad_interrupt>
      ae:	00 00       	nop
      b0:	66 c4       	rjmp	.+2252   	; 0x97e <__bad_interrupt>
      b2:	00 00       	nop
      b4:	64 c4       	rjmp	.+2248   	; 0x97e <__bad_interrupt>
      b6:	00 00       	nop
      b8:	62 c4       	rjmp	.+2244   	; 0x97e <__bad_interrupt>
      ba:	00 00       	nop
      bc:	60 c4       	rjmp	.+2240   	; 0x97e <__bad_interrupt>
      be:	00 00       	nop
      c0:	5e c4       	rjmp	.+2236   	; 0x97e <__bad_interrupt>
      c2:	00 00       	nop
      c4:	5c c4       	rjmp	.+2232   	; 0x97e <__bad_interrupt>
      c6:	00 00       	nop
      c8:	5a c4       	rjmp	.+2228   	; 0x97e <__bad_interrupt>
      ca:	00 00       	nop
      cc:	58 c4       	rjmp	.+2224   	; 0x97e <__bad_interrupt>
      ce:	00 00       	nop
      d0:	56 c4       	rjmp	.+2220   	; 0x97e <__bad_interrupt>
      d2:	00 00       	nop
      d4:	54 c4       	rjmp	.+2216   	; 0x97e <__bad_interrupt>
      d6:	00 00       	nop
      d8:	52 c4       	rjmp	.+2212   	; 0x97e <__bad_interrupt>
      da:	00 00       	nop
      dc:	50 c4       	rjmp	.+2208   	; 0x97e <__bad_interrupt>
      de:	00 00       	nop
      e0:	4e c4       	rjmp	.+2204   	; 0x97e <__bad_interrupt>
      e2:	00 00       	nop
      e4:	93 07       	cpc	r25, r19
      e6:	ce 05       	cpc	r28, r14
      e8:	d1 05       	cpc	r29, r1
      ea:	d4 05       	cpc	r29, r4
      ec:	d7 05       	cpc	r29, r7
      ee:	da 05       	cpc	r29, r10
      f0:	dd 05       	cpc	r29, r13
      f2:	e0 05       	cpc	r30, r0
      f4:	e3 05       	cpc	r30, r3
      f6:	e6 05       	cpc	r30, r6
      f8:	e9 05       	cpc	r30, r9
      fa:	ec 05       	cpc	r30, r12
      fc:	ef 05       	cpc	r30, r15
      fe:	f2 05       	cpc	r31, r2
     100:	f5 05       	cpc	r31, r5
     102:	f8 05       	cpc	r31, r8
     104:	fb 05       	cpc	r31, r11
     106:	fe 05       	cpc	r31, r14
     108:	01 06       	cpc	r0, r17
     10a:	04 06       	cpc	r0, r20
     10c:	07 06       	cpc	r0, r23
     10e:	0a 06       	cpc	r0, r26
     110:	0d 06       	cpc	r0, r29
     112:	10 06       	cpc	r1, r16
     114:	13 06       	cpc	r1, r19
     116:	16 06       	cpc	r1, r22
     118:	19 06       	cpc	r1, r25
     11a:	1c 06       	cpc	r1, r28
     11c:	1f 06       	cpc	r1, r31
     11e:	22 06       	cpc	r2, r18
     120:	25 06       	cpc	r2, r21
     122:	28 06       	cpc	r2, r24
     124:	2b 06       	cpc	r2, r27
     126:	2e 06       	cpc	r2, r30
     128:	31 06       	cpc	r3, r17
     12a:	34 06       	cpc	r3, r20
     12c:	37 06       	cpc	r3, r23
     12e:	3a 06       	cpc	r3, r26
     130:	3d 06       	cpc	r3, r29
     132:	40 06       	cpc	r4, r16
     134:	43 06       	cpc	r4, r19
     136:	46 06       	cpc	r4, r22
     138:	49 06       	cpc	r4, r25
     13a:	4c 06       	cpc	r4, r28
     13c:	4f 06       	cpc	r4, r31
     13e:	52 06       	cpc	r5, r18
     140:	55 06       	cpc	r5, r21
     142:	58 06       	cpc	r5, r24
     144:	5b 06       	cpc	r5, r27
     146:	5e 06       	cpc	r5, r30
     148:	61 06       	cpc	r6, r17
     14a:	64 06       	cpc	r6, r20
     14c:	67 06       	cpc	r6, r23
     14e:	6a 06       	cpc	r6, r26
     150:	6d 06       	cpc	r6, r29
     152:	70 06       	cpc	r7, r16
     154:	73 06       	cpc	r7, r19
     156:	76 06       	cpc	r7, r22
     158:	79 06       	cpc	r7, r25
     15a:	7c 06       	cpc	r7, r28
     15c:	7f 06       	cpc	r7, r31
     15e:	82 06       	cpc	r8, r18
     160:	85 06       	cpc	r8, r21
     162:	88 06       	cpc	r8, r24
     164:	8b 06       	cpc	r8, r27
     166:	8e 06       	cpc	r8, r30
     168:	91 06       	cpc	r9, r17
     16a:	94 06       	cpc	r9, r20
     16c:	97 06       	cpc	r9, r23
     16e:	9a 06       	cpc	r9, r26
     170:	9d 06       	cpc	r9, r29
     172:	a0 06       	cpc	r10, r16
     174:	a3 06       	cpc	r10, r19
     176:	a6 06       	cpc	r10, r22
     178:	a9 06       	cpc	r10, r25
     17a:	ac 06       	cpc	r10, r28
     17c:	af 06       	cpc	r10, r31
     17e:	b2 06       	cpc	r11, r18
     180:	b5 06       	cpc	r11, r21
     182:	b8 06       	cpc	r11, r24
     184:	bb 06       	cpc	r11, r27
     186:	be 06       	cpc	r11, r30
     188:	c1 06       	cpc	r12, r17
     18a:	c4 06       	cpc	r12, r20
     18c:	c7 06       	cpc	r12, r23
     18e:	ca 06       	cpc	r12, r26
     190:	cd 06       	cpc	r12, r29
     192:	d0 06       	cpc	r13, r16
     194:	d3 06       	cpc	r13, r19
     196:	d6 06       	cpc	r13, r22
     198:	d9 06       	cpc	r13, r25
     19a:	dc 06       	cpc	r13, r28
     19c:	df 06       	cpc	r13, r31
     19e:	e2 06       	cpc	r14, r18
     1a0:	e5 06       	cpc	r14, r21
     1a2:	e8 06       	cpc	r14, r24
     1a4:	eb 06       	cpc	r14, r27
     1a6:	ee 06       	cpc	r14, r30
     1a8:	f1 06       	cpc	r15, r17
     1aa:	f4 06       	cpc	r15, r20
     1ac:	f7 06       	cpc	r15, r23
     1ae:	fa 06       	cpc	r15, r26
     1b0:	fd 06       	cpc	r15, r29
     1b2:	00 07       	cpc	r16, r16
     1b4:	03 07       	cpc	r16, r19
     1b6:	06 07       	cpc	r16, r22
     1b8:	09 07       	cpc	r16, r25
     1ba:	0c 07       	cpc	r16, r28
     1bc:	0f 07       	cpc	r16, r31
     1be:	12 07       	cpc	r17, r18
     1c0:	15 07       	cpc	r17, r21
     1c2:	18 07       	cpc	r17, r24
     1c4:	1b 07       	cpc	r17, r27
     1c6:	1e 07       	cpc	r17, r30
     1c8:	21 07       	cpc	r18, r17
     1ca:	24 07       	cpc	r18, r20
     1cc:	27 07       	cpc	r18, r23
     1ce:	2a 07       	cpc	r18, r26
     1d0:	2d 07       	cpc	r18, r29
     1d2:	30 07       	cpc	r19, r16
     1d4:	33 07       	cpc	r19, r19
     1d6:	36 07       	cpc	r19, r22
     1d8:	39 07       	cpc	r19, r25
     1da:	3c 07       	cpc	r19, r28
     1dc:	3f 07       	cpc	r19, r31
     1de:	42 07       	cpc	r20, r18
     1e0:	45 07       	cpc	r20, r21
     1e2:	48 07       	cpc	r20, r24
     1e4:	4b 07       	cpc	r20, r27
     1e6:	4e 07       	cpc	r20, r30
     1e8:	51 07       	cpc	r21, r17
     1ea:	54 07       	cpc	r21, r20
     1ec:	57 07       	cpc	r21, r23
     1ee:	5a 07       	cpc	r21, r26
     1f0:	5d 07       	cpc	r21, r29
     1f2:	60 07       	cpc	r22, r16
     1f4:	63 07       	cpc	r22, r19
     1f6:	66 07       	cpc	r22, r22
     1f8:	69 07       	cpc	r22, r25
     1fa:	6c 07       	cpc	r22, r28
     1fc:	6f 07       	cpc	r22, r31
     1fe:	72 07       	cpc	r23, r18
     200:	75 07       	cpc	r23, r21
     202:	78 07       	cpc	r23, r24
     204:	7b 07       	cpc	r23, r27
     206:	7e 07       	cpc	r23, r30
     208:	81 07       	cpc	r24, r17
     20a:	84 07       	cpc	r24, r20
     20c:	87 07       	cpc	r24, r23
     20e:	8a 07       	cpc	r24, r26
     210:	8d 07       	cpc	r24, r29
     212:	f5 09       	sbc	r31, r5
     214:	f2 09       	sbc	r31, r2
     216:	f2 09       	sbc	r31, r2
     218:	f2 09       	sbc	r31, r2
     21a:	f2 09       	sbc	r31, r2
     21c:	30 08       	sbc	r3, r0
     21e:	f2 09       	sbc	r31, r2
     220:	f2 09       	sbc	r31, r2
     222:	f2 09       	sbc	r31, r2
     224:	f2 09       	sbc	r31, r2
     226:	33 08       	sbc	r3, r3
     228:	f2 09       	sbc	r31, r2
     22a:	f2 09       	sbc	r31, r2
     22c:	f2 09       	sbc	r31, r2
     22e:	f2 09       	sbc	r31, r2
     230:	36 08       	sbc	r3, r6
     232:	f2 09       	sbc	r31, r2
     234:	f2 09       	sbc	r31, r2
     236:	f2 09       	sbc	r31, r2
     238:	f2 09       	sbc	r31, r2
     23a:	39 08       	sbc	r3, r9
     23c:	f2 09       	sbc	r31, r2
     23e:	f2 09       	sbc	r31, r2
     240:	f2 09       	sbc	r31, r2
     242:	f2 09       	sbc	r31, r2
     244:	3c 08       	sbc	r3, r12
     246:	f2 09       	sbc	r31, r2
     248:	f2 09       	sbc	r31, r2
     24a:	f2 09       	sbc	r31, r2
     24c:	f2 09       	sbc	r31, r2
     24e:	3f 08       	sbc	r3, r15
     250:	f2 09       	sbc	r31, r2
     252:	f2 09       	sbc	r31, r2
     254:	f2 09       	sbc	r31, r2
     256:	f2 09       	sbc	r31, r2
     258:	42 08       	sbc	r4, r2
     25a:	f2 09       	sbc	r31, r2
     25c:	f2 09       	sbc	r31, r2
     25e:	f2 09       	sbc	r31, r2
     260:	f2 09       	sbc	r31, r2
     262:	45 08       	sbc	r4, r5
     264:	f2 09       	sbc	r31, r2
     266:	f2 09       	sbc	r31, r2
     268:	f2 09       	sbc	r31, r2
     26a:	f2 09       	sbc	r31, r2
     26c:	48 08       	sbc	r4, r8
     26e:	f2 09       	sbc	r31, r2
     270:	f2 09       	sbc	r31, r2
     272:	f2 09       	sbc	r31, r2
     274:	f2 09       	sbc	r31, r2
     276:	4b 08       	sbc	r4, r11
     278:	f2 09       	sbc	r31, r2
     27a:	f2 09       	sbc	r31, r2
     27c:	f2 09       	sbc	r31, r2
     27e:	f2 09       	sbc	r31, r2
     280:	4e 08       	sbc	r4, r14
     282:	f2 09       	sbc	r31, r2
     284:	f2 09       	sbc	r31, r2
     286:	f2 09       	sbc	r31, r2
     288:	f2 09       	sbc	r31, r2
     28a:	51 08       	sbc	r5, r1
     28c:	f2 09       	sbc	r31, r2
     28e:	f2 09       	sbc	r31, r2
     290:	f2 09       	sbc	r31, r2
     292:	f2 09       	sbc	r31, r2
     294:	54 08       	sbc	r5, r4
     296:	f2 09       	sbc	r31, r2
     298:	f2 09       	sbc	r31, r2
     29a:	f2 09       	sbc	r31, r2
     29c:	f2 09       	sbc	r31, r2
     29e:	57 08       	sbc	r5, r7
     2a0:	f2 09       	sbc	r31, r2
     2a2:	f2 09       	sbc	r31, r2
     2a4:	f2 09       	sbc	r31, r2
     2a6:	f2 09       	sbc	r31, r2
     2a8:	5a 08       	sbc	r5, r10
     2aa:	f2 09       	sbc	r31, r2
     2ac:	f2 09       	sbc	r31, r2
     2ae:	f2 09       	sbc	r31, r2
     2b0:	f2 09       	sbc	r31, r2
     2b2:	5d 08       	sbc	r5, r13
     2b4:	f2 09       	sbc	r31, r2
     2b6:	f2 09       	sbc	r31, r2
     2b8:	f2 09       	sbc	r31, r2
     2ba:	f2 09       	sbc	r31, r2
     2bc:	60 08       	sbc	r6, r0
     2be:	f2 09       	sbc	r31, r2
     2c0:	f2 09       	sbc	r31, r2
     2c2:	f2 09       	sbc	r31, r2
     2c4:	f2 09       	sbc	r31, r2
     2c6:	63 08       	sbc	r6, r3
     2c8:	f2 09       	sbc	r31, r2
     2ca:	f2 09       	sbc	r31, r2
     2cc:	f2 09       	sbc	r31, r2
     2ce:	f2 09       	sbc	r31, r2
     2d0:	66 08       	sbc	r6, r6
     2d2:	f2 09       	sbc	r31, r2
     2d4:	f2 09       	sbc	r31, r2
     2d6:	f2 09       	sbc	r31, r2
     2d8:	f2 09       	sbc	r31, r2
     2da:	69 08       	sbc	r6, r9
     2dc:	f2 09       	sbc	r31, r2
     2de:	f2 09       	sbc	r31, r2
     2e0:	f2 09       	sbc	r31, r2
     2e2:	f2 09       	sbc	r31, r2
     2e4:	6c 08       	sbc	r6, r12
     2e6:	f2 09       	sbc	r31, r2
     2e8:	f2 09       	sbc	r31, r2
     2ea:	f2 09       	sbc	r31, r2
     2ec:	f2 09       	sbc	r31, r2
     2ee:	6f 08       	sbc	r6, r15
     2f0:	f2 09       	sbc	r31, r2
     2f2:	f2 09       	sbc	r31, r2
     2f4:	f2 09       	sbc	r31, r2
     2f6:	f2 09       	sbc	r31, r2
     2f8:	72 08       	sbc	r7, r2
     2fa:	f2 09       	sbc	r31, r2
     2fc:	f2 09       	sbc	r31, r2
     2fe:	f2 09       	sbc	r31, r2
     300:	f2 09       	sbc	r31, r2
     302:	75 08       	sbc	r7, r5
     304:	f2 09       	sbc	r31, r2
     306:	f2 09       	sbc	r31, r2
     308:	f2 09       	sbc	r31, r2
     30a:	f2 09       	sbc	r31, r2
     30c:	78 08       	sbc	r7, r8
     30e:	f2 09       	sbc	r31, r2
     310:	f2 09       	sbc	r31, r2
     312:	f2 09       	sbc	r31, r2
     314:	f2 09       	sbc	r31, r2
     316:	7b 08       	sbc	r7, r11
     318:	f2 09       	sbc	r31, r2
     31a:	f2 09       	sbc	r31, r2
     31c:	f2 09       	sbc	r31, r2
     31e:	f2 09       	sbc	r31, r2
     320:	7e 08       	sbc	r7, r14
     322:	f2 09       	sbc	r31, r2
     324:	f2 09       	sbc	r31, r2
     326:	f2 09       	sbc	r31, r2
     328:	f2 09       	sbc	r31, r2
     32a:	81 08       	sbc	r8, r1
     32c:	f2 09       	sbc	r31, r2
     32e:	f2 09       	sbc	r31, r2
     330:	f2 09       	sbc	r31, r2
     332:	f2 09       	sbc	r31, r2
     334:	84 08       	sbc	r8, r4
     336:	f2 09       	sbc	r31, r2
     338:	f2 09       	sbc	r31, r2
     33a:	f2 09       	sbc	r31, r2
     33c:	f2 09       	sbc	r31, r2
     33e:	87 08       	sbc	r8, r7
     340:	f2 09       	sbc	r31, r2
     342:	f2 09       	sbc	r31, r2
     344:	f2 09       	sbc	r31, r2
     346:	f2 09       	sbc	r31, r2
     348:	8a 08       	sbc	r8, r10
     34a:	f2 09       	sbc	r31, r2
     34c:	f2 09       	sbc	r31, r2
     34e:	f2 09       	sbc	r31, r2
     350:	f2 09       	sbc	r31, r2
     352:	8d 08       	sbc	r8, r13
     354:	f2 09       	sbc	r31, r2
     356:	f2 09       	sbc	r31, r2
     358:	f2 09       	sbc	r31, r2
     35a:	f2 09       	sbc	r31, r2
     35c:	90 08       	sbc	r9, r0
     35e:	f2 09       	sbc	r31, r2
     360:	f2 09       	sbc	r31, r2
     362:	f2 09       	sbc	r31, r2
     364:	f2 09       	sbc	r31, r2
     366:	93 08       	sbc	r9, r3
     368:	f2 09       	sbc	r31, r2
     36a:	f2 09       	sbc	r31, r2
     36c:	f2 09       	sbc	r31, r2
     36e:	f2 09       	sbc	r31, r2
     370:	96 08       	sbc	r9, r6
     372:	f2 09       	sbc	r31, r2
     374:	f2 09       	sbc	r31, r2
     376:	f2 09       	sbc	r31, r2
     378:	f2 09       	sbc	r31, r2
     37a:	99 08       	sbc	r9, r9
     37c:	f2 09       	sbc	r31, r2
     37e:	f2 09       	sbc	r31, r2
     380:	f2 09       	sbc	r31, r2
     382:	f2 09       	sbc	r31, r2
     384:	9c 08       	sbc	r9, r12
     386:	f2 09       	sbc	r31, r2
     388:	f2 09       	sbc	r31, r2
     38a:	f2 09       	sbc	r31, r2
     38c:	f2 09       	sbc	r31, r2
     38e:	9f 08       	sbc	r9, r15
     390:	f2 09       	sbc	r31, r2
     392:	f2 09       	sbc	r31, r2
     394:	f2 09       	sbc	r31, r2
     396:	f2 09       	sbc	r31, r2
     398:	a2 08       	sbc	r10, r2
     39a:	f2 09       	sbc	r31, r2
     39c:	f2 09       	sbc	r31, r2
     39e:	f2 09       	sbc	r31, r2
     3a0:	f2 09       	sbc	r31, r2
     3a2:	a5 08       	sbc	r10, r5
     3a4:	f2 09       	sbc	r31, r2
     3a6:	f2 09       	sbc	r31, r2
     3a8:	f2 09       	sbc	r31, r2
     3aa:	f2 09       	sbc	r31, r2
     3ac:	a8 08       	sbc	r10, r8
     3ae:	f2 09       	sbc	r31, r2
     3b0:	f2 09       	sbc	r31, r2
     3b2:	f2 09       	sbc	r31, r2
     3b4:	f2 09       	sbc	r31, r2
     3b6:	ab 08       	sbc	r10, r11
     3b8:	f2 09       	sbc	r31, r2
     3ba:	f2 09       	sbc	r31, r2
     3bc:	f2 09       	sbc	r31, r2
     3be:	f2 09       	sbc	r31, r2
     3c0:	ae 08       	sbc	r10, r14
     3c2:	f2 09       	sbc	r31, r2
     3c4:	f2 09       	sbc	r31, r2
     3c6:	f2 09       	sbc	r31, r2
     3c8:	f2 09       	sbc	r31, r2
     3ca:	b1 08       	sbc	r11, r1
     3cc:	f2 09       	sbc	r31, r2
     3ce:	f2 09       	sbc	r31, r2
     3d0:	f2 09       	sbc	r31, r2
     3d2:	f2 09       	sbc	r31, r2
     3d4:	b4 08       	sbc	r11, r4
     3d6:	f2 09       	sbc	r31, r2
     3d8:	f2 09       	sbc	r31, r2
     3da:	f2 09       	sbc	r31, r2
     3dc:	f2 09       	sbc	r31, r2
     3de:	b7 08       	sbc	r11, r7
     3e0:	f2 09       	sbc	r31, r2
     3e2:	f2 09       	sbc	r31, r2
     3e4:	f2 09       	sbc	r31, r2
     3e6:	f2 09       	sbc	r31, r2
     3e8:	ba 08       	sbc	r11, r10
     3ea:	f2 09       	sbc	r31, r2
     3ec:	f2 09       	sbc	r31, r2
     3ee:	f2 09       	sbc	r31, r2
     3f0:	f2 09       	sbc	r31, r2
     3f2:	bd 08       	sbc	r11, r13
     3f4:	f2 09       	sbc	r31, r2
     3f6:	f2 09       	sbc	r31, r2
     3f8:	f2 09       	sbc	r31, r2
     3fa:	f2 09       	sbc	r31, r2
     3fc:	c0 08       	sbc	r12, r0
     3fe:	f2 09       	sbc	r31, r2
     400:	f2 09       	sbc	r31, r2
     402:	f2 09       	sbc	r31, r2
     404:	f2 09       	sbc	r31, r2
     406:	c3 08       	sbc	r12, r3
     408:	f2 09       	sbc	r31, r2
     40a:	f2 09       	sbc	r31, r2
     40c:	f2 09       	sbc	r31, r2
     40e:	f2 09       	sbc	r31, r2
     410:	c6 08       	sbc	r12, r6
     412:	f2 09       	sbc	r31, r2
     414:	f2 09       	sbc	r31, r2
     416:	f2 09       	sbc	r31, r2
     418:	f2 09       	sbc	r31, r2
     41a:	c9 08       	sbc	r12, r9
     41c:	f2 09       	sbc	r31, r2
     41e:	f2 09       	sbc	r31, r2
     420:	f2 09       	sbc	r31, r2
     422:	f2 09       	sbc	r31, r2
     424:	cc 08       	sbc	r12, r12
     426:	f2 09       	sbc	r31, r2
     428:	f2 09       	sbc	r31, r2
     42a:	f2 09       	sbc	r31, r2
     42c:	f2 09       	sbc	r31, r2
     42e:	cf 08       	sbc	r12, r15
     430:	f2 09       	sbc	r31, r2
     432:	f2 09       	sbc	r31, r2
     434:	f2 09       	sbc	r31, r2
     436:	f2 09       	sbc	r31, r2
     438:	d2 08       	sbc	r13, r2
     43a:	f2 09       	sbc	r31, r2
     43c:	f2 09       	sbc	r31, r2
     43e:	f2 09       	sbc	r31, r2
     440:	f2 09       	sbc	r31, r2
     442:	d5 08       	sbc	r13, r5
     444:	f2 09       	sbc	r31, r2
     446:	f2 09       	sbc	r31, r2
     448:	f2 09       	sbc	r31, r2
     44a:	f2 09       	sbc	r31, r2
     44c:	d8 08       	sbc	r13, r8
     44e:	f2 09       	sbc	r31, r2
     450:	f2 09       	sbc	r31, r2
     452:	f2 09       	sbc	r31, r2
     454:	f2 09       	sbc	r31, r2
     456:	db 08       	sbc	r13, r11
     458:	f2 09       	sbc	r31, r2
     45a:	f2 09       	sbc	r31, r2
     45c:	f2 09       	sbc	r31, r2
     45e:	f2 09       	sbc	r31, r2
     460:	de 08       	sbc	r13, r14
     462:	f2 09       	sbc	r31, r2
     464:	f2 09       	sbc	r31, r2
     466:	f2 09       	sbc	r31, r2
     468:	f2 09       	sbc	r31, r2
     46a:	e1 08       	sbc	r14, r1
     46c:	f2 09       	sbc	r31, r2
     46e:	f2 09       	sbc	r31, r2
     470:	f2 09       	sbc	r31, r2
     472:	f2 09       	sbc	r31, r2
     474:	e4 08       	sbc	r14, r4
     476:	f2 09       	sbc	r31, r2
     478:	f2 09       	sbc	r31, r2
     47a:	f2 09       	sbc	r31, r2
     47c:	f2 09       	sbc	r31, r2
     47e:	e7 08       	sbc	r14, r7
     480:	f2 09       	sbc	r31, r2
     482:	f2 09       	sbc	r31, r2
     484:	f2 09       	sbc	r31, r2
     486:	f2 09       	sbc	r31, r2
     488:	ea 08       	sbc	r14, r10
     48a:	f2 09       	sbc	r31, r2
     48c:	f2 09       	sbc	r31, r2
     48e:	f2 09       	sbc	r31, r2
     490:	f2 09       	sbc	r31, r2
     492:	ed 08       	sbc	r14, r13
     494:	f2 09       	sbc	r31, r2
     496:	f2 09       	sbc	r31, r2
     498:	f2 09       	sbc	r31, r2
     49a:	f2 09       	sbc	r31, r2
     49c:	f0 08       	sbc	r15, r0
     49e:	f2 09       	sbc	r31, r2
     4a0:	f2 09       	sbc	r31, r2
     4a2:	f2 09       	sbc	r31, r2
     4a4:	f2 09       	sbc	r31, r2
     4a6:	f3 08       	sbc	r15, r3
     4a8:	f2 09       	sbc	r31, r2
     4aa:	f2 09       	sbc	r31, r2
     4ac:	f2 09       	sbc	r31, r2
     4ae:	f2 09       	sbc	r31, r2
     4b0:	f6 08       	sbc	r15, r6
     4b2:	f2 09       	sbc	r31, r2
     4b4:	f2 09       	sbc	r31, r2
     4b6:	f2 09       	sbc	r31, r2
     4b8:	f2 09       	sbc	r31, r2
     4ba:	f9 08       	sbc	r15, r9
     4bc:	f2 09       	sbc	r31, r2
     4be:	f2 09       	sbc	r31, r2
     4c0:	f2 09       	sbc	r31, r2
     4c2:	f2 09       	sbc	r31, r2
     4c4:	fc 08       	sbc	r15, r12
     4c6:	f2 09       	sbc	r31, r2
     4c8:	f2 09       	sbc	r31, r2
     4ca:	f2 09       	sbc	r31, r2
     4cc:	f2 09       	sbc	r31, r2
     4ce:	ff 08       	sbc	r15, r15
     4d0:	f2 09       	sbc	r31, r2
     4d2:	f2 09       	sbc	r31, r2
     4d4:	f2 09       	sbc	r31, r2
     4d6:	f2 09       	sbc	r31, r2
     4d8:	02 09       	sbc	r16, r2
     4da:	f2 09       	sbc	r31, r2
     4dc:	f2 09       	sbc	r31, r2
     4de:	f2 09       	sbc	r31, r2
     4e0:	f2 09       	sbc	r31, r2
     4e2:	05 09       	sbc	r16, r5
     4e4:	f2 09       	sbc	r31, r2
     4e6:	f2 09       	sbc	r31, r2
     4e8:	f2 09       	sbc	r31, r2
     4ea:	f2 09       	sbc	r31, r2
     4ec:	08 09       	sbc	r16, r8
     4ee:	f2 09       	sbc	r31, r2
     4f0:	f2 09       	sbc	r31, r2
     4f2:	f2 09       	sbc	r31, r2
     4f4:	f2 09       	sbc	r31, r2
     4f6:	0b 09       	sbc	r16, r11
     4f8:	f2 09       	sbc	r31, r2
     4fa:	f2 09       	sbc	r31, r2
     4fc:	f2 09       	sbc	r31, r2
     4fe:	f2 09       	sbc	r31, r2
     500:	0e 09       	sbc	r16, r14
     502:	f2 09       	sbc	r31, r2
     504:	f2 09       	sbc	r31, r2
     506:	f2 09       	sbc	r31, r2
     508:	f2 09       	sbc	r31, r2
     50a:	11 09       	sbc	r17, r1
     50c:	f2 09       	sbc	r31, r2
     50e:	f2 09       	sbc	r31, r2
     510:	f2 09       	sbc	r31, r2
     512:	f2 09       	sbc	r31, r2
     514:	14 09       	sbc	r17, r4
     516:	f2 09       	sbc	r31, r2
     518:	f2 09       	sbc	r31, r2
     51a:	f2 09       	sbc	r31, r2
     51c:	f2 09       	sbc	r31, r2
     51e:	17 09       	sbc	r17, r7
     520:	f2 09       	sbc	r31, r2
     522:	f2 09       	sbc	r31, r2
     524:	f2 09       	sbc	r31, r2
     526:	f2 09       	sbc	r31, r2
     528:	1a 09       	sbc	r17, r10
     52a:	f2 09       	sbc	r31, r2
     52c:	f2 09       	sbc	r31, r2
     52e:	f2 09       	sbc	r31, r2
     530:	f2 09       	sbc	r31, r2
     532:	1d 09       	sbc	r17, r13
     534:	f2 09       	sbc	r31, r2
     536:	f2 09       	sbc	r31, r2
     538:	f2 09       	sbc	r31, r2
     53a:	f2 09       	sbc	r31, r2
     53c:	20 09       	sbc	r18, r0
     53e:	f2 09       	sbc	r31, r2
     540:	f2 09       	sbc	r31, r2
     542:	f2 09       	sbc	r31, r2
     544:	f2 09       	sbc	r31, r2
     546:	23 09       	sbc	r18, r3
     548:	f2 09       	sbc	r31, r2
     54a:	f2 09       	sbc	r31, r2
     54c:	f2 09       	sbc	r31, r2
     54e:	f2 09       	sbc	r31, r2
     550:	26 09       	sbc	r18, r6
     552:	f2 09       	sbc	r31, r2
     554:	f2 09       	sbc	r31, r2
     556:	f2 09       	sbc	r31, r2
     558:	f2 09       	sbc	r31, r2
     55a:	29 09       	sbc	r18, r9
     55c:	f2 09       	sbc	r31, r2
     55e:	f2 09       	sbc	r31, r2
     560:	f2 09       	sbc	r31, r2
     562:	f2 09       	sbc	r31, r2
     564:	2c 09       	sbc	r18, r12
     566:	f2 09       	sbc	r31, r2
     568:	f2 09       	sbc	r31, r2
     56a:	f2 09       	sbc	r31, r2
     56c:	f2 09       	sbc	r31, r2
     56e:	2f 09       	sbc	r18, r15
     570:	f2 09       	sbc	r31, r2
     572:	f2 09       	sbc	r31, r2
     574:	f2 09       	sbc	r31, r2
     576:	f2 09       	sbc	r31, r2
     578:	32 09       	sbc	r19, r2
     57a:	f2 09       	sbc	r31, r2
     57c:	f2 09       	sbc	r31, r2
     57e:	f2 09       	sbc	r31, r2
     580:	f2 09       	sbc	r31, r2
     582:	35 09       	sbc	r19, r5
     584:	f2 09       	sbc	r31, r2
     586:	f2 09       	sbc	r31, r2
     588:	f2 09       	sbc	r31, r2
     58a:	f2 09       	sbc	r31, r2
     58c:	38 09       	sbc	r19, r8
     58e:	f2 09       	sbc	r31, r2
     590:	f2 09       	sbc	r31, r2
     592:	f2 09       	sbc	r31, r2
     594:	f2 09       	sbc	r31, r2
     596:	3b 09       	sbc	r19, r11
     598:	f2 09       	sbc	r31, r2
     59a:	f2 09       	sbc	r31, r2
     59c:	f2 09       	sbc	r31, r2
     59e:	f2 09       	sbc	r31, r2
     5a0:	3e 09       	sbc	r19, r14
     5a2:	f2 09       	sbc	r31, r2
     5a4:	f2 09       	sbc	r31, r2
     5a6:	f2 09       	sbc	r31, r2
     5a8:	f2 09       	sbc	r31, r2
     5aa:	41 09       	sbc	r20, r1
     5ac:	f2 09       	sbc	r31, r2
     5ae:	f2 09       	sbc	r31, r2
     5b0:	f2 09       	sbc	r31, r2
     5b2:	f2 09       	sbc	r31, r2
     5b4:	44 09       	sbc	r20, r4
     5b6:	f2 09       	sbc	r31, r2
     5b8:	f2 09       	sbc	r31, r2
     5ba:	f2 09       	sbc	r31, r2
     5bc:	f2 09       	sbc	r31, r2
     5be:	47 09       	sbc	r20, r7
     5c0:	f2 09       	sbc	r31, r2
     5c2:	f2 09       	sbc	r31, r2
     5c4:	f2 09       	sbc	r31, r2
     5c6:	f2 09       	sbc	r31, r2
     5c8:	4a 09       	sbc	r20, r10
     5ca:	f2 09       	sbc	r31, r2
     5cc:	f2 09       	sbc	r31, r2
     5ce:	f2 09       	sbc	r31, r2
     5d0:	f2 09       	sbc	r31, r2
     5d2:	4d 09       	sbc	r20, r13
     5d4:	f2 09       	sbc	r31, r2
     5d6:	f2 09       	sbc	r31, r2
     5d8:	f2 09       	sbc	r31, r2
     5da:	f2 09       	sbc	r31, r2
     5dc:	50 09       	sbc	r21, r0
     5de:	f2 09       	sbc	r31, r2
     5e0:	f2 09       	sbc	r31, r2
     5e2:	f2 09       	sbc	r31, r2
     5e4:	f2 09       	sbc	r31, r2
     5e6:	53 09       	sbc	r21, r3
     5e8:	f2 09       	sbc	r31, r2
     5ea:	f2 09       	sbc	r31, r2
     5ec:	f2 09       	sbc	r31, r2
     5ee:	f2 09       	sbc	r31, r2
     5f0:	56 09       	sbc	r21, r6
     5f2:	f2 09       	sbc	r31, r2
     5f4:	f2 09       	sbc	r31, r2
     5f6:	f2 09       	sbc	r31, r2
     5f8:	f2 09       	sbc	r31, r2
     5fa:	59 09       	sbc	r21, r9
     5fc:	f2 09       	sbc	r31, r2
     5fe:	f2 09       	sbc	r31, r2
     600:	f2 09       	sbc	r31, r2
     602:	f2 09       	sbc	r31, r2
     604:	5c 09       	sbc	r21, r12
     606:	f2 09       	sbc	r31, r2
     608:	f2 09       	sbc	r31, r2
     60a:	f2 09       	sbc	r31, r2
     60c:	f2 09       	sbc	r31, r2
     60e:	5f 09       	sbc	r21, r15
     610:	f2 09       	sbc	r31, r2
     612:	f2 09       	sbc	r31, r2
     614:	f2 09       	sbc	r31, r2
     616:	f2 09       	sbc	r31, r2
     618:	62 09       	sbc	r22, r2
     61a:	f2 09       	sbc	r31, r2
     61c:	f2 09       	sbc	r31, r2
     61e:	f2 09       	sbc	r31, r2
     620:	f2 09       	sbc	r31, r2
     622:	65 09       	sbc	r22, r5
     624:	f2 09       	sbc	r31, r2
     626:	f2 09       	sbc	r31, r2
     628:	f2 09       	sbc	r31, r2
     62a:	f2 09       	sbc	r31, r2
     62c:	68 09       	sbc	r22, r8
     62e:	f2 09       	sbc	r31, r2
     630:	f2 09       	sbc	r31, r2
     632:	f2 09       	sbc	r31, r2
     634:	f2 09       	sbc	r31, r2
     636:	6b 09       	sbc	r22, r11
     638:	f2 09       	sbc	r31, r2
     63a:	f2 09       	sbc	r31, r2
     63c:	f2 09       	sbc	r31, r2
     63e:	f2 09       	sbc	r31, r2
     640:	6e 09       	sbc	r22, r14
     642:	f2 09       	sbc	r31, r2
     644:	f2 09       	sbc	r31, r2
     646:	f2 09       	sbc	r31, r2
     648:	f2 09       	sbc	r31, r2
     64a:	71 09       	sbc	r23, r1
     64c:	f2 09       	sbc	r31, r2
     64e:	f2 09       	sbc	r31, r2
     650:	f2 09       	sbc	r31, r2
     652:	f2 09       	sbc	r31, r2
     654:	74 09       	sbc	r23, r4
     656:	f2 09       	sbc	r31, r2
     658:	f2 09       	sbc	r31, r2
     65a:	f2 09       	sbc	r31, r2
     65c:	f2 09       	sbc	r31, r2
     65e:	77 09       	sbc	r23, r7
     660:	f2 09       	sbc	r31, r2
     662:	f2 09       	sbc	r31, r2
     664:	f2 09       	sbc	r31, r2
     666:	f2 09       	sbc	r31, r2
     668:	7a 09       	sbc	r23, r10
     66a:	f2 09       	sbc	r31, r2
     66c:	f2 09       	sbc	r31, r2
     66e:	f2 09       	sbc	r31, r2
     670:	f2 09       	sbc	r31, r2
     672:	7d 09       	sbc	r23, r13
     674:	f2 09       	sbc	r31, r2
     676:	f2 09       	sbc	r31, r2
     678:	f2 09       	sbc	r31, r2
     67a:	f2 09       	sbc	r31, r2
     67c:	80 09       	sbc	r24, r0
     67e:	f2 09       	sbc	r31, r2
     680:	f2 09       	sbc	r31, r2
     682:	f2 09       	sbc	r31, r2
     684:	f2 09       	sbc	r31, r2
     686:	83 09       	sbc	r24, r3
     688:	f2 09       	sbc	r31, r2
     68a:	f2 09       	sbc	r31, r2
     68c:	f2 09       	sbc	r31, r2
     68e:	f2 09       	sbc	r31, r2
     690:	86 09       	sbc	r24, r6
     692:	f2 09       	sbc	r31, r2
     694:	f2 09       	sbc	r31, r2
     696:	f2 09       	sbc	r31, r2
     698:	f2 09       	sbc	r31, r2
     69a:	89 09       	sbc	r24, r9
     69c:	f2 09       	sbc	r31, r2
     69e:	f2 09       	sbc	r31, r2
     6a0:	f2 09       	sbc	r31, r2
     6a2:	f2 09       	sbc	r31, r2
     6a4:	8c 09       	sbc	r24, r12
     6a6:	f2 09       	sbc	r31, r2
     6a8:	f2 09       	sbc	r31, r2
     6aa:	f2 09       	sbc	r31, r2
     6ac:	f2 09       	sbc	r31, r2
     6ae:	8f 09       	sbc	r24, r15
     6b0:	f2 09       	sbc	r31, r2
     6b2:	f2 09       	sbc	r31, r2
     6b4:	f2 09       	sbc	r31, r2
     6b6:	f2 09       	sbc	r31, r2
     6b8:	92 09       	sbc	r25, r2
     6ba:	f2 09       	sbc	r31, r2
     6bc:	f2 09       	sbc	r31, r2
     6be:	f2 09       	sbc	r31, r2
     6c0:	f2 09       	sbc	r31, r2
     6c2:	95 09       	sbc	r25, r5
     6c4:	f2 09       	sbc	r31, r2
     6c6:	f2 09       	sbc	r31, r2
     6c8:	f2 09       	sbc	r31, r2
     6ca:	f2 09       	sbc	r31, r2
     6cc:	98 09       	sbc	r25, r8
     6ce:	f2 09       	sbc	r31, r2
     6d0:	f2 09       	sbc	r31, r2
     6d2:	f2 09       	sbc	r31, r2
     6d4:	f2 09       	sbc	r31, r2
     6d6:	9b 09       	sbc	r25, r11
     6d8:	f2 09       	sbc	r31, r2
     6da:	f2 09       	sbc	r31, r2
     6dc:	f2 09       	sbc	r31, r2
     6de:	f2 09       	sbc	r31, r2
     6e0:	9e 09       	sbc	r25, r14
     6e2:	f2 09       	sbc	r31, r2
     6e4:	f2 09       	sbc	r31, r2
     6e6:	f2 09       	sbc	r31, r2
     6e8:	f2 09       	sbc	r31, r2
     6ea:	a1 09       	sbc	r26, r1
     6ec:	f2 09       	sbc	r31, r2
     6ee:	f2 09       	sbc	r31, r2
     6f0:	f2 09       	sbc	r31, r2
     6f2:	f2 09       	sbc	r31, r2
     6f4:	a4 09       	sbc	r26, r4
     6f6:	f2 09       	sbc	r31, r2
     6f8:	f2 09       	sbc	r31, r2
     6fa:	f2 09       	sbc	r31, r2
     6fc:	f2 09       	sbc	r31, r2
     6fe:	a7 09       	sbc	r26, r7
     700:	f2 09       	sbc	r31, r2
     702:	f2 09       	sbc	r31, r2
     704:	f2 09       	sbc	r31, r2
     706:	f2 09       	sbc	r31, r2
     708:	aa 09       	sbc	r26, r10
     70a:	f2 09       	sbc	r31, r2
     70c:	f2 09       	sbc	r31, r2
     70e:	f2 09       	sbc	r31, r2
     710:	f2 09       	sbc	r31, r2
     712:	ad 09       	sbc	r26, r13
     714:	f2 09       	sbc	r31, r2
     716:	f2 09       	sbc	r31, r2
     718:	f2 09       	sbc	r31, r2
     71a:	f2 09       	sbc	r31, r2
     71c:	b0 09       	sbc	r27, r0
     71e:	f2 09       	sbc	r31, r2
     720:	f2 09       	sbc	r31, r2
     722:	f2 09       	sbc	r31, r2
     724:	f2 09       	sbc	r31, r2
     726:	b3 09       	sbc	r27, r3
     728:	f2 09       	sbc	r31, r2
     72a:	f2 09       	sbc	r31, r2
     72c:	f2 09       	sbc	r31, r2
     72e:	f2 09       	sbc	r31, r2
     730:	b6 09       	sbc	r27, r6
     732:	f2 09       	sbc	r31, r2
     734:	f2 09       	sbc	r31, r2
     736:	f2 09       	sbc	r31, r2
     738:	f2 09       	sbc	r31, r2
     73a:	b9 09       	sbc	r27, r9
     73c:	f2 09       	sbc	r31, r2
     73e:	f2 09       	sbc	r31, r2
     740:	f2 09       	sbc	r31, r2
     742:	f2 09       	sbc	r31, r2
     744:	bc 09       	sbc	r27, r12
     746:	f2 09       	sbc	r31, r2
     748:	f2 09       	sbc	r31, r2
     74a:	f2 09       	sbc	r31, r2
     74c:	f2 09       	sbc	r31, r2
     74e:	bf 09       	sbc	r27, r15
     750:	f2 09       	sbc	r31, r2
     752:	f2 09       	sbc	r31, r2
     754:	f2 09       	sbc	r31, r2
     756:	f2 09       	sbc	r31, r2
     758:	c2 09       	sbc	r28, r2
     75a:	f2 09       	sbc	r31, r2
     75c:	f2 09       	sbc	r31, r2
     75e:	f2 09       	sbc	r31, r2
     760:	f2 09       	sbc	r31, r2
     762:	c5 09       	sbc	r28, r5
     764:	f2 09       	sbc	r31, r2
     766:	f2 09       	sbc	r31, r2
     768:	f2 09       	sbc	r31, r2
     76a:	f2 09       	sbc	r31, r2
     76c:	c8 09       	sbc	r28, r8
     76e:	f2 09       	sbc	r31, r2
     770:	f2 09       	sbc	r31, r2
     772:	f2 09       	sbc	r31, r2
     774:	f2 09       	sbc	r31, r2
     776:	cb 09       	sbc	r28, r11
     778:	f2 09       	sbc	r31, r2
     77a:	f2 09       	sbc	r31, r2
     77c:	f2 09       	sbc	r31, r2
     77e:	f2 09       	sbc	r31, r2
     780:	ce 09       	sbc	r28, r14
     782:	f2 09       	sbc	r31, r2
     784:	f2 09       	sbc	r31, r2
     786:	f2 09       	sbc	r31, r2
     788:	f2 09       	sbc	r31, r2
     78a:	d1 09       	sbc	r29, r1
     78c:	f2 09       	sbc	r31, r2
     78e:	f2 09       	sbc	r31, r2
     790:	f2 09       	sbc	r31, r2
     792:	f2 09       	sbc	r31, r2
     794:	d4 09       	sbc	r29, r4
     796:	f2 09       	sbc	r31, r2
     798:	f2 09       	sbc	r31, r2
     79a:	f2 09       	sbc	r31, r2
     79c:	f2 09       	sbc	r31, r2
     79e:	d7 09       	sbc	r29, r7
     7a0:	f2 09       	sbc	r31, r2
     7a2:	f2 09       	sbc	r31, r2
     7a4:	f2 09       	sbc	r31, r2
     7a6:	f2 09       	sbc	r31, r2
     7a8:	da 09       	sbc	r29, r10
     7aa:	f2 09       	sbc	r31, r2
     7ac:	f2 09       	sbc	r31, r2
     7ae:	f2 09       	sbc	r31, r2
     7b0:	f2 09       	sbc	r31, r2
     7b2:	dd 09       	sbc	r29, r13
     7b4:	f2 09       	sbc	r31, r2
     7b6:	f2 09       	sbc	r31, r2
     7b8:	f2 09       	sbc	r31, r2
     7ba:	f2 09       	sbc	r31, r2
     7bc:	e0 09       	sbc	r30, r0
     7be:	f2 09       	sbc	r31, r2
     7c0:	f2 09       	sbc	r31, r2
     7c2:	f2 09       	sbc	r31, r2
     7c4:	f2 09       	sbc	r31, r2
     7c6:	e3 09       	sbc	r30, r3
     7c8:	f2 09       	sbc	r31, r2
     7ca:	f2 09       	sbc	r31, r2
     7cc:	f2 09       	sbc	r31, r2
     7ce:	f2 09       	sbc	r31, r2
     7d0:	e6 09       	sbc	r30, r6
     7d2:	f2 09       	sbc	r31, r2
     7d4:	f2 09       	sbc	r31, r2
     7d6:	f2 09       	sbc	r31, r2
     7d8:	f2 09       	sbc	r31, r2
     7da:	e9 09       	sbc	r30, r9
     7dc:	f2 09       	sbc	r31, r2
     7de:	f2 09       	sbc	r31, r2
     7e0:	f2 09       	sbc	r31, r2
     7e2:	f2 09       	sbc	r31, r2
     7e4:	ec 09       	sbc	r30, r12
     7e6:	f2 09       	sbc	r31, r2
     7e8:	f2 09       	sbc	r31, r2
     7ea:	f2 09       	sbc	r31, r2
     7ec:	f2 09       	sbc	r31, r2
     7ee:	ef 09       	sbc	r30, r15
     7f0:	55 0c       	add	r5, r5
     7f2:	90 0a       	sbc	r9, r16
     7f4:	93 0a       	sbc	r9, r19
     7f6:	96 0a       	sbc	r9, r22
     7f8:	99 0a       	sbc	r9, r25
     7fa:	9c 0a       	sbc	r9, r28
     7fc:	9f 0a       	sbc	r9, r31
     7fe:	a2 0a       	sbc	r10, r18
     800:	a5 0a       	sbc	r10, r21
     802:	a8 0a       	sbc	r10, r24
     804:	ab 0a       	sbc	r10, r27
     806:	ae 0a       	sbc	r10, r30
     808:	b1 0a       	sbc	r11, r17
     80a:	b4 0a       	sbc	r11, r20
     80c:	b7 0a       	sbc	r11, r23
     80e:	ba 0a       	sbc	r11, r26
     810:	bd 0a       	sbc	r11, r29
     812:	c0 0a       	sbc	r12, r16
     814:	c3 0a       	sbc	r12, r19
     816:	c6 0a       	sbc	r12, r22
     818:	c9 0a       	sbc	r12, r25
     81a:	cc 0a       	sbc	r12, r28
     81c:	cf 0a       	sbc	r12, r31
     81e:	d2 0a       	sbc	r13, r18
     820:	d5 0a       	sbc	r13, r21
     822:	d8 0a       	sbc	r13, r24
     824:	db 0a       	sbc	r13, r27
     826:	de 0a       	sbc	r13, r30
     828:	e1 0a       	sbc	r14, r17
     82a:	e4 0a       	sbc	r14, r20
     82c:	e7 0a       	sbc	r14, r23
     82e:	ea 0a       	sbc	r14, r26
     830:	ed 0a       	sbc	r14, r29
     832:	f0 0a       	sbc	r15, r16
     834:	f3 0a       	sbc	r15, r19
     836:	f6 0a       	sbc	r15, r22
     838:	f9 0a       	sbc	r15, r25
     83a:	fc 0a       	sbc	r15, r28
     83c:	ff 0a       	sbc	r15, r31
     83e:	02 0b       	sbc	r16, r18
     840:	05 0b       	sbc	r16, r21
     842:	08 0b       	sbc	r16, r24
     844:	0b 0b       	sbc	r16, r27
     846:	0e 0b       	sbc	r16, r30
     848:	11 0b       	sbc	r17, r17
     84a:	14 0b       	sbc	r17, r20
     84c:	17 0b       	sbc	r17, r23
     84e:	1a 0b       	sbc	r17, r26
     850:	1d 0b       	sbc	r17, r29
     852:	20 0b       	sbc	r18, r16
     854:	23 0b       	sbc	r18, r19
     856:	26 0b       	sbc	r18, r22
     858:	29 0b       	sbc	r18, r25
     85a:	2c 0b       	sbc	r18, r28
     85c:	2f 0b       	sbc	r18, r31
     85e:	32 0b       	sbc	r19, r18
     860:	35 0b       	sbc	r19, r21
     862:	38 0b       	sbc	r19, r24
     864:	3b 0b       	sbc	r19, r27
     866:	3e 0b       	sbc	r19, r30
     868:	41 0b       	sbc	r20, r17
     86a:	44 0b       	sbc	r20, r20
     86c:	47 0b       	sbc	r20, r23
     86e:	4a 0b       	sbc	r20, r26
     870:	4d 0b       	sbc	r20, r29
     872:	50 0b       	sbc	r21, r16
     874:	53 0b       	sbc	r21, r19
     876:	56 0b       	sbc	r21, r22
     878:	59 0b       	sbc	r21, r25
     87a:	5c 0b       	sbc	r21, r28
     87c:	5f 0b       	sbc	r21, r31
     87e:	62 0b       	sbc	r22, r18
     880:	65 0b       	sbc	r22, r21
     882:	68 0b       	sbc	r22, r24
     884:	6b 0b       	sbc	r22, r27
     886:	6e 0b       	sbc	r22, r30
     888:	71 0b       	sbc	r23, r17
     88a:	74 0b       	sbc	r23, r20
     88c:	77 0b       	sbc	r23, r23
     88e:	7a 0b       	sbc	r23, r26
     890:	7d 0b       	sbc	r23, r29
     892:	80 0b       	sbc	r24, r16
     894:	83 0b       	sbc	r24, r19
     896:	86 0b       	sbc	r24, r22
     898:	89 0b       	sbc	r24, r25
     89a:	8c 0b       	sbc	r24, r28
     89c:	8f 0b       	sbc	r24, r31
     89e:	92 0b       	sbc	r25, r18
     8a0:	95 0b       	sbc	r25, r21
     8a2:	98 0b       	sbc	r25, r24
     8a4:	9b 0b       	sbc	r25, r27
     8a6:	9e 0b       	sbc	r25, r30
     8a8:	a1 0b       	sbc	r26, r17
     8aa:	a4 0b       	sbc	r26, r20
     8ac:	a7 0b       	sbc	r26, r23
     8ae:	aa 0b       	sbc	r26, r26
     8b0:	ad 0b       	sbc	r26, r29
     8b2:	b0 0b       	sbc	r27, r16
     8b4:	b3 0b       	sbc	r27, r19
     8b6:	b6 0b       	sbc	r27, r22
     8b8:	b9 0b       	sbc	r27, r25
     8ba:	bc 0b       	sbc	r27, r28
     8bc:	bf 0b       	sbc	r27, r31
     8be:	c2 0b       	sbc	r28, r18
     8c0:	c5 0b       	sbc	r28, r21
     8c2:	c8 0b       	sbc	r28, r24
     8c4:	cb 0b       	sbc	r28, r27
     8c6:	ce 0b       	sbc	r28, r30
     8c8:	d1 0b       	sbc	r29, r17
     8ca:	d4 0b       	sbc	r29, r20
     8cc:	d7 0b       	sbc	r29, r23
     8ce:	da 0b       	sbc	r29, r26
     8d0:	dd 0b       	sbc	r29, r29
     8d2:	e0 0b       	sbc	r30, r16
     8d4:	e3 0b       	sbc	r30, r19
     8d6:	e6 0b       	sbc	r30, r22
     8d8:	e9 0b       	sbc	r30, r25
     8da:	ec 0b       	sbc	r30, r28
     8dc:	ef 0b       	sbc	r30, r31
     8de:	f2 0b       	sbc	r31, r18
     8e0:	f5 0b       	sbc	r31, r21
     8e2:	f8 0b       	sbc	r31, r24
     8e4:	fb 0b       	sbc	r31, r27
     8e6:	fe 0b       	sbc	r31, r30
     8e8:	01 0c       	add	r0, r1
     8ea:	04 0c       	add	r0, r4
     8ec:	07 0c       	add	r0, r7
     8ee:	0a 0c       	add	r0, r10
     8f0:	0d 0c       	add	r0, r13
     8f2:	10 0c       	add	r1, r0
     8f4:	13 0c       	add	r1, r3
     8f6:	16 0c       	add	r1, r6
     8f8:	19 0c       	add	r1, r9
     8fa:	1c 0c       	add	r1, r12
     8fc:	1f 0c       	add	r1, r15
     8fe:	22 0c       	add	r2, r2
     900:	25 0c       	add	r2, r5
     902:	28 0c       	add	r2, r8
     904:	2b 0c       	add	r2, r11
     906:	2e 0c       	add	r2, r14
     908:	31 0c       	add	r3, r1
     90a:	34 0c       	add	r3, r4
     90c:	37 0c       	add	r3, r7
     90e:	3a 0c       	add	r3, r10
     910:	3d 0c       	add	r3, r13
     912:	40 0c       	add	r4, r0
     914:	43 0c       	add	r4, r3
     916:	46 0c       	add	r4, r6
     918:	49 0c       	add	r4, r9
     91a:	4c 0c       	add	r4, r12
     91c:	4f 0c       	add	r4, r15
     91e:	ce 0d       	add	r28, r14
     920:	23 0e       	add	r2, r19
     922:	6d 0e       	add	r6, r29
     924:	83 0e       	add	r8, r19
     926:	c5 0e       	add	r12, r21
     928:	db 0e       	add	r13, r27
     92a:	14 0f       	add	r17, r20
     92c:	14 0f       	add	r17, r20
     92e:	c4 0d       	add	r28, r4

00000930 <__trampolines_end>:
     930:	63 64       	ori	r22, 0x43	; 67
     932:	69 6e       	ori	r22, 0xE9	; 233
     934:	6f 70       	andi	r22, 0x0F	; 15
     936:	73 75       	andi	r23, 0x53	; 83
     938:	78 58       	subi	r23, 0x88	; 136
     93a:	5b 00       	.word	0x005b	; ????

0000093c <__ctors_end>:
     93c:	11 24       	eor	r1, r1
     93e:	1f be       	out	0x3f, r1	; 63
     940:	cf ef       	ldi	r28, 0xFF	; 255
     942:	d1 e2       	ldi	r29, 0x21	; 33
     944:	de bf       	out	0x3e, r29	; 62
     946:	cd bf       	out	0x3d, r28	; 61
     948:	00 e0       	ldi	r16, 0x00	; 0
     94a:	0c bf       	out	0x3c, r16	; 60

0000094c <__do_copy_data>:
     94c:	14 e0       	ldi	r17, 0x04	; 4
     94e:	a0 e0       	ldi	r26, 0x00	; 0
     950:	b2 e0       	ldi	r27, 0x02	; 2
     952:	e6 ed       	ldi	r30, 0xD6	; 214
     954:	f3 e3       	ldi	r31, 0x33	; 51
     956:	00 e0       	ldi	r16, 0x00	; 0
     958:	0b bf       	out	0x3b, r16	; 59
     95a:	02 c0       	rjmp	.+4      	; 0x960 <__do_copy_data+0x14>
     95c:	07 90       	elpm	r0, Z+
     95e:	0d 92       	st	X+, r0
     960:	a2 37       	cpi	r26, 0x72	; 114
     962:	b1 07       	cpc	r27, r17
     964:	d9 f7       	brne	.-10     	; 0x95c <__do_copy_data+0x10>

00000966 <__do_clear_bss>:
     966:	24 e0       	ldi	r18, 0x04	; 4
     968:	a2 e7       	ldi	r26, 0x72	; 114
     96a:	b4 e0       	ldi	r27, 0x04	; 4
     96c:	01 c0       	rjmp	.+2      	; 0x970 <.do_clear_bss_start>

0000096e <.do_clear_bss_loop>:
     96e:	1d 92       	st	X+, r1

00000970 <.do_clear_bss_start>:
     970:	a2 3e       	cpi	r26, 0xE2	; 226
     972:	b2 07       	cpc	r27, r18
     974:	e1 f7       	brne	.-8      	; 0x96e <.do_clear_bss_loop>
     976:	0e 94 ed 10 	call	0x21da	; 0x21da <main>
     97a:	0c 94 e9 19 	jmp	0x33d2	; 0x33d2 <_exit>

0000097e <__bad_interrupt>:
     97e:	40 cb       	rjmp	.-2432   	; 0x0 <__vectors>

00000980 <__vector_25>:
char volatile rec_dylos_flag = 0;
char volatile rec_GPS[100];
char volatile rec_GPS_flag = 0;

ISR(USART0_RX_vect)
{
     980:	1f 92       	push	r1
     982:	0f 92       	push	r0
     984:	0f b6       	in	r0, 0x3f	; 63
     986:	0f 92       	push	r0
     988:	11 24       	eor	r1, r1
     98a:	0b b6       	in	r0, 0x3b	; 59
     98c:	0f 92       	push	r0
     98e:	8f 93       	push	r24
     990:	ef 93       	push	r30
     992:	ff 93       	push	r31
	rec_dylos[strlen(rec_dylos)] = UDR0;
     994:	e8 ed       	ldi	r30, 0xD8	; 216
     996:	f4 e0       	ldi	r31, 0x04	; 4
     998:	01 90       	ld	r0, Z+
     99a:	00 20       	and	r0, r0
     99c:	e9 f7       	brne	.-6      	; 0x998 <__vector_25+0x18>
     99e:	80 91 c6 00 	lds	r24, 0x00C6
     9a2:	31 97       	sbiw	r30, 0x01	; 1
     9a4:	80 83       	st	Z, r24
	rec_dylos_flag = 1;
     9a6:	81 e0       	ldi	r24, 0x01	; 1
     9a8:	80 93 73 04 	sts	0x0473, r24
}
     9ac:	ff 91       	pop	r31
     9ae:	ef 91       	pop	r30
     9b0:	8f 91       	pop	r24
     9b2:	0f 90       	pop	r0
     9b4:	0b be       	out	0x3b, r0	; 59
     9b6:	0f 90       	pop	r0
     9b8:	0f be       	out	0x3f, r0	; 63
     9ba:	0f 90       	pop	r0
     9bc:	1f 90       	pop	r1
     9be:	18 95       	reti

000009c0 <__vector_36>:

ISR(USART1_RX_vect)
{
     9c0:	1f 92       	push	r1
     9c2:	0f 92       	push	r0
     9c4:	0f b6       	in	r0, 0x3f	; 63
     9c6:	0f 92       	push	r0
     9c8:	11 24       	eor	r1, r1
     9ca:	0b b6       	in	r0, 0x3b	; 59
     9cc:	0f 92       	push	r0
     9ce:	8f 93       	push	r24
     9d0:	ef 93       	push	r30
     9d2:	ff 93       	push	r31
	rec_GPS[strlen(rec_GPS)] = UDR1;
     9d4:	e4 e7       	ldi	r30, 0x74	; 116
     9d6:	f4 e0       	ldi	r31, 0x04	; 4
     9d8:	01 90       	ld	r0, Z+
     9da:	00 20       	and	r0, r0
     9dc:	e9 f7       	brne	.-6      	; 0x9d8 <__vector_36+0x18>
     9de:	80 91 ce 00 	lds	r24, 0x00CE
     9e2:	31 97       	sbiw	r30, 0x01	; 1
     9e4:	80 83       	st	Z, r24
	rec_GPS_flag = 1;
     9e6:	81 e0       	ldi	r24, 0x01	; 1
     9e8:	80 93 72 04 	sts	0x0472, r24
}
     9ec:	ff 91       	pop	r31
     9ee:	ef 91       	pop	r30
     9f0:	8f 91       	pop	r24
     9f2:	0f 90       	pop	r0
     9f4:	0b be       	out	0x3b, r0	; 59
     9f6:	0f 90       	pop	r0
     9f8:	0f be       	out	0x3f, r0	; 63
     9fa:	0f 90       	pop	r0
     9fc:	1f 90       	pop	r1
     9fe:	18 95       	reti

00000a00 <read_temp>:
	}
	return 0;
}

void read_temp(char* buffer)
{
     a00:	ef 92       	push	r14
     a02:	ff 92       	push	r15
     a04:	0f 93       	push	r16
     a06:	1f 93       	push	r17
     a08:	cf 93       	push	r28
     a0a:	df 93       	push	r29
     a0c:	cd b7       	in	r28, 0x3d	; 61
     a0e:	de b7       	in	r29, 0x3e	; 62
     a10:	2a 97       	sbiw	r28, 0x0a	; 10
     a12:	0f b6       	in	r0, 0x3f	; 63
     a14:	f8 94       	cli
     a16:	de bf       	out	0x3e, r29	; 62
     a18:	0f be       	out	0x3f, r0	; 63
     a1a:	cd bf       	out	0x3d, r28	; 61
     a1c:	8c 01       	movw	r16, r24
	char temp[10];
	ADCSRA = 0x87;
     a1e:	ea e7       	ldi	r30, 0x7A	; 122
     a20:	f0 e0       	ldi	r31, 0x00	; 0
     a22:	87 e8       	ldi	r24, 0x87	; 135
     a24:	80 83       	st	Z, r24
	ADMUX = 0x04; //Use ADC4
     a26:	84 e0       	ldi	r24, 0x04	; 4
     a28:	80 93 7c 00 	sts	0x007C, r24
	ADCSRA |= (1<<ADSC);
     a2c:	80 81       	ld	r24, Z
     a2e:	80 64       	ori	r24, 0x40	; 64
     a30:	80 83       	st	Z, r24
	while((ADCSRA & (1<<ADIF))==0);
     a32:	90 81       	ld	r25, Z
     a34:	94 ff       	sbrs	r25, 4
     a36:	fd cf       	rjmp	.-6      	; 0xa32 <read_temp+0x32>
	double t = ADC;	
     a38:	60 91 78 00 	lds	r22, 0x0078
     a3c:	70 91 79 00 	lds	r23, 0x0079
     a40:	80 e0       	ldi	r24, 0x00	; 0
     a42:	90 e0       	ldi	r25, 0x00	; 0
     a44:	0e 94 61 12 	call	0x24c2	; 0x24c2 <__floatunsisf>
	t *= 225;
     a48:	20 e0       	ldi	r18, 0x00	; 0
     a4a:	30 e0       	ldi	r19, 0x00	; 0
     a4c:	41 e6       	ldi	r20, 0x61	; 97
     a4e:	53 e4       	ldi	r21, 0x43	; 67
     a50:	0e 94 ef 12 	call	0x25de	; 0x25de <__mulsf3>
	t /= 256;
     a54:	20 e0       	ldi	r18, 0x00	; 0
     a56:	30 e0       	ldi	r19, 0x00	; 0
     a58:	40 e8       	ldi	r20, 0x80	; 128
     a5a:	5b e3       	ldi	r21, 0x3B	; 59
     a5c:	0e 94 ef 12 	call	0x25de	; 0x25de <__mulsf3>
	t -= 58;
	strcat(buffer, "Temperature: ");
     a60:	d8 01       	movw	r26, r16
     a62:	0d 90       	ld	r0, X+
     a64:	00 20       	and	r0, r0
     a66:	e9 f7       	brne	.-6      	; 0xa62 <read_temp+0x62>
     a68:	11 97       	sbiw	r26, 0x01	; 1
     a6a:	2e e0       	ldi	r18, 0x0E	; 14
     a6c:	e0 e0       	ldi	r30, 0x00	; 0
     a6e:	f2 e0       	ldi	r31, 0x02	; 2
     a70:	01 90       	ld	r0, Z+
     a72:	0d 92       	st	X+, r0
     a74:	2a 95       	dec	r18
     a76:	e1 f7       	brne	.-8      	; 0xa70 <read_temp+0x70>
	ADCSRA |= (1<<ADSC);
	while((ADCSRA & (1<<ADIF))==0);
	double t = ADC;	
	t *= 225;
	t /= 256;
	t -= 58;
     a78:	20 e0       	ldi	r18, 0x00	; 0
     a7a:	30 e0       	ldi	r19, 0x00	; 0
     a7c:	48 e6       	ldi	r20, 0x68	; 104
     a7e:	52 e4       	ldi	r21, 0x42	; 66
     a80:	0e 94 cb 11 	call	0x2396	; 0x2396 <__subsf3>
	strcat(buffer, "Temperature: ");
	sprintf(temp, "%dF\n", (int)t);
     a84:	0e 94 30 12 	call	0x2460	; 0x2460 <__fixsfsi>
     a88:	7f 93       	push	r23
     a8a:	6f 93       	push	r22
     a8c:	8e e0       	ldi	r24, 0x0E	; 14
     a8e:	92 e0       	ldi	r25, 0x02	; 2
     a90:	9f 93       	push	r25
     a92:	8f 93       	push	r24
     a94:	ce 01       	movw	r24, r28
     a96:	01 96       	adiw	r24, 0x01	; 1
     a98:	7c 01       	movw	r14, r24
     a9a:	9f 93       	push	r25
     a9c:	8f 93       	push	r24
     a9e:	0e 94 cb 13 	call	0x2796	; 0x2796 <sprintf>
	strcat(buffer, temp);
     aa2:	b7 01       	movw	r22, r14
     aa4:	c8 01       	movw	r24, r16
     aa6:	0e 94 b1 13 	call	0x2762	; 0x2762 <strcat>
     aaa:	0f 90       	pop	r0
     aac:	0f 90       	pop	r0
     aae:	0f 90       	pop	r0
     ab0:	0f 90       	pop	r0
     ab2:	0f 90       	pop	r0
     ab4:	0f 90       	pop	r0
	return;
}
     ab6:	2a 96       	adiw	r28, 0x0a	; 10
     ab8:	0f b6       	in	r0, 0x3f	; 63
     aba:	f8 94       	cli
     abc:	de bf       	out	0x3e, r29	; 62
     abe:	0f be       	out	0x3f, r0	; 63
     ac0:	cd bf       	out	0x3d, r28	; 61
     ac2:	df 91       	pop	r29
     ac4:	cf 91       	pop	r28
     ac6:	1f 91       	pop	r17
     ac8:	0f 91       	pop	r16
     aca:	ff 90       	pop	r15
     acc:	ef 90       	pop	r14
     ace:	08 95       	ret

00000ad0 <read_MQ2>:

void read_MQ2(char* buffer) //C3H8 sensor
{
     ad0:	cf 92       	push	r12
     ad2:	df 92       	push	r13
     ad4:	ef 92       	push	r14
     ad6:	ff 92       	push	r15
     ad8:	0f 93       	push	r16
     ada:	1f 93       	push	r17
     adc:	cf 93       	push	r28
     ade:	df 93       	push	r29
     ae0:	cd b7       	in	r28, 0x3d	; 61
     ae2:	de b7       	in	r29, 0x3e	; 62
     ae4:	2a 97       	sbiw	r28, 0x0a	; 10
     ae6:	0f b6       	in	r0, 0x3f	; 63
     ae8:	f8 94       	cli
     aea:	de bf       	out	0x3e, r29	; 62
     aec:	0f be       	out	0x3f, r0	; 63
     aee:	cd bf       	out	0x3d, r28	; 61
     af0:	8c 01       	movw	r16, r24
	long rs = 0;
	int adc = 0;
	int RL = 9800;
	int RO = 6600;
	int ppm = 0;
	ADCSRA = 0x87;
     af2:	ea e7       	ldi	r30, 0x7A	; 122
     af4:	f0 e0       	ldi	r31, 0x00	; 0
     af6:	87 e8       	ldi	r24, 0x87	; 135
     af8:	80 83       	st	Z, r24
	ADMUX = 0x00; //Use ADC0
     afa:	10 92 7c 00 	sts	0x007C, r1
	ADCSRA |= (1<<ADSC);
     afe:	80 81       	ld	r24, Z
     b00:	80 64       	ori	r24, 0x40	; 64
     b02:	80 83       	st	Z, r24
	while((ADCSRA & (1<<ADIF))==0);
     b04:	90 81       	ld	r25, Z
     b06:	94 ff       	sbrs	r25, 4
     b08:	fd cf       	rjmp	.-6      	; 0xb04 <read_MQ2+0x34>
	adc = ADC;
     b0a:	c0 90 78 00 	lds	r12, 0x0078
     b0e:	d0 90 79 00 	lds	r13, 0x0079
	adc *= 5;
     b12:	c6 01       	movw	r24, r12
     b14:	88 0f       	add	r24, r24
     b16:	99 1f       	adc	r25, r25
     b18:	88 0f       	add	r24, r24
     b1a:	99 1f       	adc	r25, r25
     b1c:	c8 0e       	add	r12, r24
     b1e:	d9 1e       	adc	r13, r25
	rs = 5*1024;
	rs -= adc;
     b20:	0d 2c       	mov	r0, r13
     b22:	00 0c       	add	r0, r0
     b24:	ee 08       	sbc	r14, r14
     b26:	ff 08       	sbc	r15, r15
     b28:	80 e0       	ldi	r24, 0x00	; 0
     b2a:	94 e1       	ldi	r25, 0x14	; 20
     b2c:	a0 e0       	ldi	r26, 0x00	; 0
     b2e:	b0 e0       	ldi	r27, 0x00	; 0
     b30:	9c 01       	movw	r18, r24
     b32:	ad 01       	movw	r20, r26
     b34:	2c 19       	sub	r18, r12
     b36:	3d 09       	sbc	r19, r13
     b38:	4e 09       	sbc	r20, r14
     b3a:	5f 09       	sbc	r21, r15
	rs *= RL;
     b3c:	a8 e4       	ldi	r26, 0x48	; 72
     b3e:	b6 e2       	ldi	r27, 0x26	; 38
     b40:	0e 94 76 13 	call	0x26ec	; 0x26ec <__muluhisi3>
	rs /= adc;
     b44:	a7 01       	movw	r20, r14
     b46:	96 01       	movw	r18, r12
     b48:	0e 94 52 13 	call	0x26a4	; 0x26a4 <__divmodsi4>
	rs *= 100;
     b4c:	a4 e6       	ldi	r26, 0x64	; 100
     b4e:	b0 e0       	ldi	r27, 0x00	; 0
     b50:	0e 94 76 13 	call	0x26ec	; 0x26ec <__muluhisi3>
	rs /= RO;
     b54:	28 ec       	ldi	r18, 0xC8	; 200
     b56:	39 e1       	ldi	r19, 0x19	; 25
     b58:	40 e0       	ldi	r20, 0x00	; 0
     b5a:	50 e0       	ldi	r21, 0x00	; 0
     b5c:	0e 94 52 13 	call	0x26a4	; 0x26a4 <__divmodsi4>
  if(rs < 27)
     b60:	2b 31       	cpi	r18, 0x1B	; 27
     b62:	31 05       	cpc	r19, r1
     b64:	41 05       	cpc	r20, r1
     b66:	51 05       	cpc	r21, r1
     b68:	6c f4       	brge	.+26     	; 0xb84 <read_MQ2+0xb4>
  {
	strcat(buffer, "ERROR: MQ2 reading out of range\n");
     b6a:	d8 01       	movw	r26, r16
     b6c:	0d 90       	ld	r0, X+
     b6e:	00 20       	and	r0, r0
     b70:	e9 f7       	brne	.-6      	; 0xb6c <read_MQ2+0x9c>
     b72:	11 97       	sbiw	r26, 0x01	; 1
     b74:	81 e2       	ldi	r24, 0x21	; 33
     b76:	e3 e1       	ldi	r30, 0x13	; 19
     b78:	f2 e0       	ldi	r31, 0x02	; 2
     b7a:	01 90       	ld	r0, Z+
     b7c:	0d 92       	st	X+, r0
     b7e:	8a 95       	dec	r24
     b80:	e1 f7       	brne	.-8      	; 0xb7a <read_MQ2+0xaa>
	return;
     b82:	f6 c1       	rjmp	.+1004   	; 0xf70 <read_MQ2+0x4a0>
  }
  else
  {
	  switch(rs)
     b84:	f9 01       	movw	r30, r18
     b86:	7b 97       	sbiw	r30, 0x1b	; 27
     b88:	e7 39       	cpi	r30, 0x97	; 151
     b8a:	f1 05       	cpc	r31, r1
     b8c:	08 f0       	brcs	.+2      	; 0xb90 <read_MQ2+0xc0>
     b8e:	c8 c1       	rjmp	.+912    	; 0xf20 <read_MQ2+0x450>
     b90:	88 27       	eor	r24, r24
     b92:	ee 58       	subi	r30, 0x8E	; 142
     b94:	ff 4f       	sbci	r31, 0xFF	; 255
     b96:	8f 4f       	sbci	r24, 0xFF	; 255
     b98:	0c 94 6e 13 	jmp	0x26dc	; 0x26dc <__tablejump2__>
	  {
		  case	27	: ppm =	10478	;
		  break;
		  case	28	: ppm =	9706	;
     b9c:	9a ee       	ldi	r25, 0xEA	; 234
     b9e:	25 e2       	ldi	r18, 0x25	; 37
     ba0:	c4 c1       	rjmp	.+904    	; 0xf2a <read_MQ2+0x45a>
		  break;
		  case	29	: ppm =	9015	;
     ba2:	97 e3       	ldi	r25, 0x37	; 55
     ba4:	23 e2       	ldi	r18, 0x23	; 35
		  break;
     ba6:	c1 c1       	rjmp	.+898    	; 0xf2a <read_MQ2+0x45a>
		  case	30	: ppm =	8394	;
     ba8:	9a ec       	ldi	r25, 0xCA	; 202
     baa:	20 e2       	ldi	r18, 0x20	; 32
		  break;
     bac:	be c1       	rjmp	.+892    	; 0xf2a <read_MQ2+0x45a>
		  case	31	: ppm =	7834	;
     bae:	9a e9       	ldi	r25, 0x9A	; 154
     bb0:	2e e1       	ldi	r18, 0x1E	; 30
		  break;
     bb2:	bb c1       	rjmp	.+886    	; 0xf2a <read_MQ2+0x45a>
		  case	32	: ppm =	7327	;
     bb4:	9f e9       	ldi	r25, 0x9F	; 159
     bb6:	2c e1       	ldi	r18, 0x1C	; 28
		  break;
     bb8:	b8 c1       	rjmp	.+880    	; 0xf2a <read_MQ2+0x45a>
		  case	33	: ppm =	6868	;
     bba:	94 ed       	ldi	r25, 0xD4	; 212
     bbc:	2a e1       	ldi	r18, 0x1A	; 26
		  break;
     bbe:	b5 c1       	rjmp	.+874    	; 0xf2a <read_MQ2+0x45a>
		  case	34	: ppm =	6449	;
     bc0:	91 e3       	ldi	r25, 0x31	; 49
     bc2:	29 e1       	ldi	r18, 0x19	; 25
		  break;
     bc4:	b2 c1       	rjmp	.+868    	; 0xf2a <read_MQ2+0x45a>
		  case	35	: ppm =	6068	;
     bc6:	94 eb       	ldi	r25, 0xB4	; 180
     bc8:	27 e1       	ldi	r18, 0x17	; 23
		  break;
     bca:	af c1       	rjmp	.+862    	; 0xf2a <read_MQ2+0x45a>
		  case	36	: ppm =	5718	;
     bcc:	96 e5       	ldi	r25, 0x56	; 86
     bce:	26 e1       	ldi	r18, 0x16	; 22
		  break;
     bd0:	ac c1       	rjmp	.+856    	; 0xf2a <read_MQ2+0x45a>
		  case	37	: ppm =	5398	;
     bd2:	96 e1       	ldi	r25, 0x16	; 22
     bd4:	25 e1       	ldi	r18, 0x15	; 21
		  break;
     bd6:	a9 c1       	rjmp	.+850    	; 0xf2a <read_MQ2+0x45a>
		  case	38	: ppm =	5103	;
     bd8:	9f ee       	ldi	r25, 0xEF	; 239
     bda:	23 e1       	ldi	r18, 0x13	; 19
		  break;
     bdc:	a6 c1       	rjmp	.+844    	; 0xf2a <read_MQ2+0x45a>
		  case	39	: ppm =	4831	;
     bde:	9f ed       	ldi	r25, 0xDF	; 223
     be0:	22 e1       	ldi	r18, 0x12	; 18
		  break;
     be2:	a3 c1       	rjmp	.+838    	; 0xf2a <read_MQ2+0x45a>
		  case	40	: ppm =	4581	;
     be4:	95 ee       	ldi	r25, 0xE5	; 229
     be6:	21 e1       	ldi	r18, 0x11	; 17
		  break;
     be8:	a0 c1       	rjmp	.+832    	; 0xf2a <read_MQ2+0x45a>
		  case	41	: ppm =	4349	;
     bea:	9d ef       	ldi	r25, 0xFD	; 253
     bec:	20 e1       	ldi	r18, 0x10	; 16
		  break;
     bee:	9d c1       	rjmp	.+826    	; 0xf2a <read_MQ2+0x45a>
		  case	42	: ppm =	4133	;
     bf0:	95 e2       	ldi	r25, 0x25	; 37
     bf2:	20 e1       	ldi	r18, 0x10	; 16
		  break;
     bf4:	9a c1       	rjmp	.+820    	; 0xf2a <read_MQ2+0x45a>
		  case	43	: ppm =	3934	;
     bf6:	9e e5       	ldi	r25, 0x5E	; 94
     bf8:	2f e0       	ldi	r18, 0x0F	; 15
		  break;
     bfa:	97 c1       	rjmp	.+814    	; 0xf2a <read_MQ2+0x45a>
		  case	44	: ppm =	3748	;
     bfc:	94 ea       	ldi	r25, 0xA4	; 164
     bfe:	2e e0       	ldi	r18, 0x0E	; 14
		  break;
     c00:	94 c1       	rjmp	.+808    	; 0xf2a <read_MQ2+0x45a>
		  case	45	: ppm =	3575	;
     c02:	97 ef       	ldi	r25, 0xF7	; 247
     c04:	2d e0       	ldi	r18, 0x0D	; 13
		  break;
     c06:	91 c1       	rjmp	.+802    	; 0xf2a <read_MQ2+0x45a>
		  case	46	: ppm =	3413	;
     c08:	95 e5       	ldi	r25, 0x55	; 85
     c0a:	2d e0       	ldi	r18, 0x0D	; 13
		  break;
     c0c:	8e c1       	rjmp	.+796    	; 0xf2a <read_MQ2+0x45a>
		  case	47	: ppm =	3262	;
     c0e:	9e eb       	ldi	r25, 0xBE	; 190
     c10:	2c e0       	ldi	r18, 0x0C	; 12
		  break;
     c12:	8b c1       	rjmp	.+790    	; 0xf2a <read_MQ2+0x45a>
		  case	48	: ppm =	3121	;
     c14:	91 e3       	ldi	r25, 0x31	; 49
     c16:	2c e0       	ldi	r18, 0x0C	; 12
		  break;
     c18:	88 c1       	rjmp	.+784    	; 0xf2a <read_MQ2+0x45a>
		  case	49	: ppm =	2988	;
     c1a:	9c ea       	ldi	r25, 0xAC	; 172
     c1c:	2b e0       	ldi	r18, 0x0B	; 11
		  break;
     c1e:	85 c1       	rjmp	.+778    	; 0xf2a <read_MQ2+0x45a>
		  case	50	: ppm =	2864	;
     c20:	90 e3       	ldi	r25, 0x30	; 48
     c22:	2b e0       	ldi	r18, 0x0B	; 11
		  break;
     c24:	82 c1       	rjmp	.+772    	; 0xf2a <read_MQ2+0x45a>
		  case	51	: ppm =	2747	;
     c26:	9b eb       	ldi	r25, 0xBB	; 187
     c28:	2a e0       	ldi	r18, 0x0A	; 10
		  break;
     c2a:	7f c1       	rjmp	.+766    	; 0xf2a <read_MQ2+0x45a>
		  case	52	: ppm =	2637	;
     c2c:	9d e4       	ldi	r25, 0x4D	; 77
     c2e:	2a e0       	ldi	r18, 0x0A	; 10
		  break;
     c30:	7c c1       	rjmp	.+760    	; 0xf2a <read_MQ2+0x45a>
		  case	53	: ppm =	2533	;
     c32:	95 ee       	ldi	r25, 0xE5	; 229
     c34:	29 e0       	ldi	r18, 0x09	; 9
		  break;
     c36:	79 c1       	rjmp	.+754    	; 0xf2a <read_MQ2+0x45a>
		  case	54	: ppm =	2435	;
     c38:	93 e8       	ldi	r25, 0x83	; 131
     c3a:	29 e0       	ldi	r18, 0x09	; 9
		  break;
     c3c:	76 c1       	rjmp	.+748    	; 0xf2a <read_MQ2+0x45a>
		  case	55	: ppm =	2343	;
     c3e:	97 e2       	ldi	r25, 0x27	; 39
     c40:	29 e0       	ldi	r18, 0x09	; 9
		  break;
     c42:	73 c1       	rjmp	.+742    	; 0xf2a <read_MQ2+0x45a>
		  case	56	: ppm =	2256	;
     c44:	90 ed       	ldi	r25, 0xD0	; 208
     c46:	28 e0       	ldi	r18, 0x08	; 8
		  break;
     c48:	70 c1       	rjmp	.+736    	; 0xf2a <read_MQ2+0x45a>
		  case	57	: ppm =	2173	;
     c4a:	9d e7       	ldi	r25, 0x7D	; 125
     c4c:	28 e0       	ldi	r18, 0x08	; 8
		  break;
     c4e:	6d c1       	rjmp	.+730    	; 0xf2a <read_MQ2+0x45a>
		  case	58	: ppm =	2095	;
     c50:	9f e2       	ldi	r25, 0x2F	; 47
     c52:	28 e0       	ldi	r18, 0x08	; 8
		  break;
     c54:	6a c1       	rjmp	.+724    	; 0xf2a <read_MQ2+0x45a>
		  case	59	: ppm =	2021	;
     c56:	95 ee       	ldi	r25, 0xE5	; 229
     c58:	27 e0       	ldi	r18, 0x07	; 7
		  break;
     c5a:	67 c1       	rjmp	.+718    	; 0xf2a <read_MQ2+0x45a>
		  case	60	: ppm =	1951	;
     c5c:	9f e9       	ldi	r25, 0x9F	; 159
     c5e:	27 e0       	ldi	r18, 0x07	; 7
		  break;
     c60:	64 c1       	rjmp	.+712    	; 0xf2a <read_MQ2+0x45a>
		  case	61	: ppm =	1884	;
     c62:	9c e5       	ldi	r25, 0x5C	; 92
     c64:	27 e0       	ldi	r18, 0x07	; 7
		  break;
     c66:	61 c1       	rjmp	.+706    	; 0xf2a <read_MQ2+0x45a>
		  case	62	: ppm =	1821	;
     c68:	9d e1       	ldi	r25, 0x1D	; 29
     c6a:	27 e0       	ldi	r18, 0x07	; 7
		  break;
     c6c:	5e c1       	rjmp	.+700    	; 0xf2a <read_MQ2+0x45a>
		  case	63	: ppm =	1760	;
     c6e:	90 ee       	ldi	r25, 0xE0	; 224
     c70:	26 e0       	ldi	r18, 0x06	; 6
		  break;
     c72:	5b c1       	rjmp	.+694    	; 0xf2a <read_MQ2+0x45a>
		  case	64	: ppm =	1703	;
     c74:	97 ea       	ldi	r25, 0xA7	; 167
     c76:	26 e0       	ldi	r18, 0x06	; 6
		  break;
     c78:	58 c1       	rjmp	.+688    	; 0xf2a <read_MQ2+0x45a>
		  case	65	: ppm =	1648	;
     c7a:	90 e7       	ldi	r25, 0x70	; 112
     c7c:	26 e0       	ldi	r18, 0x06	; 6
		  break;
     c7e:	55 c1       	rjmp	.+682    	; 0xf2a <read_MQ2+0x45a>
		  case	66	: ppm =	1596	;
     c80:	9c e3       	ldi	r25, 0x3C	; 60
     c82:	26 e0       	ldi	r18, 0x06	; 6
		  break;
     c84:	52 c1       	rjmp	.+676    	; 0xf2a <read_MQ2+0x45a>
		  case	67	: ppm =	1546	;
     c86:	9a e0       	ldi	r25, 0x0A	; 10
     c88:	26 e0       	ldi	r18, 0x06	; 6
		  break;
     c8a:	4f c1       	rjmp	.+670    	; 0xf2a <read_MQ2+0x45a>
		  case	68	: ppm =	1499	;
     c8c:	9b ed       	ldi	r25, 0xDB	; 219
     c8e:	25 e0       	ldi	r18, 0x05	; 5
		  break;
     c90:	4c c1       	rjmp	.+664    	; 0xf2a <read_MQ2+0x45a>
		  case	69	: ppm =	1454	;
     c92:	9e ea       	ldi	r25, 0xAE	; 174
     c94:	25 e0       	ldi	r18, 0x05	; 5
		  break;
     c96:	49 c1       	rjmp	.+658    	; 0xf2a <read_MQ2+0x45a>
		  case	70	: ppm =	1410	;
     c98:	92 e8       	ldi	r25, 0x82	; 130
     c9a:	25 e0       	ldi	r18, 0x05	; 5
		  break;
     c9c:	46 c1       	rjmp	.+652    	; 0xf2a <read_MQ2+0x45a>
		  case	71	: ppm =	1369	;
     c9e:	99 e5       	ldi	r25, 0x59	; 89
     ca0:	25 e0       	ldi	r18, 0x05	; 5
		  break;
     ca2:	43 c1       	rjmp	.+646    	; 0xf2a <read_MQ2+0x45a>
		  case	72	: ppm =	1329	;
     ca4:	91 e3       	ldi	r25, 0x31	; 49
     ca6:	25 e0       	ldi	r18, 0x05	; 5
		  break;
     ca8:	40 c1       	rjmp	.+640    	; 0xf2a <read_MQ2+0x45a>
		  case	73	: ppm =	1291	;
     caa:	9b e0       	ldi	r25, 0x0B	; 11
     cac:	25 e0       	ldi	r18, 0x05	; 5
		  break;
     cae:	3d c1       	rjmp	.+634    	; 0xf2a <read_MQ2+0x45a>
		  case	74	: ppm =	1254	;
     cb0:	96 ee       	ldi	r25, 0xE6	; 230
     cb2:	24 e0       	ldi	r18, 0x04	; 4
		  break;
     cb4:	3a c1       	rjmp	.+628    	; 0xf2a <read_MQ2+0x45a>
		  case	75	: ppm =	1220	;
     cb6:	94 ec       	ldi	r25, 0xC4	; 196
     cb8:	24 e0       	ldi	r18, 0x04	; 4
		  break;
     cba:	37 c1       	rjmp	.+622    	; 0xf2a <read_MQ2+0x45a>
		  case	76	: ppm =	1186	;
     cbc:	92 ea       	ldi	r25, 0xA2	; 162
     cbe:	24 e0       	ldi	r18, 0x04	; 4
		  break;
     cc0:	34 c1       	rjmp	.+616    	; 0xf2a <read_MQ2+0x45a>
		  case	77	: ppm =	1154	;
     cc2:	92 e8       	ldi	r25, 0x82	; 130
     cc4:	24 e0       	ldi	r18, 0x04	; 4
		  break;
     cc6:	31 c1       	rjmp	.+610    	; 0xf2a <read_MQ2+0x45a>
		  case	78	: ppm =	1123	;
     cc8:	93 e6       	ldi	r25, 0x63	; 99
     cca:	24 e0       	ldi	r18, 0x04	; 4
		  break;
     ccc:	2e c1       	rjmp	.+604    	; 0xf2a <read_MQ2+0x45a>
		  case	79	: ppm =	1093	;
     cce:	95 e4       	ldi	r25, 0x45	; 69
     cd0:	24 e0       	ldi	r18, 0x04	; 4
		  break;
     cd2:	2b c1       	rjmp	.+598    	; 0xf2a <read_MQ2+0x45a>
		  case	80	: ppm =	1065	;
     cd4:	99 e2       	ldi	r25, 0x29	; 41
     cd6:	24 e0       	ldi	r18, 0x04	; 4
		  break;
     cd8:	28 c1       	rjmp	.+592    	; 0xf2a <read_MQ2+0x45a>
		  case	81	: ppm =	1037	;
     cda:	9d e0       	ldi	r25, 0x0D	; 13
     cdc:	24 e0       	ldi	r18, 0x04	; 4
		  break;
     cde:	25 c1       	rjmp	.+586    	; 0xf2a <read_MQ2+0x45a>
		  case	82	: ppm =	1011	;
     ce0:	93 ef       	ldi	r25, 0xF3	; 243
     ce2:	23 e0       	ldi	r18, 0x03	; 3
		  break;
     ce4:	22 c1       	rjmp	.+580    	; 0xf2a <read_MQ2+0x45a>
		  case	83	: ppm =	985	;
     ce6:	99 ed       	ldi	r25, 0xD9	; 217
     ce8:	23 e0       	ldi	r18, 0x03	; 3
		  break;
     cea:	1f c1       	rjmp	.+574    	; 0xf2a <read_MQ2+0x45a>
		  case	84	: ppm =	961	;
     cec:	91 ec       	ldi	r25, 0xC1	; 193
     cee:	23 e0       	ldi	r18, 0x03	; 3
		  break;
     cf0:	1c c1       	rjmp	.+568    	; 0xf2a <read_MQ2+0x45a>
		  case	85	: ppm =	937	;
     cf2:	99 ea       	ldi	r25, 0xA9	; 169
     cf4:	23 e0       	ldi	r18, 0x03	; 3
		  break;
     cf6:	19 c1       	rjmp	.+562    	; 0xf2a <read_MQ2+0x45a>
		  case	86	: ppm =	914	;
     cf8:	92 e9       	ldi	r25, 0x92	; 146
     cfa:	23 e0       	ldi	r18, 0x03	; 3
		  break;
     cfc:	16 c1       	rjmp	.+556    	; 0xf2a <read_MQ2+0x45a>
		  case	87	: ppm =	892	;
     cfe:	9c e7       	ldi	r25, 0x7C	; 124
     d00:	23 e0       	ldi	r18, 0x03	; 3
		  break;
     d02:	13 c1       	rjmp	.+550    	; 0xf2a <read_MQ2+0x45a>
		  case	88	: ppm =	871	;
     d04:	97 e6       	ldi	r25, 0x67	; 103
     d06:	23 e0       	ldi	r18, 0x03	; 3
		  break;
     d08:	10 c1       	rjmp	.+544    	; 0xf2a <read_MQ2+0x45a>
		  case	89	: ppm =	851	;
     d0a:	93 e5       	ldi	r25, 0x53	; 83
     d0c:	23 e0       	ldi	r18, 0x03	; 3
		  break;
     d0e:	0d c1       	rjmp	.+538    	; 0xf2a <read_MQ2+0x45a>
		  case	90	: ppm =	831	;
     d10:	9f e3       	ldi	r25, 0x3F	; 63
     d12:	23 e0       	ldi	r18, 0x03	; 3
		  break;
     d14:	0a c1       	rjmp	.+532    	; 0xf2a <read_MQ2+0x45a>
		  case	91	: ppm =	812	;
     d16:	9c e2       	ldi	r25, 0x2C	; 44
     d18:	23 e0       	ldi	r18, 0x03	; 3
		  break;
     d1a:	07 c1       	rjmp	.+526    	; 0xf2a <read_MQ2+0x45a>
		  case	92	: ppm =	793	;
     d1c:	99 e1       	ldi	r25, 0x19	; 25
     d1e:	23 e0       	ldi	r18, 0x03	; 3
		  break;
     d20:	04 c1       	rjmp	.+520    	; 0xf2a <read_MQ2+0x45a>
		  case	93	: ppm =	775	;
     d22:	97 e0       	ldi	r25, 0x07	; 7
     d24:	23 e0       	ldi	r18, 0x03	; 3
		  break;
     d26:	01 c1       	rjmp	.+514    	; 0xf2a <read_MQ2+0x45a>
		  case	94	: ppm =	758	;
     d28:	96 ef       	ldi	r25, 0xF6	; 246
     d2a:	22 e0       	ldi	r18, 0x02	; 2
		  break;
     d2c:	fe c0       	rjmp	.+508    	; 0xf2a <read_MQ2+0x45a>
		  case	95	: ppm =	741	;
     d2e:	95 ee       	ldi	r25, 0xE5	; 229
     d30:	22 e0       	ldi	r18, 0x02	; 2
		  break;
     d32:	fb c0       	rjmp	.+502    	; 0xf2a <read_MQ2+0x45a>
		  case	96	: ppm =	725	;
     d34:	95 ed       	ldi	r25, 0xD5	; 213
     d36:	22 e0       	ldi	r18, 0x02	; 2
		  break;
     d38:	f8 c0       	rjmp	.+496    	; 0xf2a <read_MQ2+0x45a>
		  case	97	: ppm =	710	;
     d3a:	96 ec       	ldi	r25, 0xC6	; 198
     d3c:	22 e0       	ldi	r18, 0x02	; 2
		  break;
     d3e:	f5 c0       	rjmp	.+490    	; 0xf2a <read_MQ2+0x45a>
		  case	98	: ppm =	694	;
     d40:	96 eb       	ldi	r25, 0xB6	; 182
     d42:	22 e0       	ldi	r18, 0x02	; 2
		  break;
     d44:	f2 c0       	rjmp	.+484    	; 0xf2a <read_MQ2+0x45a>
		  case	99	: ppm =	680	;
     d46:	98 ea       	ldi	r25, 0xA8	; 168
     d48:	22 e0       	ldi	r18, 0x02	; 2
		  break;
     d4a:	ef c0       	rjmp	.+478    	; 0xf2a <read_MQ2+0x45a>
		  case	100	: ppm =	666	;
     d4c:	9a e9       	ldi	r25, 0x9A	; 154
     d4e:	22 e0       	ldi	r18, 0x02	; 2
		  break;
     d50:	ec c0       	rjmp	.+472    	; 0xf2a <read_MQ2+0x45a>
		  case	101	: ppm =	652	;
     d52:	9c e8       	ldi	r25, 0x8C	; 140
     d54:	22 e0       	ldi	r18, 0x02	; 2
		  break;
     d56:	e9 c0       	rjmp	.+466    	; 0xf2a <read_MQ2+0x45a>
		  case	102	: ppm =	638	;
     d58:	9e e7       	ldi	r25, 0x7E	; 126
     d5a:	22 e0       	ldi	r18, 0x02	; 2
		  break;
     d5c:	e6 c0       	rjmp	.+460    	; 0xf2a <read_MQ2+0x45a>
		  case	103	: ppm =	625	;
     d5e:	91 e7       	ldi	r25, 0x71	; 113
     d60:	22 e0       	ldi	r18, 0x02	; 2
		  break;
     d62:	e3 c0       	rjmp	.+454    	; 0xf2a <read_MQ2+0x45a>
		  case	104	: ppm =	613	;
     d64:	95 e6       	ldi	r25, 0x65	; 101
     d66:	22 e0       	ldi	r18, 0x02	; 2
		  break;
     d68:	e0 c0       	rjmp	.+448    	; 0xf2a <read_MQ2+0x45a>
		  case	105	: ppm =	601	;
     d6a:	99 e5       	ldi	r25, 0x59	; 89
     d6c:	22 e0       	ldi	r18, 0x02	; 2
		  break;
     d6e:	dd c0       	rjmp	.+442    	; 0xf2a <read_MQ2+0x45a>
		  case	106	: ppm =	589	;
     d70:	9d e4       	ldi	r25, 0x4D	; 77
     d72:	22 e0       	ldi	r18, 0x02	; 2
		  break;
     d74:	da c0       	rjmp	.+436    	; 0xf2a <read_MQ2+0x45a>
		  case	107	: ppm =	577	;
     d76:	91 e4       	ldi	r25, 0x41	; 65
     d78:	22 e0       	ldi	r18, 0x02	; 2
		  break;
     d7a:	d7 c0       	rjmp	.+430    	; 0xf2a <read_MQ2+0x45a>
		  case	108	: ppm =	566	;
     d7c:	96 e3       	ldi	r25, 0x36	; 54
     d7e:	22 e0       	ldi	r18, 0x02	; 2
		  break;
     d80:	d4 c0       	rjmp	.+424    	; 0xf2a <read_MQ2+0x45a>
		  case	109	: ppm =	555	;
     d82:	9b e2       	ldi	r25, 0x2B	; 43
     d84:	22 e0       	ldi	r18, 0x02	; 2
		  break;
     d86:	d1 c0       	rjmp	.+418    	; 0xf2a <read_MQ2+0x45a>
		  case	110	: ppm =	545	;
     d88:	91 e2       	ldi	r25, 0x21	; 33
     d8a:	22 e0       	ldi	r18, 0x02	; 2
		  break;
     d8c:	ce c0       	rjmp	.+412    	; 0xf2a <read_MQ2+0x45a>
		  case	111	: ppm =	534	;
     d8e:	96 e1       	ldi	r25, 0x16	; 22
     d90:	22 e0       	ldi	r18, 0x02	; 2
		  break;
     d92:	cb c0       	rjmp	.+406    	; 0xf2a <read_MQ2+0x45a>
		  case	112	: ppm =	524	;
     d94:	9c e0       	ldi	r25, 0x0C	; 12
     d96:	22 e0       	ldi	r18, 0x02	; 2
		  break;
     d98:	c8 c0       	rjmp	.+400    	; 0xf2a <read_MQ2+0x45a>
		  case	113	: ppm =	515	;
     d9a:	93 e0       	ldi	r25, 0x03	; 3
     d9c:	22 e0       	ldi	r18, 0x02	; 2
		  break;
     d9e:	c5 c0       	rjmp	.+394    	; 0xf2a <read_MQ2+0x45a>
		  case	114	: ppm =	505	;
     da0:	99 ef       	ldi	r25, 0xF9	; 249
     da2:	21 e0       	ldi	r18, 0x01	; 1
		  break;
     da4:	c2 c0       	rjmp	.+388    	; 0xf2a <read_MQ2+0x45a>
		  case	115	: ppm =	496	;
     da6:	90 ef       	ldi	r25, 0xF0	; 240
     da8:	21 e0       	ldi	r18, 0x01	; 1
		  break;
     daa:	bf c0       	rjmp	.+382    	; 0xf2a <read_MQ2+0x45a>
		  case	116	: ppm =	487	;
     dac:	97 ee       	ldi	r25, 0xE7	; 231
     dae:	21 e0       	ldi	r18, 0x01	; 1
		  break;
     db0:	bc c0       	rjmp	.+376    	; 0xf2a <read_MQ2+0x45a>
		  case	117	: ppm =	478	;
     db2:	9e ed       	ldi	r25, 0xDE	; 222
     db4:	21 e0       	ldi	r18, 0x01	; 1
		  break;
     db6:	b9 c0       	rjmp	.+370    	; 0xf2a <read_MQ2+0x45a>
		  case	118	: ppm =	470	;
     db8:	96 ed       	ldi	r25, 0xD6	; 214
     dba:	21 e0       	ldi	r18, 0x01	; 1
		  break;
     dbc:	b6 c0       	rjmp	.+364    	; 0xf2a <read_MQ2+0x45a>
		  case	119	: ppm =	461	;
     dbe:	9d ec       	ldi	r25, 0xCD	; 205
     dc0:	21 e0       	ldi	r18, 0x01	; 1
		  break;
     dc2:	b3 c0       	rjmp	.+358    	; 0xf2a <read_MQ2+0x45a>
		  case	120	: ppm =	453	;
     dc4:	95 ec       	ldi	r25, 0xC5	; 197
     dc6:	21 e0       	ldi	r18, 0x01	; 1
		  break;
     dc8:	b0 c0       	rjmp	.+352    	; 0xf2a <read_MQ2+0x45a>
		  case	121	: ppm =	446	;
     dca:	9e eb       	ldi	r25, 0xBE	; 190
     dcc:	21 e0       	ldi	r18, 0x01	; 1
		  break;
     dce:	ad c0       	rjmp	.+346    	; 0xf2a <read_MQ2+0x45a>
		  case	122	: ppm =	438	;
     dd0:	96 eb       	ldi	r25, 0xB6	; 182
     dd2:	21 e0       	ldi	r18, 0x01	; 1
		  break;
     dd4:	aa c0       	rjmp	.+340    	; 0xf2a <read_MQ2+0x45a>
		  case	123	: ppm =	430	;
     dd6:	9e ea       	ldi	r25, 0xAE	; 174
     dd8:	21 e0       	ldi	r18, 0x01	; 1
		  break;
     dda:	a7 c0       	rjmp	.+334    	; 0xf2a <read_MQ2+0x45a>
		  case	124	: ppm =	423	;
     ddc:	97 ea       	ldi	r25, 0xA7	; 167
     dde:	21 e0       	ldi	r18, 0x01	; 1
		  break;
     de0:	a4 c0       	rjmp	.+328    	; 0xf2a <read_MQ2+0x45a>
		  case	125	: ppm =	416	;
     de2:	90 ea       	ldi	r25, 0xA0	; 160
     de4:	21 e0       	ldi	r18, 0x01	; 1
		  break;
     de6:	a1 c0       	rjmp	.+322    	; 0xf2a <read_MQ2+0x45a>
		  case	126	: ppm =	409	;
     de8:	99 e9       	ldi	r25, 0x99	; 153
     dea:	21 e0       	ldi	r18, 0x01	; 1
		  break;
     dec:	9e c0       	rjmp	.+316    	; 0xf2a <read_MQ2+0x45a>
		  case	127	: ppm =	402	;
     dee:	92 e9       	ldi	r25, 0x92	; 146
     df0:	21 e0       	ldi	r18, 0x01	; 1
		  break;
     df2:	9b c0       	rjmp	.+310    	; 0xf2a <read_MQ2+0x45a>
		  case	128	: ppm =	396	;
     df4:	9c e8       	ldi	r25, 0x8C	; 140
     df6:	21 e0       	ldi	r18, 0x01	; 1
		  break;
     df8:	98 c0       	rjmp	.+304    	; 0xf2a <read_MQ2+0x45a>
		  case	129	: ppm =	389	;
     dfa:	95 e8       	ldi	r25, 0x85	; 133
     dfc:	21 e0       	ldi	r18, 0x01	; 1
		  break;
     dfe:	95 c0       	rjmp	.+298    	; 0xf2a <read_MQ2+0x45a>
		  case	130	: ppm =	383	;
     e00:	9f e7       	ldi	r25, 0x7F	; 127
     e02:	21 e0       	ldi	r18, 0x01	; 1
		  break;
     e04:	92 c0       	rjmp	.+292    	; 0xf2a <read_MQ2+0x45a>
		  case	131	: ppm =	377	;
     e06:	99 e7       	ldi	r25, 0x79	; 121
     e08:	21 e0       	ldi	r18, 0x01	; 1
		  break;
     e0a:	8f c0       	rjmp	.+286    	; 0xf2a <read_MQ2+0x45a>
		  case	132	: ppm =	371	;
     e0c:	93 e7       	ldi	r25, 0x73	; 115
     e0e:	21 e0       	ldi	r18, 0x01	; 1
		  break;
     e10:	8c c0       	rjmp	.+280    	; 0xf2a <read_MQ2+0x45a>
		  case	133	: ppm =	365	;
     e12:	9d e6       	ldi	r25, 0x6D	; 109
     e14:	21 e0       	ldi	r18, 0x01	; 1
		  break;
     e16:	89 c0       	rjmp	.+274    	; 0xf2a <read_MQ2+0x45a>
		  case	134	: ppm =	359	;
     e18:	97 e6       	ldi	r25, 0x67	; 103
     e1a:	21 e0       	ldi	r18, 0x01	; 1
		  break;
     e1c:	86 c0       	rjmp	.+268    	; 0xf2a <read_MQ2+0x45a>
		  case	135	: ppm =	354	;
     e1e:	92 e6       	ldi	r25, 0x62	; 98
     e20:	21 e0       	ldi	r18, 0x01	; 1
		  break;
     e22:	83 c0       	rjmp	.+262    	; 0xf2a <read_MQ2+0x45a>
		  case	136	: ppm =	348	;
     e24:	9c e5       	ldi	r25, 0x5C	; 92
     e26:	21 e0       	ldi	r18, 0x01	; 1
		  break;
     e28:	80 c0       	rjmp	.+256    	; 0xf2a <read_MQ2+0x45a>
		  case	137	: ppm =	343	;
     e2a:	97 e5       	ldi	r25, 0x57	; 87
     e2c:	21 e0       	ldi	r18, 0x01	; 1
		  break;
     e2e:	7d c0       	rjmp	.+250    	; 0xf2a <read_MQ2+0x45a>
		  case	138	: ppm =	338	;
     e30:	92 e5       	ldi	r25, 0x52	; 82
     e32:	21 e0       	ldi	r18, 0x01	; 1
		  break;
     e34:	7a c0       	rjmp	.+244    	; 0xf2a <read_MQ2+0x45a>
		  case	139	: ppm =	333	;
     e36:	9d e4       	ldi	r25, 0x4D	; 77
     e38:	21 e0       	ldi	r18, 0x01	; 1
		  break;
     e3a:	77 c0       	rjmp	.+238    	; 0xf2a <read_MQ2+0x45a>
		  case	140	: ppm =	328	;
     e3c:	98 e4       	ldi	r25, 0x48	; 72
     e3e:	21 e0       	ldi	r18, 0x01	; 1
		  break;
     e40:	74 c0       	rjmp	.+232    	; 0xf2a <read_MQ2+0x45a>
		  case	141	: ppm =	323	;
     e42:	93 e4       	ldi	r25, 0x43	; 67
     e44:	21 e0       	ldi	r18, 0x01	; 1
		  break;
     e46:	71 c0       	rjmp	.+226    	; 0xf2a <read_MQ2+0x45a>
		  case	142	: ppm =	318	;
     e48:	9e e3       	ldi	r25, 0x3E	; 62
     e4a:	21 e0       	ldi	r18, 0x01	; 1
		  break;
     e4c:	6e c0       	rjmp	.+220    	; 0xf2a <read_MQ2+0x45a>
		  case	143	: ppm =	313	;
     e4e:	99 e3       	ldi	r25, 0x39	; 57
     e50:	21 e0       	ldi	r18, 0x01	; 1
		  break;
     e52:	6b c0       	rjmp	.+214    	; 0xf2a <read_MQ2+0x45a>
		  case	144	: ppm =	309	;
     e54:	95 e3       	ldi	r25, 0x35	; 53
     e56:	21 e0       	ldi	r18, 0x01	; 1
		  break;
     e58:	68 c0       	rjmp	.+208    	; 0xf2a <read_MQ2+0x45a>
		  case	145	: ppm =	304	;
     e5a:	90 e3       	ldi	r25, 0x30	; 48
     e5c:	21 e0       	ldi	r18, 0x01	; 1
		  break;
     e5e:	65 c0       	rjmp	.+202    	; 0xf2a <read_MQ2+0x45a>
		  case	146	: ppm =	300	;
     e60:	9c e2       	ldi	r25, 0x2C	; 44
     e62:	21 e0       	ldi	r18, 0x01	; 1
		  break;
     e64:	62 c0       	rjmp	.+196    	; 0xf2a <read_MQ2+0x45a>
		  case	147	: ppm =	296	;
     e66:	98 e2       	ldi	r25, 0x28	; 40
     e68:	21 e0       	ldi	r18, 0x01	; 1
		  break;
     e6a:	5f c0       	rjmp	.+190    	; 0xf2a <read_MQ2+0x45a>
		  case	148	: ppm =	292	;
     e6c:	94 e2       	ldi	r25, 0x24	; 36
     e6e:	21 e0       	ldi	r18, 0x01	; 1
		  break;
     e70:	5c c0       	rjmp	.+184    	; 0xf2a <read_MQ2+0x45a>
		  case	149	: ppm =	287	;
     e72:	9f e1       	ldi	r25, 0x1F	; 31
     e74:	21 e0       	ldi	r18, 0x01	; 1
		  break;
     e76:	59 c0       	rjmp	.+178    	; 0xf2a <read_MQ2+0x45a>
		  case	150	: ppm =	283	;
     e78:	9b e1       	ldi	r25, 0x1B	; 27
     e7a:	21 e0       	ldi	r18, 0x01	; 1
		  break;
     e7c:	56 c0       	rjmp	.+172    	; 0xf2a <read_MQ2+0x45a>
		  case	151	: ppm =	279	;
     e7e:	97 e1       	ldi	r25, 0x17	; 23
     e80:	21 e0       	ldi	r18, 0x01	; 1
		  break;
     e82:	53 c0       	rjmp	.+166    	; 0xf2a <read_MQ2+0x45a>
		  case	152	: ppm =	276	;
     e84:	94 e1       	ldi	r25, 0x14	; 20
     e86:	21 e0       	ldi	r18, 0x01	; 1
		  break;
     e88:	50 c0       	rjmp	.+160    	; 0xf2a <read_MQ2+0x45a>
		  case	153	: ppm =	272	;
     e8a:	90 e1       	ldi	r25, 0x10	; 16
     e8c:	21 e0       	ldi	r18, 0x01	; 1
		  break;
     e8e:	4d c0       	rjmp	.+154    	; 0xf2a <read_MQ2+0x45a>
		  case	154	: ppm =	268	;
     e90:	9c e0       	ldi	r25, 0x0C	; 12
     e92:	21 e0       	ldi	r18, 0x01	; 1
		  break;
     e94:	4a c0       	rjmp	.+148    	; 0xf2a <read_MQ2+0x45a>
		  case	155	: ppm =	265	;
     e96:	99 e0       	ldi	r25, 0x09	; 9
     e98:	21 e0       	ldi	r18, 0x01	; 1
		  break;
     e9a:	47 c0       	rjmp	.+142    	; 0xf2a <read_MQ2+0x45a>
		  case	156	: ppm =	261	;
     e9c:	95 e0       	ldi	r25, 0x05	; 5
     e9e:	21 e0       	ldi	r18, 0x01	; 1
		  break;
     ea0:	44 c0       	rjmp	.+136    	; 0xf2a <read_MQ2+0x45a>
		  case	157	: ppm =	257	;
     ea2:	91 e0       	ldi	r25, 0x01	; 1
     ea4:	21 e0       	ldi	r18, 0x01	; 1
		  break;
     ea6:	41 c0       	rjmp	.+130    	; 0xf2a <read_MQ2+0x45a>
		  case	158	: ppm =	254	;
     ea8:	9e ef       	ldi	r25, 0xFE	; 254
     eaa:	20 e0       	ldi	r18, 0x00	; 0
		  break;
     eac:	3e c0       	rjmp	.+124    	; 0xf2a <read_MQ2+0x45a>
		  case	159	: ppm =	251	;
     eae:	9b ef       	ldi	r25, 0xFB	; 251
     eb0:	20 e0       	ldi	r18, 0x00	; 0
		  break;
     eb2:	3b c0       	rjmp	.+118    	; 0xf2a <read_MQ2+0x45a>
		  case	160	: ppm =	247	;
     eb4:	97 ef       	ldi	r25, 0xF7	; 247
     eb6:	20 e0       	ldi	r18, 0x00	; 0
		  break;
     eb8:	38 c0       	rjmp	.+112    	; 0xf2a <read_MQ2+0x45a>
		  case	161	: ppm =	244	;
     eba:	94 ef       	ldi	r25, 0xF4	; 244
     ebc:	20 e0       	ldi	r18, 0x00	; 0
		  break;
     ebe:	35 c0       	rjmp	.+106    	; 0xf2a <read_MQ2+0x45a>
		  case	162	: ppm =	241	;
     ec0:	91 ef       	ldi	r25, 0xF1	; 241
     ec2:	20 e0       	ldi	r18, 0x00	; 0
		  break;
     ec4:	32 c0       	rjmp	.+100    	; 0xf2a <read_MQ2+0x45a>
		  case	163	: ppm =	238	;
     ec6:	9e ee       	ldi	r25, 0xEE	; 238
     ec8:	20 e0       	ldi	r18, 0x00	; 0
		  break;
     eca:	2f c0       	rjmp	.+94     	; 0xf2a <read_MQ2+0x45a>
		  case	164	: ppm =	235	;
     ecc:	9b ee       	ldi	r25, 0xEB	; 235
     ece:	20 e0       	ldi	r18, 0x00	; 0
		  break;
     ed0:	2c c0       	rjmp	.+88     	; 0xf2a <read_MQ2+0x45a>
		  case	165	: ppm =	232	;
     ed2:	98 ee       	ldi	r25, 0xE8	; 232
     ed4:	20 e0       	ldi	r18, 0x00	; 0
		  break;
     ed6:	29 c0       	rjmp	.+82     	; 0xf2a <read_MQ2+0x45a>
		  case	166	: ppm =	229	;
     ed8:	95 ee       	ldi	r25, 0xE5	; 229
     eda:	20 e0       	ldi	r18, 0x00	; 0
		  break;
     edc:	26 c0       	rjmp	.+76     	; 0xf2a <read_MQ2+0x45a>
		  case	167	: ppm =	226	;
     ede:	92 ee       	ldi	r25, 0xE2	; 226
     ee0:	20 e0       	ldi	r18, 0x00	; 0
		  break;
     ee2:	23 c0       	rjmp	.+70     	; 0xf2a <read_MQ2+0x45a>
		  case	168	: ppm =	223	;
     ee4:	9f ed       	ldi	r25, 0xDF	; 223
     ee6:	20 e0       	ldi	r18, 0x00	; 0
		  break;
     ee8:	20 c0       	rjmp	.+64     	; 0xf2a <read_MQ2+0x45a>
		  case	169	: ppm =	220	;
     eea:	9c ed       	ldi	r25, 0xDC	; 220
     eec:	20 e0       	ldi	r18, 0x00	; 0
		  break;
     eee:	1d c0       	rjmp	.+58     	; 0xf2a <read_MQ2+0x45a>
		  case	170	: ppm =	218	;
     ef0:	9a ed       	ldi	r25, 0xDA	; 218
     ef2:	20 e0       	ldi	r18, 0x00	; 0
		  break;
     ef4:	1a c0       	rjmp	.+52     	; 0xf2a <read_MQ2+0x45a>
		  case	171	: ppm =	215	;
     ef6:	97 ed       	ldi	r25, 0xD7	; 215
     ef8:	20 e0       	ldi	r18, 0x00	; 0
		  break;
     efa:	17 c0       	rjmp	.+46     	; 0xf2a <read_MQ2+0x45a>
		  case	172	: ppm =	212	;
     efc:	94 ed       	ldi	r25, 0xD4	; 212
     efe:	20 e0       	ldi	r18, 0x00	; 0
		  break;
     f00:	14 c0       	rjmp	.+40     	; 0xf2a <read_MQ2+0x45a>
		  case	173	: ppm =	210	;
     f02:	92 ed       	ldi	r25, 0xD2	; 210
     f04:	20 e0       	ldi	r18, 0x00	; 0
		  break;
     f06:	11 c0       	rjmp	.+34     	; 0xf2a <read_MQ2+0x45a>
		  case	174	: ppm =	207	;
     f08:	9f ec       	ldi	r25, 0xCF	; 207
     f0a:	20 e0       	ldi	r18, 0x00	; 0
		  break;
     f0c:	0e c0       	rjmp	.+28     	; 0xf2a <read_MQ2+0x45a>
		  case	175	: ppm =	205	;
     f0e:	9d ec       	ldi	r25, 0xCD	; 205
     f10:	20 e0       	ldi	r18, 0x00	; 0
		  break;
     f12:	0b c0       	rjmp	.+22     	; 0xf2a <read_MQ2+0x45a>
		  case	176	: ppm =	202	;
     f14:	9a ec       	ldi	r25, 0xCA	; 202
     f16:	20 e0       	ldi	r18, 0x00	; 0
		  break;
     f18:	08 c0       	rjmp	.+16     	; 0xf2a <read_MQ2+0x45a>
		  case	177	: ppm =	200	;
     f1a:	98 ec       	ldi	r25, 0xC8	; 200
     f1c:	20 e0       	ldi	r18, 0x00	; 0
		  break;
     f1e:	05 c0       	rjmp	.+10     	; 0xf2a <read_MQ2+0x45a>
		  default		: ppm = 0	;
     f20:	90 e0       	ldi	r25, 0x00	; 0
     f22:	20 e0       	ldi	r18, 0x00	; 0
     f24:	02 c0       	rjmp	.+4      	; 0xf2a <read_MQ2+0x45a>
  }
  else
  {
	  switch(rs)
	  {
		  case	27	: ppm =	10478	;
     f26:	9e ee       	ldi	r25, 0xEE	; 238
     f28:	28 e2       	ldi	r18, 0x28	; 40
		  case	177	: ppm =	200	;
		  break;
		  default		: ppm = 0	;
		}
    }
	strcat(buffer, "C3H8: ");
     f2a:	d8 01       	movw	r26, r16
     f2c:	0d 90       	ld	r0, X+
     f2e:	00 20       	and	r0, r0
     f30:	e9 f7       	brne	.-6      	; 0xf2c <read_MQ2+0x45c>
     f32:	11 97       	sbiw	r26, 0x01	; 1
     f34:	87 e0       	ldi	r24, 0x07	; 7
     f36:	e4 e3       	ldi	r30, 0x34	; 52
     f38:	f2 e0       	ldi	r31, 0x02	; 2
     f3a:	01 90       	ld	r0, Z+
     f3c:	0d 92       	st	X+, r0
     f3e:	8a 95       	dec	r24
     f40:	e1 f7       	brne	.-8      	; 0xf3a <read_MQ2+0x46a>
	sprintf(temp, "%d ppm\n", (int)ppm);
     f42:	2f 93       	push	r18
     f44:	9f 93       	push	r25
     f46:	8b e3       	ldi	r24, 0x3B	; 59
     f48:	92 e0       	ldi	r25, 0x02	; 2
     f4a:	9f 93       	push	r25
     f4c:	8f 93       	push	r24
     f4e:	ce 01       	movw	r24, r28
     f50:	01 96       	adiw	r24, 0x01	; 1
     f52:	7c 01       	movw	r14, r24
     f54:	9f 93       	push	r25
     f56:	8f 93       	push	r24
     f58:	0e 94 cb 13 	call	0x2796	; 0x2796 <sprintf>
	strcat(buffer, temp);
     f5c:	b7 01       	movw	r22, r14
     f5e:	c8 01       	movw	r24, r16
     f60:	0e 94 b1 13 	call	0x2762	; 0x2762 <strcat>
	return;
     f64:	0f 90       	pop	r0
     f66:	0f 90       	pop	r0
     f68:	0f 90       	pop	r0
     f6a:	0f 90       	pop	r0
     f6c:	0f 90       	pop	r0
     f6e:	0f 90       	pop	r0
}
     f70:	2a 96       	adiw	r28, 0x0a	; 10
     f72:	0f b6       	in	r0, 0x3f	; 63
     f74:	f8 94       	cli
     f76:	de bf       	out	0x3e, r29	; 62
     f78:	0f be       	out	0x3f, r0	; 63
     f7a:	cd bf       	out	0x3d, r28	; 61
     f7c:	df 91       	pop	r29
     f7e:	cf 91       	pop	r28
     f80:	1f 91       	pop	r17
     f82:	0f 91       	pop	r16
     f84:	ff 90       	pop	r15
     f86:	ef 90       	pop	r14
     f88:	df 90       	pop	r13
     f8a:	cf 90       	pop	r12
     f8c:	08 95       	ret

00000f8e <read_MQ5>:

void read_MQ5(char* buffer) // CH4 sensor
{
     f8e:	cf 92       	push	r12
     f90:	df 92       	push	r13
     f92:	ef 92       	push	r14
     f94:	ff 92       	push	r15
     f96:	0f 93       	push	r16
     f98:	1f 93       	push	r17
     f9a:	cf 93       	push	r28
     f9c:	df 93       	push	r29
     f9e:	cd b7       	in	r28, 0x3d	; 61
     fa0:	de b7       	in	r29, 0x3e	; 62
     fa2:	2a 97       	sbiw	r28, 0x0a	; 10
     fa4:	0f b6       	in	r0, 0x3f	; 63
     fa6:	f8 94       	cli
     fa8:	de bf       	out	0x3e, r29	; 62
     faa:	0f be       	out	0x3f, r0	; 63
     fac:	cd bf       	out	0x3d, r28	; 61
     fae:	8c 01       	movw	r16, r24
	long rs = 0;
	int adc = 0;
	int RL = 19900;
	int RO = 15750;
	int ppm = 0;
	ADCSRA = 0x87;
     fb0:	ea e7       	ldi	r30, 0x7A	; 122
     fb2:	f0 e0       	ldi	r31, 0x00	; 0
     fb4:	87 e8       	ldi	r24, 0x87	; 135
     fb6:	80 83       	st	Z, r24
	ADMUX = 0x01; //Use ADC1
     fb8:	81 e0       	ldi	r24, 0x01	; 1
     fba:	80 93 7c 00 	sts	0x007C, r24
	ADCSRA |= (1<<ADSC);
     fbe:	80 81       	ld	r24, Z
     fc0:	80 64       	ori	r24, 0x40	; 64
     fc2:	80 83       	st	Z, r24
	while((ADCSRA & (1<<ADIF))==0);
     fc4:	90 81       	ld	r25, Z
     fc6:	94 ff       	sbrs	r25, 4
     fc8:	fd cf       	rjmp	.-6      	; 0xfc4 <read_MQ5+0x36>
	adc = ADC; // solve for Vout
     fca:	c0 90 78 00 	lds	r12, 0x0078
     fce:	d0 90 79 00 	lds	r13, 0x0079
	adc *= 5;
     fd2:	c6 01       	movw	r24, r12
     fd4:	88 0f       	add	r24, r24
     fd6:	99 1f       	adc	r25, r25
     fd8:	88 0f       	add	r24, r24
     fda:	99 1f       	adc	r25, r25
     fdc:	c8 0e       	add	r12, r24
     fde:	d9 1e       	adc	r13, r25
	rs = 5*1024;
	rs -= adc;
     fe0:	0d 2c       	mov	r0, r13
     fe2:	00 0c       	add	r0, r0
     fe4:	ee 08       	sbc	r14, r14
     fe6:	ff 08       	sbc	r15, r15
     fe8:	80 e0       	ldi	r24, 0x00	; 0
     fea:	94 e1       	ldi	r25, 0x14	; 20
     fec:	a0 e0       	ldi	r26, 0x00	; 0
     fee:	b0 e0       	ldi	r27, 0x00	; 0
     ff0:	9c 01       	movw	r18, r24
     ff2:	ad 01       	movw	r20, r26
     ff4:	2c 19       	sub	r18, r12
     ff6:	3d 09       	sbc	r19, r13
     ff8:	4e 09       	sbc	r20, r14
     ffa:	5f 09       	sbc	r21, r15
	rs *= RL;
     ffc:	ac eb       	ldi	r26, 0xBC	; 188
     ffe:	bd e4       	ldi	r27, 0x4D	; 77
    1000:	0e 94 76 13 	call	0x26ec	; 0x26ec <__muluhisi3>
	rs /= adc;
    1004:	a7 01       	movw	r20, r14
    1006:	96 01       	movw	r18, r12
    1008:	0e 94 52 13 	call	0x26a4	; 0x26a4 <__divmodsi4>
	rs *= 1000;
    100c:	a8 ee       	ldi	r26, 0xE8	; 232
    100e:	b3 e0       	ldi	r27, 0x03	; 3
    1010:	0e 94 76 13 	call	0x26ec	; 0x26ec <__muluhisi3>
	rs /= RO;
    1014:	26 e8       	ldi	r18, 0x86	; 134
    1016:	3d e3       	ldi	r19, 0x3D	; 61
    1018:	40 e0       	ldi	r20, 0x00	; 0
    101a:	50 e0       	ldi	r21, 0x00	; 0
    101c:	0e 94 52 13 	call	0x26a4	; 0x26a4 <__divmodsi4>
	if(rs < 210)
    1020:	22 3d       	cpi	r18, 0xD2	; 210
    1022:	31 05       	cpc	r19, r1
    1024:	41 05       	cpc	r20, r1
    1026:	51 05       	cpc	r21, r1
    1028:	6c f4       	brge	.+26     	; 0x1044 <read_MQ5+0xb6>
	{
		strcat(buffer, "ERROR: MQ5 reading out of range\n");
    102a:	d8 01       	movw	r26, r16
    102c:	0d 90       	ld	r0, X+
    102e:	00 20       	and	r0, r0
    1030:	e9 f7       	brne	.-6      	; 0x102c <read_MQ5+0x9e>
    1032:	11 97       	sbiw	r26, 0x01	; 1
    1034:	81 e2       	ldi	r24, 0x21	; 33
    1036:	e3 e4       	ldi	r30, 0x43	; 67
    1038:	f2 e0       	ldi	r31, 0x02	; 2
    103a:	01 90       	ld	r0, Z+
    103c:	0d 92       	st	X+, r0
    103e:	8a 95       	dec	r24
    1040:	e1 f7       	brne	.-8      	; 0x103a <read_MQ5+0xac>
		return;
    1042:	f8 c1       	rjmp	.+1008   	; 0x1434 <read_MQ5+0x4a6>
	}
	else
	{
		switch(rs)
    1044:	f9 01       	movw	r30, r18
    1046:	e2 5d       	subi	r30, 0xD2	; 210
    1048:	f1 09       	sbc	r31, r1
    104a:	ef 3e       	cpi	r30, 0xEF	; 239
    104c:	82 e0       	ldi	r24, 0x02	; 2
    104e:	f8 07       	cpc	r31, r24
    1050:	08 f0       	brcs	.+2      	; 0x1054 <read_MQ5+0xc6>
    1052:	c8 c1       	rjmp	.+912    	; 0x13e4 <read_MQ5+0x456>
    1054:	88 27       	eor	r24, r24
    1056:	e7 5f       	subi	r30, 0xF7	; 247
    1058:	fe 4f       	sbci	r31, 0xFE	; 254
    105a:	8f 4f       	sbci	r24, 0xFF	; 255
    105c:	0c 94 6e 13 	jmp	0x26dc	; 0x26dc <__tablejump2__>
		{
		case	210	: ppm =	9867	;
		break;
		case	215	: ppm =	9291	;
    1060:	9b e4       	ldi	r25, 0x4B	; 75
    1062:	24 e2       	ldi	r18, 0x24	; 36
    1064:	c4 c1       	rjmp	.+904    	; 0x13ee <read_MQ5+0x460>
		break;
		case	220	: ppm =	8760	;
    1066:	98 e3       	ldi	r25, 0x38	; 56
    1068:	22 e2       	ldi	r18, 0x22	; 34
		break;
    106a:	c1 c1       	rjmp	.+898    	; 0x13ee <read_MQ5+0x460>
		case	225	: ppm =	8271	;
    106c:	9f e4       	ldi	r25, 0x4F	; 79
    106e:	20 e2       	ldi	r18, 0x20	; 32
		break;
    1070:	be c1       	rjmp	.+892    	; 0x13ee <read_MQ5+0x460>
		case	230	: ppm =	7819	;
    1072:	9b e8       	ldi	r25, 0x8B	; 139
    1074:	2e e1       	ldi	r18, 0x1E	; 30
		break;
    1076:	bb c1       	rjmp	.+886    	; 0x13ee <read_MQ5+0x460>
		case	235	: ppm =	7400	;
    1078:	98 ee       	ldi	r25, 0xE8	; 232
    107a:	2c e1       	ldi	r18, 0x1C	; 28
		break;
    107c:	b8 c1       	rjmp	.+880    	; 0x13ee <read_MQ5+0x460>
		case	240	: ppm =	7012	;
    107e:	94 e6       	ldi	r25, 0x64	; 100
    1080:	2b e1       	ldi	r18, 0x1B	; 27
		break;
    1082:	b5 c1       	rjmp	.+874    	; 0x13ee <read_MQ5+0x460>
		case	245	: ppm =	6652	;
    1084:	9c ef       	ldi	r25, 0xFC	; 252
    1086:	29 e1       	ldi	r18, 0x19	; 25
		break;
    1088:	b2 c1       	rjmp	.+868    	; 0x13ee <read_MQ5+0x460>
		case	250	: ppm =	6317	;
    108a:	9d ea       	ldi	r25, 0xAD	; 173
    108c:	28 e1       	ldi	r18, 0x18	; 24
		break;
    108e:	af c1       	rjmp	.+862    	; 0x13ee <read_MQ5+0x460>
		case	255	: ppm =	6005	;
    1090:	95 e7       	ldi	r25, 0x75	; 117
    1092:	27 e1       	ldi	r18, 0x17	; 23
		break;
    1094:	ac c1       	rjmp	.+856    	; 0x13ee <read_MQ5+0x460>
		case	260	: ppm =	5714	;
    1096:	92 e5       	ldi	r25, 0x52	; 82
    1098:	26 e1       	ldi	r18, 0x16	; 22
		break;
    109a:	a9 c1       	rjmp	.+850    	; 0x13ee <read_MQ5+0x460>
		case	265	: ppm =	5443	;
    109c:	93 e4       	ldi	r25, 0x43	; 67
    109e:	25 e1       	ldi	r18, 0x15	; 21
		break;
    10a0:	a6 c1       	rjmp	.+844    	; 0x13ee <read_MQ5+0x460>
		case	270	: ppm =	5189	;
    10a2:	95 e4       	ldi	r25, 0x45	; 69
    10a4:	24 e1       	ldi	r18, 0x14	; 20
		break;
    10a6:	a3 c1       	rjmp	.+838    	; 0x13ee <read_MQ5+0x460>
		case	275	: ppm =	4951	;
    10a8:	97 e5       	ldi	r25, 0x57	; 87
    10aa:	23 e1       	ldi	r18, 0x13	; 19
		break;
    10ac:	a0 c1       	rjmp	.+832    	; 0x13ee <read_MQ5+0x460>
		case	280	: ppm =	4728	;
    10ae:	98 e7       	ldi	r25, 0x78	; 120
    10b0:	22 e1       	ldi	r18, 0x12	; 18
		break;
    10b2:	9d c1       	rjmp	.+826    	; 0x13ee <read_MQ5+0x460>
		case	285	: ppm =	4518	;
    10b4:	96 ea       	ldi	r25, 0xA6	; 166
    10b6:	21 e1       	ldi	r18, 0x11	; 17
		break;
    10b8:	9a c1       	rjmp	.+820    	; 0x13ee <read_MQ5+0x460>
		case	290	: ppm =	4322	;
    10ba:	92 ee       	ldi	r25, 0xE2	; 226
    10bc:	20 e1       	ldi	r18, 0x10	; 16
		break;
    10be:	97 c1       	rjmp	.+814    	; 0x13ee <read_MQ5+0x460>
		case	295	: ppm =	4137	;
    10c0:	99 e2       	ldi	r25, 0x29	; 41
    10c2:	20 e1       	ldi	r18, 0x10	; 16
		break;
    10c4:	94 c1       	rjmp	.+808    	; 0x13ee <read_MQ5+0x460>
		case	300	: ppm =	3963	;
    10c6:	9b e7       	ldi	r25, 0x7B	; 123
    10c8:	2f e0       	ldi	r18, 0x0F	; 15
		break;
    10ca:	91 c1       	rjmp	.+802    	; 0x13ee <read_MQ5+0x460>
		case	305	: ppm =	3799	;
    10cc:	97 ed       	ldi	r25, 0xD7	; 215
    10ce:	2e e0       	ldi	r18, 0x0E	; 14
		break;
    10d0:	8e c1       	rjmp	.+796    	; 0x13ee <read_MQ5+0x460>
		case	310	: ppm =	3644	;
    10d2:	9c e3       	ldi	r25, 0x3C	; 60
    10d4:	2e e0       	ldi	r18, 0x0E	; 14
		break;
    10d6:	8b c1       	rjmp	.+790    	; 0x13ee <read_MQ5+0x460>
		case	315	: ppm =	3498	;
    10d8:	9a ea       	ldi	r25, 0xAA	; 170
    10da:	2d e0       	ldi	r18, 0x0D	; 13
		break;
    10dc:	88 c1       	rjmp	.+784    	; 0x13ee <read_MQ5+0x460>
		case	320	: ppm =	3360	;
    10de:	90 e2       	ldi	r25, 0x20	; 32
    10e0:	2d e0       	ldi	r18, 0x0D	; 13
		break;
    10e2:	85 c1       	rjmp	.+778    	; 0x13ee <read_MQ5+0x460>
		case	325	: ppm =	3229	;
    10e4:	9d e9       	ldi	r25, 0x9D	; 157
    10e6:	2c e0       	ldi	r18, 0x0C	; 12
		break;
    10e8:	82 c1       	rjmp	.+772    	; 0x13ee <read_MQ5+0x460>
		case	330	: ppm =	3106	;
    10ea:	92 e2       	ldi	r25, 0x22	; 34
    10ec:	2c e0       	ldi	r18, 0x0C	; 12
		break;
    10ee:	7f c1       	rjmp	.+766    	; 0x13ee <read_MQ5+0x460>
		case	335	: ppm =	2988	;
    10f0:	9c ea       	ldi	r25, 0xAC	; 172
    10f2:	2b e0       	ldi	r18, 0x0B	; 11
		break;
    10f4:	7c c1       	rjmp	.+760    	; 0x13ee <read_MQ5+0x460>
		case	340	: ppm =	2877	;
    10f6:	9d e3       	ldi	r25, 0x3D	; 61
    10f8:	2b e0       	ldi	r18, 0x0B	; 11
		break;
    10fa:	79 c1       	rjmp	.+754    	; 0x13ee <read_MQ5+0x460>
		case	345	: ppm =	2772	;
    10fc:	94 ed       	ldi	r25, 0xD4	; 212
    10fe:	2a e0       	ldi	r18, 0x0A	; 10
		break;
    1100:	76 c1       	rjmp	.+748    	; 0x13ee <read_MQ5+0x460>
		case	350	: ppm =	2672	;
    1102:	90 e7       	ldi	r25, 0x70	; 112
    1104:	2a e0       	ldi	r18, 0x0A	; 10
		break;
    1106:	73 c1       	rjmp	.+742    	; 0x13ee <read_MQ5+0x460>
		case	355	: ppm =	2577	;
    1108:	91 e1       	ldi	r25, 0x11	; 17
    110a:	2a e0       	ldi	r18, 0x0A	; 10
		break;
    110c:	70 c1       	rjmp	.+736    	; 0x13ee <read_MQ5+0x460>
		case	360	: ppm =	2486	;
    110e:	96 eb       	ldi	r25, 0xB6	; 182
    1110:	29 e0       	ldi	r18, 0x09	; 9
		break;
    1112:	6d c1       	rjmp	.+730    	; 0x13ee <read_MQ5+0x460>
		case	365	: ppm =	2400	;
    1114:	90 e6       	ldi	r25, 0x60	; 96
    1116:	29 e0       	ldi	r18, 0x09	; 9
		break;
    1118:	6a c1       	rjmp	.+724    	; 0x13ee <read_MQ5+0x460>
		case	370	: ppm =	2318	;
    111a:	9e e0       	ldi	r25, 0x0E	; 14
    111c:	29 e0       	ldi	r18, 0x09	; 9
		break;
    111e:	67 c1       	rjmp	.+718    	; 0x13ee <read_MQ5+0x460>
		case	375	: ppm =	2240	;
    1120:	90 ec       	ldi	r25, 0xC0	; 192
    1122:	28 e0       	ldi	r18, 0x08	; 8
		break;
    1124:	64 c1       	rjmp	.+712    	; 0x13ee <read_MQ5+0x460>
		case	380	: ppm =	2165	;
    1126:	95 e7       	ldi	r25, 0x75	; 117
    1128:	28 e0       	ldi	r18, 0x08	; 8
		break;
    112a:	61 c1       	rjmp	.+706    	; 0x13ee <read_MQ5+0x460>
		case	385	: ppm =	2094	;
    112c:	9e e2       	ldi	r25, 0x2E	; 46
    112e:	28 e0       	ldi	r18, 0x08	; 8
		break;
    1130:	5e c1       	rjmp	.+700    	; 0x13ee <read_MQ5+0x460>
		case	390	: ppm =	2026	;
    1132:	9a ee       	ldi	r25, 0xEA	; 234
    1134:	27 e0       	ldi	r18, 0x07	; 7
		break;
    1136:	5b c1       	rjmp	.+694    	; 0x13ee <read_MQ5+0x460>
		case	395	: ppm =	1961	;
    1138:	99 ea       	ldi	r25, 0xA9	; 169
    113a:	27 e0       	ldi	r18, 0x07	; 7
		break;
    113c:	58 c1       	rjmp	.+688    	; 0x13ee <read_MQ5+0x460>
		case	400	: ppm =	1899	;
    113e:	9b e6       	ldi	r25, 0x6B	; 107
    1140:	27 e0       	ldi	r18, 0x07	; 7
		break;
    1142:	55 c1       	rjmp	.+682    	; 0x13ee <read_MQ5+0x460>
		case	405	: ppm =	1839	;
    1144:	9f e2       	ldi	r25, 0x2F	; 47
    1146:	27 e0       	ldi	r18, 0x07	; 7
		break;
    1148:	52 c1       	rjmp	.+676    	; 0x13ee <read_MQ5+0x460>
		case	410	: ppm =	1783	;
    114a:	97 ef       	ldi	r25, 0xF7	; 247
    114c:	26 e0       	ldi	r18, 0x06	; 6
		break;
    114e:	4f c1       	rjmp	.+670    	; 0x13ee <read_MQ5+0x460>
		case	415	: ppm =	1728	;
    1150:	90 ec       	ldi	r25, 0xC0	; 192
    1152:	26 e0       	ldi	r18, 0x06	; 6
		break;
    1154:	4c c1       	rjmp	.+664    	; 0x13ee <read_MQ5+0x460>
		case	420	: ppm =	1676	;
    1156:	9c e8       	ldi	r25, 0x8C	; 140
    1158:	26 e0       	ldi	r18, 0x06	; 6
		break;
    115a:	49 c1       	rjmp	.+658    	; 0x13ee <read_MQ5+0x460>
		case	425	: ppm =	1626	;
    115c:	9a e5       	ldi	r25, 0x5A	; 90
    115e:	26 e0       	ldi	r18, 0x06	; 6
		break;
    1160:	46 c1       	rjmp	.+652    	; 0x13ee <read_MQ5+0x460>
		case	430	: ppm =	1578	;
    1162:	9a e2       	ldi	r25, 0x2A	; 42
    1164:	26 e0       	ldi	r18, 0x06	; 6
		break;
    1166:	43 c1       	rjmp	.+646    	; 0x13ee <read_MQ5+0x460>
		case	435	: ppm =	1532	;
    1168:	9c ef       	ldi	r25, 0xFC	; 252
    116a:	25 e0       	ldi	r18, 0x05	; 5
		break;
    116c:	40 c1       	rjmp	.+640    	; 0x13ee <read_MQ5+0x460>
		case	440	: ppm =	1488	;
    116e:	90 ed       	ldi	r25, 0xD0	; 208
    1170:	25 e0       	ldi	r18, 0x05	; 5
		break;
    1172:	3d c1       	rjmp	.+634    	; 0x13ee <read_MQ5+0x460>
		case	445	: ppm =	1446	;
    1174:	96 ea       	ldi	r25, 0xA6	; 166
    1176:	25 e0       	ldi	r18, 0x05	; 5
		break;
    1178:	3a c1       	rjmp	.+628    	; 0x13ee <read_MQ5+0x460>
		case	450	: ppm =	1405	;
    117a:	9d e7       	ldi	r25, 0x7D	; 125
    117c:	25 e0       	ldi	r18, 0x05	; 5
		break;
    117e:	37 c1       	rjmp	.+622    	; 0x13ee <read_MQ5+0x460>
		case	455	: ppm =	1366	;
    1180:	96 e5       	ldi	r25, 0x56	; 86
    1182:	25 e0       	ldi	r18, 0x05	; 5
		break;
    1184:	34 c1       	rjmp	.+616    	; 0x13ee <read_MQ5+0x460>
		case	460	: ppm =	1328	;
    1186:	90 e3       	ldi	r25, 0x30	; 48
    1188:	25 e0       	ldi	r18, 0x05	; 5
		break;
    118a:	31 c1       	rjmp	.+610    	; 0x13ee <read_MQ5+0x460>
		case	465	: ppm =	1292	;
    118c:	9c e0       	ldi	r25, 0x0C	; 12
    118e:	25 e0       	ldi	r18, 0x05	; 5
		break;
    1190:	2e c1       	rjmp	.+604    	; 0x13ee <read_MQ5+0x460>
		case	470	: ppm =	1257	;
    1192:	99 ee       	ldi	r25, 0xE9	; 233
    1194:	24 e0       	ldi	r18, 0x04	; 4
		break;
    1196:	2b c1       	rjmp	.+598    	; 0x13ee <read_MQ5+0x460>
		case	475	: ppm =	1223	;
    1198:	97 ec       	ldi	r25, 0xC7	; 199
    119a:	24 e0       	ldi	r18, 0x04	; 4
		break;
    119c:	28 c1       	rjmp	.+592    	; 0x13ee <read_MQ5+0x460>
		case	480	: ppm =	1191	;
    119e:	97 ea       	ldi	r25, 0xA7	; 167
    11a0:	24 e0       	ldi	r18, 0x04	; 4
		break;
    11a2:	25 c1       	rjmp	.+586    	; 0x13ee <read_MQ5+0x460>
		case	485	: ppm =	1160	;
    11a4:	98 e8       	ldi	r25, 0x88	; 136
    11a6:	24 e0       	ldi	r18, 0x04	; 4
		break;
    11a8:	22 c1       	rjmp	.+580    	; 0x13ee <read_MQ5+0x460>
		case	490	: ppm =	1130	;
    11aa:	9a e6       	ldi	r25, 0x6A	; 106
    11ac:	24 e0       	ldi	r18, 0x04	; 4
		break;
    11ae:	1f c1       	rjmp	.+574    	; 0x13ee <read_MQ5+0x460>
		case	495	: ppm =	1101	;
    11b0:	9d e4       	ldi	r25, 0x4D	; 77
    11b2:	24 e0       	ldi	r18, 0x04	; 4
		break;
    11b4:	1c c1       	rjmp	.+568    	; 0x13ee <read_MQ5+0x460>
		case	500	: ppm =	1073	;
    11b6:	91 e3       	ldi	r25, 0x31	; 49
    11b8:	24 e0       	ldi	r18, 0x04	; 4
		break;
    11ba:	19 c1       	rjmp	.+562    	; 0x13ee <read_MQ5+0x460>
		case	505	: ppm =	1046	;
    11bc:	96 e1       	ldi	r25, 0x16	; 22
    11be:	24 e0       	ldi	r18, 0x04	; 4
		break;
    11c0:	16 c1       	rjmp	.+556    	; 0x13ee <read_MQ5+0x460>
		case	510	: ppm =	1020	;
    11c2:	9c ef       	ldi	r25, 0xFC	; 252
    11c4:	23 e0       	ldi	r18, 0x03	; 3
		break;
    11c6:	13 c1       	rjmp	.+550    	; 0x13ee <read_MQ5+0x460>
		case	515	: ppm =	995	;
    11c8:	93 ee       	ldi	r25, 0xE3	; 227
    11ca:	23 e0       	ldi	r18, 0x03	; 3
		break;
    11cc:	10 c1       	rjmp	.+544    	; 0x13ee <read_MQ5+0x460>
		case	520	: ppm =	971	;
    11ce:	9b ec       	ldi	r25, 0xCB	; 203
    11d0:	23 e0       	ldi	r18, 0x03	; 3
		break;
    11d2:	0d c1       	rjmp	.+538    	; 0x13ee <read_MQ5+0x460>
		case	525	: ppm =	947	;
    11d4:	93 eb       	ldi	r25, 0xB3	; 179
    11d6:	23 e0       	ldi	r18, 0x03	; 3
		break;
    11d8:	0a c1       	rjmp	.+532    	; 0x13ee <read_MQ5+0x460>
		case	530	: ppm =	924	;
    11da:	9c e9       	ldi	r25, 0x9C	; 156
    11dc:	23 e0       	ldi	r18, 0x03	; 3
		break;
    11de:	07 c1       	rjmp	.+526    	; 0x13ee <read_MQ5+0x460>
		case	535	: ppm =	903	;
    11e0:	97 e8       	ldi	r25, 0x87	; 135
    11e2:	23 e0       	ldi	r18, 0x03	; 3
		break;
    11e4:	04 c1       	rjmp	.+520    	; 0x13ee <read_MQ5+0x460>
		case	540	: ppm =	881	;
    11e6:	91 e7       	ldi	r25, 0x71	; 113
    11e8:	23 e0       	ldi	r18, 0x03	; 3
		break;
    11ea:	01 c1       	rjmp	.+514    	; 0x13ee <read_MQ5+0x460>
		case	545	: ppm =	861	;
    11ec:	9d e5       	ldi	r25, 0x5D	; 93
    11ee:	23 e0       	ldi	r18, 0x03	; 3
		break;
    11f0:	fe c0       	rjmp	.+508    	; 0x13ee <read_MQ5+0x460>
		case	550	: ppm =	841	;
    11f2:	99 e4       	ldi	r25, 0x49	; 73
    11f4:	23 e0       	ldi	r18, 0x03	; 3
		break;
    11f6:	fb c0       	rjmp	.+502    	; 0x13ee <read_MQ5+0x460>
		case	555	: ppm =	822	;
    11f8:	96 e3       	ldi	r25, 0x36	; 54
    11fa:	23 e0       	ldi	r18, 0x03	; 3
		break;
    11fc:	f8 c0       	rjmp	.+496    	; 0x13ee <read_MQ5+0x460>
		case	560	: ppm =	803	;
    11fe:	93 e2       	ldi	r25, 0x23	; 35
    1200:	23 e0       	ldi	r18, 0x03	; 3
		break;
    1202:	f5 c0       	rjmp	.+490    	; 0x13ee <read_MQ5+0x460>
		case	565	: ppm =	785	;
    1204:	91 e1       	ldi	r25, 0x11	; 17
    1206:	23 e0       	ldi	r18, 0x03	; 3
		break;
    1208:	f2 c0       	rjmp	.+484    	; 0x13ee <read_MQ5+0x460>
		case	570	: ppm =	768	;
    120a:	90 e0       	ldi	r25, 0x00	; 0
    120c:	23 e0       	ldi	r18, 0x03	; 3
		break;
    120e:	ef c0       	rjmp	.+478    	; 0x13ee <read_MQ5+0x460>
		case	575	: ppm =	751	;
    1210:	9f ee       	ldi	r25, 0xEF	; 239
    1212:	22 e0       	ldi	r18, 0x02	; 2
		break;
    1214:	ec c0       	rjmp	.+472    	; 0x13ee <read_MQ5+0x460>
		case	580	: ppm =	734	;
    1216:	9e ed       	ldi	r25, 0xDE	; 222
    1218:	22 e0       	ldi	r18, 0x02	; 2
		break;
    121a:	e9 c0       	rjmp	.+466    	; 0x13ee <read_MQ5+0x460>
		case	585	: ppm =	718	;
    121c:	9e ec       	ldi	r25, 0xCE	; 206
    121e:	22 e0       	ldi	r18, 0x02	; 2
		break;
    1220:	e6 c0       	rjmp	.+460    	; 0x13ee <read_MQ5+0x460>
		case	590	: ppm =	703	;
    1222:	9f eb       	ldi	r25, 0xBF	; 191
    1224:	22 e0       	ldi	r18, 0x02	; 2
		break;
    1226:	e3 c0       	rjmp	.+454    	; 0x13ee <read_MQ5+0x460>
		case	595	: ppm =	688	;
    1228:	90 eb       	ldi	r25, 0xB0	; 176
    122a:	22 e0       	ldi	r18, 0x02	; 2
		break;
    122c:	e0 c0       	rjmp	.+448    	; 0x13ee <read_MQ5+0x460>
		case	600	: ppm =	673	;
    122e:	91 ea       	ldi	r25, 0xA1	; 161
    1230:	22 e0       	ldi	r18, 0x02	; 2
		break;
    1232:	dd c0       	rjmp	.+442    	; 0x13ee <read_MQ5+0x460>
		case	605	: ppm =	659	;
    1234:	93 e9       	ldi	r25, 0x93	; 147
    1236:	22 e0       	ldi	r18, 0x02	; 2
		break;
    1238:	da c0       	rjmp	.+436    	; 0x13ee <read_MQ5+0x460>
		case	610	: ppm =	645	;
    123a:	95 e8       	ldi	r25, 0x85	; 133
    123c:	22 e0       	ldi	r18, 0x02	; 2
		break;
    123e:	d7 c0       	rjmp	.+430    	; 0x13ee <read_MQ5+0x460>
		case	615	: ppm =	632	;
    1240:	98 e7       	ldi	r25, 0x78	; 120
    1242:	22 e0       	ldi	r18, 0x02	; 2
		break;
    1244:	d4 c0       	rjmp	.+424    	; 0x13ee <read_MQ5+0x460>
		case	620	: ppm =	619	;
    1246:	9b e6       	ldi	r25, 0x6B	; 107
    1248:	22 e0       	ldi	r18, 0x02	; 2
		break;
    124a:	d1 c0       	rjmp	.+418    	; 0x13ee <read_MQ5+0x460>
		case	625	: ppm =	606	;
    124c:	9e e5       	ldi	r25, 0x5E	; 94
    124e:	22 e0       	ldi	r18, 0x02	; 2
		break;
    1250:	ce c0       	rjmp	.+412    	; 0x13ee <read_MQ5+0x460>
		case	630	: ppm =	594	;
    1252:	92 e5       	ldi	r25, 0x52	; 82
    1254:	22 e0       	ldi	r18, 0x02	; 2
		break;
    1256:	cb c0       	rjmp	.+406    	; 0x13ee <read_MQ5+0x460>
		case	635	: ppm =	582	;
    1258:	96 e4       	ldi	r25, 0x46	; 70
    125a:	22 e0       	ldi	r18, 0x02	; 2
		break;
    125c:	c8 c0       	rjmp	.+400    	; 0x13ee <read_MQ5+0x460>
		case	640	: ppm =	571	;
    125e:	9b e3       	ldi	r25, 0x3B	; 59
    1260:	22 e0       	ldi	r18, 0x02	; 2
		break;
    1262:	c5 c0       	rjmp	.+394    	; 0x13ee <read_MQ5+0x460>
		case	645	: ppm =	559	;
    1264:	9f e2       	ldi	r25, 0x2F	; 47
    1266:	22 e0       	ldi	r18, 0x02	; 2
		break;
    1268:	c2 c0       	rjmp	.+388    	; 0x13ee <read_MQ5+0x460>
		case	650	: ppm =	549	;
    126a:	95 e2       	ldi	r25, 0x25	; 37
    126c:	22 e0       	ldi	r18, 0x02	; 2
		break;
    126e:	bf c0       	rjmp	.+382    	; 0x13ee <read_MQ5+0x460>
		case	655	: ppm =	538	;
    1270:	9a e1       	ldi	r25, 0x1A	; 26
    1272:	22 e0       	ldi	r18, 0x02	; 2
		break;
    1274:	bc c0       	rjmp	.+376    	; 0x13ee <read_MQ5+0x460>
		case	660	: ppm =	528	;
    1276:	90 e1       	ldi	r25, 0x10	; 16
    1278:	22 e0       	ldi	r18, 0x02	; 2
		break;
    127a:	b9 c0       	rjmp	.+370    	; 0x13ee <read_MQ5+0x460>
		case	665	: ppm =	517	;
    127c:	95 e0       	ldi	r25, 0x05	; 5
    127e:	22 e0       	ldi	r18, 0x02	; 2
		break;
    1280:	b6 c0       	rjmp	.+364    	; 0x13ee <read_MQ5+0x460>
		case	670	: ppm =	508	;
    1282:	9c ef       	ldi	r25, 0xFC	; 252
    1284:	21 e0       	ldi	r18, 0x01	; 1
		break;
    1286:	b3 c0       	rjmp	.+358    	; 0x13ee <read_MQ5+0x460>
		case	675	: ppm =	498	;
    1288:	92 ef       	ldi	r25, 0xF2	; 242
    128a:	21 e0       	ldi	r18, 0x01	; 1
		break;
    128c:	b0 c0       	rjmp	.+352    	; 0x13ee <read_MQ5+0x460>
		case	680	: ppm =	489	;
    128e:	99 ee       	ldi	r25, 0xE9	; 233
    1290:	21 e0       	ldi	r18, 0x01	; 1
		break;
    1292:	ad c0       	rjmp	.+346    	; 0x13ee <read_MQ5+0x460>
		case	685	: ppm =	480	;
    1294:	90 ee       	ldi	r25, 0xE0	; 224
    1296:	21 e0       	ldi	r18, 0x01	; 1
		break;
    1298:	aa c0       	rjmp	.+340    	; 0x13ee <read_MQ5+0x460>
		case	690	: ppm =	471	;
    129a:	97 ed       	ldi	r25, 0xD7	; 215
    129c:	21 e0       	ldi	r18, 0x01	; 1
		break;
    129e:	a7 c0       	rjmp	.+334    	; 0x13ee <read_MQ5+0x460>
		case	695	: ppm =	462	;
    12a0:	9e ec       	ldi	r25, 0xCE	; 206
    12a2:	21 e0       	ldi	r18, 0x01	; 1
		break;
    12a4:	a4 c0       	rjmp	.+328    	; 0x13ee <read_MQ5+0x460>
		case	700	: ppm =	454	;
    12a6:	96 ec       	ldi	r25, 0xC6	; 198
    12a8:	21 e0       	ldi	r18, 0x01	; 1
		break;
    12aa:	a1 c0       	rjmp	.+322    	; 0x13ee <read_MQ5+0x460>
		case	705	: ppm =	446	;
    12ac:	9e eb       	ldi	r25, 0xBE	; 190
    12ae:	21 e0       	ldi	r18, 0x01	; 1
		break;
    12b0:	9e c0       	rjmp	.+316    	; 0x13ee <read_MQ5+0x460>
		case	710	: ppm =	438	;
    12b2:	96 eb       	ldi	r25, 0xB6	; 182
    12b4:	21 e0       	ldi	r18, 0x01	; 1
		break;
    12b6:	9b c0       	rjmp	.+310    	; 0x13ee <read_MQ5+0x460>
		case	715	: ppm =	430	;
    12b8:	9e ea       	ldi	r25, 0xAE	; 174
    12ba:	21 e0       	ldi	r18, 0x01	; 1
		break;
    12bc:	98 c0       	rjmp	.+304    	; 0x13ee <read_MQ5+0x460>
		case	720	: ppm =	422	;
    12be:	96 ea       	ldi	r25, 0xA6	; 166
    12c0:	21 e0       	ldi	r18, 0x01	; 1
		break;
    12c2:	95 c0       	rjmp	.+298    	; 0x13ee <read_MQ5+0x460>
		case	725	: ppm =	415	;
    12c4:	9f e9       	ldi	r25, 0x9F	; 159
    12c6:	21 e0       	ldi	r18, 0x01	; 1
		break;
    12c8:	92 c0       	rjmp	.+292    	; 0x13ee <read_MQ5+0x460>
		case	730	: ppm =	408	;
    12ca:	98 e9       	ldi	r25, 0x98	; 152
    12cc:	21 e0       	ldi	r18, 0x01	; 1
		break;
    12ce:	8f c0       	rjmp	.+286    	; 0x13ee <read_MQ5+0x460>
		case	735	: ppm =	401	;
    12d0:	91 e9       	ldi	r25, 0x91	; 145
    12d2:	21 e0       	ldi	r18, 0x01	; 1
		break;
    12d4:	8c c0       	rjmp	.+280    	; 0x13ee <read_MQ5+0x460>
		case	740	: ppm =	394	;
    12d6:	9a e8       	ldi	r25, 0x8A	; 138
    12d8:	21 e0       	ldi	r18, 0x01	; 1
		break;
    12da:	89 c0       	rjmp	.+274    	; 0x13ee <read_MQ5+0x460>
		case	745	: ppm =	387	;
    12dc:	93 e8       	ldi	r25, 0x83	; 131
    12de:	21 e0       	ldi	r18, 0x01	; 1
		break;
    12e0:	86 c0       	rjmp	.+268    	; 0x13ee <read_MQ5+0x460>
		case	750	: ppm =	380	;
    12e2:	9c e7       	ldi	r25, 0x7C	; 124
    12e4:	21 e0       	ldi	r18, 0x01	; 1
		break;
    12e6:	83 c0       	rjmp	.+262    	; 0x13ee <read_MQ5+0x460>
		case	755	: ppm =	374	;
    12e8:	96 e7       	ldi	r25, 0x76	; 118
    12ea:	21 e0       	ldi	r18, 0x01	; 1
		break;
    12ec:	80 c0       	rjmp	.+256    	; 0x13ee <read_MQ5+0x460>
		case	760	: ppm =	368	;
    12ee:	90 e7       	ldi	r25, 0x70	; 112
    12f0:	21 e0       	ldi	r18, 0x01	; 1
		break;
    12f2:	7d c0       	rjmp	.+250    	; 0x13ee <read_MQ5+0x460>
		case	765	: ppm =	362	;
    12f4:	9a e6       	ldi	r25, 0x6A	; 106
    12f6:	21 e0       	ldi	r18, 0x01	; 1
		break;
    12f8:	7a c0       	rjmp	.+244    	; 0x13ee <read_MQ5+0x460>
		case	770	: ppm =	356	;
    12fa:	94 e6       	ldi	r25, 0x64	; 100
    12fc:	21 e0       	ldi	r18, 0x01	; 1
		break;
    12fe:	77 c0       	rjmp	.+238    	; 0x13ee <read_MQ5+0x460>
		case	775	: ppm =	350	;
    1300:	9e e5       	ldi	r25, 0x5E	; 94
    1302:	21 e0       	ldi	r18, 0x01	; 1
		break;
    1304:	74 c0       	rjmp	.+232    	; 0x13ee <read_MQ5+0x460>
		case	780	: ppm =	344	;
    1306:	98 e5       	ldi	r25, 0x58	; 88
    1308:	21 e0       	ldi	r18, 0x01	; 1
		break;
    130a:	71 c0       	rjmp	.+226    	; 0x13ee <read_MQ5+0x460>
		case	785	: ppm =	339	;
    130c:	93 e5       	ldi	r25, 0x53	; 83
    130e:	21 e0       	ldi	r18, 0x01	; 1
		break;
    1310:	6e c0       	rjmp	.+220    	; 0x13ee <read_MQ5+0x460>
		case	790	: ppm =	333	;
    1312:	9d e4       	ldi	r25, 0x4D	; 77
    1314:	21 e0       	ldi	r18, 0x01	; 1
		break;
    1316:	6b c0       	rjmp	.+214    	; 0x13ee <read_MQ5+0x460>
		case	795	: ppm =	328	;
    1318:	98 e4       	ldi	r25, 0x48	; 72
    131a:	21 e0       	ldi	r18, 0x01	; 1
		break;
    131c:	68 c0       	rjmp	.+208    	; 0x13ee <read_MQ5+0x460>
		case	800	: ppm =	323	;
    131e:	93 e4       	ldi	r25, 0x43	; 67
    1320:	21 e0       	ldi	r18, 0x01	; 1
		break;
    1322:	65 c0       	rjmp	.+202    	; 0x13ee <read_MQ5+0x460>
		case	805	: ppm =	317	;
    1324:	9d e3       	ldi	r25, 0x3D	; 61
    1326:	21 e0       	ldi	r18, 0x01	; 1
		break;
    1328:	62 c0       	rjmp	.+196    	; 0x13ee <read_MQ5+0x460>
		case	810	: ppm =	312	;
    132a:	98 e3       	ldi	r25, 0x38	; 56
    132c:	21 e0       	ldi	r18, 0x01	; 1
		break;
    132e:	5f c0       	rjmp	.+190    	; 0x13ee <read_MQ5+0x460>
		case	815	: ppm =	308	;
    1330:	94 e3       	ldi	r25, 0x34	; 52
    1332:	21 e0       	ldi	r18, 0x01	; 1
		break;
    1334:	5c c0       	rjmp	.+184    	; 0x13ee <read_MQ5+0x460>
		case	820	: ppm =	303	;
    1336:	9f e2       	ldi	r25, 0x2F	; 47
    1338:	21 e0       	ldi	r18, 0x01	; 1
		break;
    133a:	59 c0       	rjmp	.+178    	; 0x13ee <read_MQ5+0x460>
		case	825	: ppm =	298	;
    133c:	9a e2       	ldi	r25, 0x2A	; 42
    133e:	21 e0       	ldi	r18, 0x01	; 1
		break;
    1340:	56 c0       	rjmp	.+172    	; 0x13ee <read_MQ5+0x460>
		case	830	: ppm =	294	;
    1342:	96 e2       	ldi	r25, 0x26	; 38
    1344:	21 e0       	ldi	r18, 0x01	; 1
		break;
    1346:	53 c0       	rjmp	.+166    	; 0x13ee <read_MQ5+0x460>
		case	835	: ppm =	289	;
    1348:	91 e2       	ldi	r25, 0x21	; 33
    134a:	21 e0       	ldi	r18, 0x01	; 1
		break;
    134c:	50 c0       	rjmp	.+160    	; 0x13ee <read_MQ5+0x460>
		case	840	: ppm =	285	;
    134e:	9d e1       	ldi	r25, 0x1D	; 29
    1350:	21 e0       	ldi	r18, 0x01	; 1
		break;
    1352:	4d c0       	rjmp	.+154    	; 0x13ee <read_MQ5+0x460>
		case	845	: ppm =	280	;
    1354:	98 e1       	ldi	r25, 0x18	; 24
    1356:	21 e0       	ldi	r18, 0x01	; 1
		break;
    1358:	4a c0       	rjmp	.+148    	; 0x13ee <read_MQ5+0x460>
		case	850	: ppm =	276	;
    135a:	94 e1       	ldi	r25, 0x14	; 20
    135c:	21 e0       	ldi	r18, 0x01	; 1
		break;
    135e:	47 c0       	rjmp	.+142    	; 0x13ee <read_MQ5+0x460>
		case	855	: ppm =	272	;
    1360:	90 e1       	ldi	r25, 0x10	; 16
    1362:	21 e0       	ldi	r18, 0x01	; 1
		break;
    1364:	44 c0       	rjmp	.+136    	; 0x13ee <read_MQ5+0x460>
		case	860	: ppm =	268	;
    1366:	9c e0       	ldi	r25, 0x0C	; 12
    1368:	21 e0       	ldi	r18, 0x01	; 1
		break;
    136a:	41 c0       	rjmp	.+130    	; 0x13ee <read_MQ5+0x460>
		case	865	: ppm =	264	;
    136c:	98 e0       	ldi	r25, 0x08	; 8
    136e:	21 e0       	ldi	r18, 0x01	; 1
		break;
    1370:	3e c0       	rjmp	.+124    	; 0x13ee <read_MQ5+0x460>
		case	870	: ppm =	260	;
    1372:	94 e0       	ldi	r25, 0x04	; 4
    1374:	21 e0       	ldi	r18, 0x01	; 1
		break;
    1376:	3b c0       	rjmp	.+118    	; 0x13ee <read_MQ5+0x460>
		case	875	: ppm =	256	;
    1378:	90 e0       	ldi	r25, 0x00	; 0
    137a:	21 e0       	ldi	r18, 0x01	; 1
		break;
    137c:	38 c0       	rjmp	.+112    	; 0x13ee <read_MQ5+0x460>
		case	880	: ppm =	253	;
    137e:	9d ef       	ldi	r25, 0xFD	; 253
    1380:	20 e0       	ldi	r18, 0x00	; 0
		break;
    1382:	35 c0       	rjmp	.+106    	; 0x13ee <read_MQ5+0x460>
		case	885	: ppm =	249	;
    1384:	99 ef       	ldi	r25, 0xF9	; 249
    1386:	20 e0       	ldi	r18, 0x00	; 0
		break;
    1388:	32 c0       	rjmp	.+100    	; 0x13ee <read_MQ5+0x460>
		case	890	: ppm =	246	;
    138a:	96 ef       	ldi	r25, 0xF6	; 246
    138c:	20 e0       	ldi	r18, 0x00	; 0
		break;
    138e:	2f c0       	rjmp	.+94     	; 0x13ee <read_MQ5+0x460>
		case	895	: ppm =	242	;
    1390:	92 ef       	ldi	r25, 0xF2	; 242
    1392:	20 e0       	ldi	r18, 0x00	; 0
		break;
    1394:	2c c0       	rjmp	.+88     	; 0x13ee <read_MQ5+0x460>
		case	900	: ppm =	239	;
    1396:	9f ee       	ldi	r25, 0xEF	; 239
    1398:	20 e0       	ldi	r18, 0x00	; 0
		break;
    139a:	29 c0       	rjmp	.+82     	; 0x13ee <read_MQ5+0x460>
		case	905	: ppm =	235	;
    139c:	9b ee       	ldi	r25, 0xEB	; 235
    139e:	20 e0       	ldi	r18, 0x00	; 0
		break;
    13a0:	26 c0       	rjmp	.+76     	; 0x13ee <read_MQ5+0x460>
		case	910	: ppm =	232	;
    13a2:	98 ee       	ldi	r25, 0xE8	; 232
    13a4:	20 e0       	ldi	r18, 0x00	; 0
		break;
    13a6:	23 c0       	rjmp	.+70     	; 0x13ee <read_MQ5+0x460>
		case	915	: ppm =	229	;
    13a8:	95 ee       	ldi	r25, 0xE5	; 229
    13aa:	20 e0       	ldi	r18, 0x00	; 0
		break;
    13ac:	20 c0       	rjmp	.+64     	; 0x13ee <read_MQ5+0x460>
		case	920	: ppm =	226	;
    13ae:	92 ee       	ldi	r25, 0xE2	; 226
    13b0:	20 e0       	ldi	r18, 0x00	; 0
		break;
    13b2:	1d c0       	rjmp	.+58     	; 0x13ee <read_MQ5+0x460>
		case	925	: ppm =	222	;
    13b4:	9e ed       	ldi	r25, 0xDE	; 222
    13b6:	20 e0       	ldi	r18, 0x00	; 0
		break;
    13b8:	1a c0       	rjmp	.+52     	; 0x13ee <read_MQ5+0x460>
		case	930	: ppm =	219	;
    13ba:	9b ed       	ldi	r25, 0xDB	; 219
    13bc:	20 e0       	ldi	r18, 0x00	; 0
		break;
    13be:	17 c0       	rjmp	.+46     	; 0x13ee <read_MQ5+0x460>
		case	935	: ppm =	216	;
    13c0:	98 ed       	ldi	r25, 0xD8	; 216
    13c2:	20 e0       	ldi	r18, 0x00	; 0
		break;
    13c4:	14 c0       	rjmp	.+40     	; 0x13ee <read_MQ5+0x460>
		case	940	: ppm =	214	;
    13c6:	96 ed       	ldi	r25, 0xD6	; 214
    13c8:	20 e0       	ldi	r18, 0x00	; 0
		break;
    13ca:	11 c0       	rjmp	.+34     	; 0x13ee <read_MQ5+0x460>
		case	945	: ppm =	211	;
    13cc:	93 ed       	ldi	r25, 0xD3	; 211
    13ce:	20 e0       	ldi	r18, 0x00	; 0
		break;
    13d0:	0e c0       	rjmp	.+28     	; 0x13ee <read_MQ5+0x460>
		case	950	: ppm =	208	;
    13d2:	90 ed       	ldi	r25, 0xD0	; 208
    13d4:	20 e0       	ldi	r18, 0x00	; 0
		break;
    13d6:	0b c0       	rjmp	.+22     	; 0x13ee <read_MQ5+0x460>
		case	955	: ppm =	205	;
    13d8:	9d ec       	ldi	r25, 0xCD	; 205
    13da:	20 e0       	ldi	r18, 0x00	; 0
		break;
    13dc:	08 c0       	rjmp	.+16     	; 0x13ee <read_MQ5+0x460>
		case	960	: ppm =	202	;
    13de:	9a ec       	ldi	r25, 0xCA	; 202
    13e0:	20 e0       	ldi	r18, 0x00	; 0
		break;
    13e2:	05 c0       	rjmp	.+10     	; 0x13ee <read_MQ5+0x460>
		default		: ppm = 0	;
    13e4:	90 e0       	ldi	r25, 0x00	; 0
    13e6:	20 e0       	ldi	r18, 0x00	; 0
    13e8:	02 c0       	rjmp	.+4      	; 0x13ee <read_MQ5+0x460>
	}
	else
	{
		switch(rs)
		{
		case	210	: ppm =	9867	;
    13ea:	9b e8       	ldi	r25, 0x8B	; 139
    13ec:	26 e2       	ldi	r18, 0x26	; 38
		case	960	: ppm =	202	;
		break;
		default		: ppm = 0	;
		}
	}
	strcat(buffer, "CH4 : ");
    13ee:	d8 01       	movw	r26, r16
    13f0:	0d 90       	ld	r0, X+
    13f2:	00 20       	and	r0, r0
    13f4:	e9 f7       	brne	.-6      	; 0x13f0 <read_MQ5+0x462>
    13f6:	11 97       	sbiw	r26, 0x01	; 1
    13f8:	87 e0       	ldi	r24, 0x07	; 7
    13fa:	e4 e6       	ldi	r30, 0x64	; 100
    13fc:	f2 e0       	ldi	r31, 0x02	; 2
    13fe:	01 90       	ld	r0, Z+
    1400:	0d 92       	st	X+, r0
    1402:	8a 95       	dec	r24
    1404:	e1 f7       	brne	.-8      	; 0x13fe <read_MQ5+0x470>
	sprintf(temp, "%d ppm\n", (int)ppm);
    1406:	2f 93       	push	r18
    1408:	9f 93       	push	r25
    140a:	8b e3       	ldi	r24, 0x3B	; 59
    140c:	92 e0       	ldi	r25, 0x02	; 2
    140e:	9f 93       	push	r25
    1410:	8f 93       	push	r24
    1412:	ce 01       	movw	r24, r28
    1414:	01 96       	adiw	r24, 0x01	; 1
    1416:	7c 01       	movw	r14, r24
    1418:	9f 93       	push	r25
    141a:	8f 93       	push	r24
    141c:	0e 94 cb 13 	call	0x2796	; 0x2796 <sprintf>
	strcat(buffer, temp);
    1420:	b7 01       	movw	r22, r14
    1422:	c8 01       	movw	r24, r16
    1424:	0e 94 b1 13 	call	0x2762	; 0x2762 <strcat>
	return;
    1428:	0f 90       	pop	r0
    142a:	0f 90       	pop	r0
    142c:	0f 90       	pop	r0
    142e:	0f 90       	pop	r0
    1430:	0f 90       	pop	r0
    1432:	0f 90       	pop	r0
}
    1434:	2a 96       	adiw	r28, 0x0a	; 10
    1436:	0f b6       	in	r0, 0x3f	; 63
    1438:	f8 94       	cli
    143a:	de bf       	out	0x3e, r29	; 62
    143c:	0f be       	out	0x3f, r0	; 63
    143e:	cd bf       	out	0x3d, r28	; 61
    1440:	df 91       	pop	r29
    1442:	cf 91       	pop	r28
    1444:	1f 91       	pop	r17
    1446:	0f 91       	pop	r16
    1448:	ff 90       	pop	r15
    144a:	ef 90       	pop	r14
    144c:	df 90       	pop	r13
    144e:	cf 90       	pop	r12
    1450:	08 95       	ret

00001452 <read_MQ7>:

void read_MQ7(char* buffer) //C0 sensor
{
    1452:	cf 92       	push	r12
    1454:	df 92       	push	r13
    1456:	ef 92       	push	r14
    1458:	ff 92       	push	r15
    145a:	0f 93       	push	r16
    145c:	1f 93       	push	r17
    145e:	cf 93       	push	r28
    1460:	df 93       	push	r29
    1462:	cd b7       	in	r28, 0x3d	; 61
    1464:	de b7       	in	r29, 0x3e	; 62
    1466:	2a 97       	sbiw	r28, 0x0a	; 10
    1468:	0f b6       	in	r0, 0x3f	; 63
    146a:	f8 94       	cli
    146c:	de bf       	out	0x3e, r29	; 62
    146e:	0f be       	out	0x3f, r0	; 63
    1470:	cd bf       	out	0x3d, r28	; 61
    1472:	8c 01       	movw	r16, r24
	long rs = 0;
	int adc = 0;
	int RL = 9900;
	int RO = 2000;
	int ppm = 0;
	ADCSRA = 0x87;
    1474:	ea e7       	ldi	r30, 0x7A	; 122
    1476:	f0 e0       	ldi	r31, 0x00	; 0
    1478:	87 e8       	ldi	r24, 0x87	; 135
    147a:	80 83       	st	Z, r24
	ADMUX = 0x02; //Use ADC2
    147c:	82 e0       	ldi	r24, 0x02	; 2
    147e:	80 93 7c 00 	sts	0x007C, r24
	ADCSRA |= (1<<ADSC);
    1482:	80 81       	ld	r24, Z
    1484:	80 64       	ori	r24, 0x40	; 64
    1486:	80 83       	st	Z, r24
	while((ADCSRA & (1<<ADIF))==0);
    1488:	90 81       	ld	r25, Z
    148a:	94 ff       	sbrs	r25, 4
    148c:	fd cf       	rjmp	.-6      	; 0x1488 <read_MQ7+0x36>
	adc = ADC; // solve for Vout
    148e:	c0 90 78 00 	lds	r12, 0x0078
    1492:	d0 90 79 00 	lds	r13, 0x0079
	adc *= 5;
    1496:	c6 01       	movw	r24, r12
    1498:	88 0f       	add	r24, r24
    149a:	99 1f       	adc	r25, r25
    149c:	88 0f       	add	r24, r24
    149e:	99 1f       	adc	r25, r25
    14a0:	c8 0e       	add	r12, r24
    14a2:	d9 1e       	adc	r13, r25
	rs = 5*1024;
	rs -= adc;
    14a4:	0d 2c       	mov	r0, r13
    14a6:	00 0c       	add	r0, r0
    14a8:	ee 08       	sbc	r14, r14
    14aa:	ff 08       	sbc	r15, r15
    14ac:	80 e0       	ldi	r24, 0x00	; 0
    14ae:	94 e1       	ldi	r25, 0x14	; 20
    14b0:	a0 e0       	ldi	r26, 0x00	; 0
    14b2:	b0 e0       	ldi	r27, 0x00	; 0
    14b4:	9c 01       	movw	r18, r24
    14b6:	ad 01       	movw	r20, r26
    14b8:	2c 19       	sub	r18, r12
    14ba:	3d 09       	sbc	r19, r13
    14bc:	4e 09       	sbc	r20, r14
    14be:	5f 09       	sbc	r21, r15
	rs *= RL;
    14c0:	ac ea       	ldi	r26, 0xAC	; 172
    14c2:	b6 e2       	ldi	r27, 0x26	; 38
    14c4:	0e 94 76 13 	call	0x26ec	; 0x26ec <__muluhisi3>
	rs /= adc;
    14c8:	a7 01       	movw	r20, r14
    14ca:	96 01       	movw	r18, r12
    14cc:	0e 94 52 13 	call	0x26a4	; 0x26a4 <__divmodsi4>
	rs *= 100;
    14d0:	a4 e6       	ldi	r26, 0x64	; 100
    14d2:	b0 e0       	ldi	r27, 0x00	; 0
    14d4:	0e 94 76 13 	call	0x26ec	; 0x26ec <__muluhisi3>
	rs /= RO;
    14d8:	20 ed       	ldi	r18, 0xD0	; 208
    14da:	37 e0       	ldi	r19, 0x07	; 7
    14dc:	40 e0       	ldi	r20, 0x00	; 0
    14de:	50 e0       	ldi	r21, 0x00	; 0
    14e0:	0e 94 52 13 	call	0x26a4	; 0x26a4 <__divmodsi4>
	if(rs < 9)
    14e4:	29 30       	cpi	r18, 0x09	; 9
    14e6:	31 05       	cpc	r19, r1
    14e8:	41 05       	cpc	r20, r1
    14ea:	51 05       	cpc	r21, r1
    14ec:	6c f4       	brge	.+26     	; 0x1508 <read_MQ7+0xb6>
	{
		strcat(buffer, "ERROR: MQ7 reading out of range\n");
    14ee:	d8 01       	movw	r26, r16
    14f0:	0d 90       	ld	r0, X+
    14f2:	00 20       	and	r0, r0
    14f4:	e9 f7       	brne	.-6      	; 0x14f0 <read_MQ7+0x9e>
    14f6:	11 97       	sbiw	r26, 0x01	; 1
    14f8:	81 e2       	ldi	r24, 0x21	; 33
    14fa:	eb e6       	ldi	r30, 0x6B	; 107
    14fc:	f2 e0       	ldi	r31, 0x02	; 2
    14fe:	01 90       	ld	r0, Z+
    1500:	0d 92       	st	X+, r0
    1502:	8a 95       	dec	r24
    1504:	e1 f7       	brne	.-8      	; 0x14fe <read_MQ7+0xac>
		return;
    1506:	f4 c1       	rjmp	.+1000   	; 0x18f0 <read_MQ7+0x49e>
	}
	else
	{
		switch(rs)
    1508:	f9 01       	movw	r30, r18
    150a:	39 97       	sbiw	r30, 0x09	; 9
    150c:	e7 39       	cpi	r30, 0x97	; 151
    150e:	f1 05       	cpc	r31, r1
    1510:	08 f0       	brcs	.+2      	; 0x1514 <read_MQ7+0xc2>
    1512:	c8 c1       	rjmp	.+912    	; 0x18a4 <read_MQ7+0x452>
    1514:	88 27       	eor	r24, r24
    1516:	e8 50       	subi	r30, 0x08	; 8
    1518:	fc 4f       	sbci	r31, 0xFC	; 252
    151a:	8f 4f       	sbci	r24, 0xFF	; 255
    151c:	0c 94 6e 13 	jmp	0x26dc	; 0x26dc <__tablejump2__>
		{
		  case	9	: ppm =	4112	;
		  break;
		  case	10	: ppm =	3495	;
    1520:	97 ea       	ldi	r25, 0xA7	; 167
    1522:	2d e0       	ldi	r18, 0x0D	; 13
    1524:	c4 c1       	rjmp	.+904    	; 0x18ae <read_MQ7+0x45c>
		  break;
		  case	11	: ppm =	3017	;
    1526:	99 ec       	ldi	r25, 0xC9	; 201
    1528:	2b e0       	ldi	r18, 0x0B	; 11
		  break;
    152a:	c1 c1       	rjmp	.+898    	; 0x18ae <read_MQ7+0x45c>
		  case	12	: ppm =	2638	;
    152c:	9e e4       	ldi	r25, 0x4E	; 78
    152e:	2a e0       	ldi	r18, 0x0A	; 10
		  break;
    1530:	be c1       	rjmp	.+892    	; 0x18ae <read_MQ7+0x45c>
		  case	13	: ppm =	2332	;
    1532:	9c e1       	ldi	r25, 0x1C	; 28
    1534:	29 e0       	ldi	r18, 0x09	; 9
		  break;
    1536:	bb c1       	rjmp	.+886    	; 0x18ae <read_MQ7+0x45c>
		  case	14	: ppm =	2080	;
    1538:	90 e2       	ldi	r25, 0x20	; 32
    153a:	28 e0       	ldi	r18, 0x08	; 8
		  break;
    153c:	b8 c1       	rjmp	.+880    	; 0x18ae <read_MQ7+0x45c>
		  case	15	: ppm =	1870	;
    153e:	9e e4       	ldi	r25, 0x4E	; 78
    1540:	27 e0       	ldi	r18, 0x07	; 7
		  break;
    1542:	b5 c1       	rjmp	.+874    	; 0x18ae <read_MQ7+0x45c>
		  case	16	: ppm =	1692	;
    1544:	9c e9       	ldi	r25, 0x9C	; 156
    1546:	26 e0       	ldi	r18, 0x06	; 6
		  break;
    1548:	b2 c1       	rjmp	.+868    	; 0x18ae <read_MQ7+0x45c>
		  case	17	: ppm =	1541	;
    154a:	95 e0       	ldi	r25, 0x05	; 5
    154c:	26 e0       	ldi	r18, 0x06	; 6
		  break;
    154e:	af c1       	rjmp	.+862    	; 0x18ae <read_MQ7+0x45c>
		  case	18	: ppm =	1411	;
    1550:	93 e8       	ldi	r25, 0x83	; 131
    1552:	25 e0       	ldi	r18, 0x05	; 5
		  break;
    1554:	ac c1       	rjmp	.+856    	; 0x18ae <read_MQ7+0x45c>
		  case	19	: ppm =	1298	;
    1556:	92 e1       	ldi	r25, 0x12	; 18
    1558:	25 e0       	ldi	r18, 0x05	; 5
		  break;
    155a:	a9 c1       	rjmp	.+850    	; 0x18ae <read_MQ7+0x45c>
		  case	20	: ppm =	1199	;
    155c:	9f ea       	ldi	r25, 0xAF	; 175
    155e:	24 e0       	ldi	r18, 0x04	; 4
		  break;
    1560:	a6 c1       	rjmp	.+844    	; 0x18ae <read_MQ7+0x45c>
		  case	21	: ppm =	1112	;
    1562:	98 e5       	ldi	r25, 0x58	; 88
    1564:	24 e0       	ldi	r18, 0x04	; 4
		  break;
    1566:	a3 c1       	rjmp	.+838    	; 0x18ae <read_MQ7+0x45c>
		  case	22	: ppm =	1035	;
    1568:	9b e0       	ldi	r25, 0x0B	; 11
    156a:	24 e0       	ldi	r18, 0x04	; 4
		  break;
    156c:	a0 c1       	rjmp	.+832    	; 0x18ae <read_MQ7+0x45c>
		  case	23	: ppm =	967	;
    156e:	97 ec       	ldi	r25, 0xC7	; 199
    1570:	23 e0       	ldi	r18, 0x03	; 3
		  break;
    1572:	9d c1       	rjmp	.+826    	; 0x18ae <read_MQ7+0x45c>
		  case	24	: ppm =	905	;
    1574:	99 e8       	ldi	r25, 0x89	; 137
    1576:	23 e0       	ldi	r18, 0x03	; 3
		  break;
    1578:	9a c1       	rjmp	.+820    	; 0x18ae <read_MQ7+0x45c>
		  case	25	: ppm =	850	;
    157a:	92 e5       	ldi	r25, 0x52	; 82
    157c:	23 e0       	ldi	r18, 0x03	; 3
		  break;
    157e:	97 c1       	rjmp	.+814    	; 0x18ae <read_MQ7+0x45c>
		  case	26	: ppm =	800	;
    1580:	90 e2       	ldi	r25, 0x20	; 32
    1582:	23 e0       	ldi	r18, 0x03	; 3
		  break;
    1584:	94 c1       	rjmp	.+808    	; 0x18ae <read_MQ7+0x45c>
		  case	27	: ppm =	755	;
    1586:	93 ef       	ldi	r25, 0xF3	; 243
    1588:	22 e0       	ldi	r18, 0x02	; 2
		  break;
    158a:	91 c1       	rjmp	.+802    	; 0x18ae <read_MQ7+0x45c>
		  case	28	: ppm =	714	;
    158c:	9a ec       	ldi	r25, 0xCA	; 202
    158e:	22 e0       	ldi	r18, 0x02	; 2
		  break;
    1590:	8e c1       	rjmp	.+796    	; 0x18ae <read_MQ7+0x45c>
		  case	29	: ppm =	676	;
    1592:	94 ea       	ldi	r25, 0xA4	; 164
    1594:	22 e0       	ldi	r18, 0x02	; 2
		  break;
    1596:	8b c1       	rjmp	.+790    	; 0x18ae <read_MQ7+0x45c>
		  case	30	: ppm =	641	;
    1598:	91 e8       	ldi	r25, 0x81	; 129
    159a:	22 e0       	ldi	r18, 0x02	; 2
		  break;
    159c:	88 c1       	rjmp	.+784    	; 0x18ae <read_MQ7+0x45c>
		  case	31	: ppm =	610	;
    159e:	92 e6       	ldi	r25, 0x62	; 98
    15a0:	22 e0       	ldi	r18, 0x02	; 2
		  break;
    15a2:	85 c1       	rjmp	.+778    	; 0x18ae <read_MQ7+0x45c>
		  case	32	: ppm =	581	;
    15a4:	95 e4       	ldi	r25, 0x45	; 69
    15a6:	22 e0       	ldi	r18, 0x02	; 2
		  break;
    15a8:	82 c1       	rjmp	.+772    	; 0x18ae <read_MQ7+0x45c>
		  case	33	: ppm =	554	;
    15aa:	9a e2       	ldi	r25, 0x2A	; 42
    15ac:	22 e0       	ldi	r18, 0x02	; 2
		  break;
    15ae:	7f c1       	rjmp	.+766    	; 0x18ae <read_MQ7+0x45c>
		  case	34	: ppm =	529	;
    15b0:	91 e1       	ldi	r25, 0x11	; 17
    15b2:	22 e0       	ldi	r18, 0x02	; 2
		  break;
    15b4:	7c c1       	rjmp	.+760    	; 0x18ae <read_MQ7+0x45c>
		  case	35	: ppm =	506	;
    15b6:	9a ef       	ldi	r25, 0xFA	; 250
    15b8:	21 e0       	ldi	r18, 0x01	; 1
		  break;
    15ba:	79 c1       	rjmp	.+754    	; 0x18ae <read_MQ7+0x45c>
		  case	36	: ppm =	484	;
    15bc:	94 ee       	ldi	r25, 0xE4	; 228
    15be:	21 e0       	ldi	r18, 0x01	; 1
		  break;
    15c0:	76 c1       	rjmp	.+748    	; 0x18ae <read_MQ7+0x45c>
		  case	37	: ppm =	464	;
    15c2:	90 ed       	ldi	r25, 0xD0	; 208
    15c4:	21 e0       	ldi	r18, 0x01	; 1
		  break;
    15c6:	73 c1       	rjmp	.+742    	; 0x18ae <read_MQ7+0x45c>
		  case	38	: ppm =	445	;
    15c8:	9d eb       	ldi	r25, 0xBD	; 189
    15ca:	21 e0       	ldi	r18, 0x01	; 1
		  break;
    15cc:	70 c1       	rjmp	.+736    	; 0x18ae <read_MQ7+0x45c>
		  case	39	: ppm =	428	;
    15ce:	9c ea       	ldi	r25, 0xAC	; 172
    15d0:	21 e0       	ldi	r18, 0x01	; 1
		  break;
    15d2:	6d c1       	rjmp	.+730    	; 0x18ae <read_MQ7+0x45c>
		  case	40	: ppm =	412	;
    15d4:	9c e9       	ldi	r25, 0x9C	; 156
    15d6:	21 e0       	ldi	r18, 0x01	; 1
		  break;
    15d8:	6a c1       	rjmp	.+724    	; 0x18ae <read_MQ7+0x45c>
		  case	41	: ppm =	396	;
    15da:	9c e8       	ldi	r25, 0x8C	; 140
    15dc:	21 e0       	ldi	r18, 0x01	; 1
		  break;
    15de:	67 c1       	rjmp	.+718    	; 0x18ae <read_MQ7+0x45c>
		  case	42	: ppm =	382	;
    15e0:	9e e7       	ldi	r25, 0x7E	; 126
    15e2:	21 e0       	ldi	r18, 0x01	; 1
		  break;
    15e4:	64 c1       	rjmp	.+712    	; 0x18ae <read_MQ7+0x45c>
		  case	43	: ppm =	368	;
    15e6:	90 e7       	ldi	r25, 0x70	; 112
    15e8:	21 e0       	ldi	r18, 0x01	; 1
		  break;
    15ea:	61 c1       	rjmp	.+706    	; 0x18ae <read_MQ7+0x45c>
		  case	44	: ppm =	355	;
    15ec:	93 e6       	ldi	r25, 0x63	; 99
    15ee:	21 e0       	ldi	r18, 0x01	; 1
		  break;
    15f0:	5e c1       	rjmp	.+700    	; 0x18ae <read_MQ7+0x45c>
		  case	45	: ppm =	343	;
    15f2:	97 e5       	ldi	r25, 0x57	; 87
    15f4:	21 e0       	ldi	r18, 0x01	; 1
		  break;
    15f6:	5b c1       	rjmp	.+694    	; 0x18ae <read_MQ7+0x45c>
		  case	46	: ppm =	332	;
    15f8:	9c e4       	ldi	r25, 0x4C	; 76
    15fa:	21 e0       	ldi	r18, 0x01	; 1
		  break;
    15fc:	58 c1       	rjmp	.+688    	; 0x18ae <read_MQ7+0x45c>
		  case	47	: ppm =	321	;
    15fe:	91 e4       	ldi	r25, 0x41	; 65
    1600:	21 e0       	ldi	r18, 0x01	; 1
		  break;
    1602:	55 c1       	rjmp	.+682    	; 0x18ae <read_MQ7+0x45c>
		  case	48	: ppm =	311	;
    1604:	97 e3       	ldi	r25, 0x37	; 55
    1606:	21 e0       	ldi	r18, 0x01	; 1
		  break;
    1608:	52 c1       	rjmp	.+676    	; 0x18ae <read_MQ7+0x45c>
		  case	49	: ppm =	301	;
    160a:	9d e2       	ldi	r25, 0x2D	; 45
    160c:	21 e0       	ldi	r18, 0x01	; 1
		  break;
    160e:	4f c1       	rjmp	.+670    	; 0x18ae <read_MQ7+0x45c>
		  case	50	: ppm =	292	;
    1610:	94 e2       	ldi	r25, 0x24	; 36
    1612:	21 e0       	ldi	r18, 0x01	; 1
		  break;
    1614:	4c c1       	rjmp	.+664    	; 0x18ae <read_MQ7+0x45c>
		  case	51	: ppm =	283	;
    1616:	9b e1       	ldi	r25, 0x1B	; 27
    1618:	21 e0       	ldi	r18, 0x01	; 1
		  break;
    161a:	49 c1       	rjmp	.+658    	; 0x18ae <read_MQ7+0x45c>
		  case	52	: ppm =	275	;
    161c:	93 e1       	ldi	r25, 0x13	; 19
    161e:	21 e0       	ldi	r18, 0x01	; 1
		  break;
    1620:	46 c1       	rjmp	.+652    	; 0x18ae <read_MQ7+0x45c>
		  case	53	: ppm =	267	;
    1622:	9b e0       	ldi	r25, 0x0B	; 11
    1624:	21 e0       	ldi	r18, 0x01	; 1
		  break;
    1626:	43 c1       	rjmp	.+646    	; 0x18ae <read_MQ7+0x45c>
		  case	54	: ppm =	259	;
    1628:	93 e0       	ldi	r25, 0x03	; 3
    162a:	21 e0       	ldi	r18, 0x01	; 1
		  break;
    162c:	40 c1       	rjmp	.+640    	; 0x18ae <read_MQ7+0x45c>
		  case	55	: ppm =	252	;
    162e:	9c ef       	ldi	r25, 0xFC	; 252
    1630:	20 e0       	ldi	r18, 0x00	; 0
		  break;
    1632:	3d c1       	rjmp	.+634    	; 0x18ae <read_MQ7+0x45c>
		  case	56	: ppm =	245	;
    1634:	95 ef       	ldi	r25, 0xF5	; 245
    1636:	20 e0       	ldi	r18, 0x00	; 0
		  break;
    1638:	3a c1       	rjmp	.+628    	; 0x18ae <read_MQ7+0x45c>
		  case	57	: ppm =	238	;
    163a:	9e ee       	ldi	r25, 0xEE	; 238
    163c:	20 e0       	ldi	r18, 0x00	; 0
		  break;
    163e:	37 c1       	rjmp	.+622    	; 0x18ae <read_MQ7+0x45c>
		  case	58	: ppm =	232	;
    1640:	98 ee       	ldi	r25, 0xE8	; 232
    1642:	20 e0       	ldi	r18, 0x00	; 0
		  break;
    1644:	34 c1       	rjmp	.+616    	; 0x18ae <read_MQ7+0x45c>
		  case	59	: ppm =	226	;
    1646:	92 ee       	ldi	r25, 0xE2	; 226
    1648:	20 e0       	ldi	r18, 0x00	; 0
		  break;
    164a:	31 c1       	rjmp	.+610    	; 0x18ae <read_MQ7+0x45c>
		  case	60	: ppm =	220	;
    164c:	9c ed       	ldi	r25, 0xDC	; 220
    164e:	20 e0       	ldi	r18, 0x00	; 0
		  break;
    1650:	2e c1       	rjmp	.+604    	; 0x18ae <read_MQ7+0x45c>
		  case	61	: ppm =	215	;
    1652:	97 ed       	ldi	r25, 0xD7	; 215
    1654:	20 e0       	ldi	r18, 0x00	; 0
		  break;
    1656:	2b c1       	rjmp	.+598    	; 0x18ae <read_MQ7+0x45c>
		  case	62	: ppm =	209	;
    1658:	91 ed       	ldi	r25, 0xD1	; 209
    165a:	20 e0       	ldi	r18, 0x00	; 0
		  break;
    165c:	28 c1       	rjmp	.+592    	; 0x18ae <read_MQ7+0x45c>
		  case	63	: ppm =	204	;
    165e:	9c ec       	ldi	r25, 0xCC	; 204
    1660:	20 e0       	ldi	r18, 0x00	; 0
		  break;
    1662:	25 c1       	rjmp	.+586    	; 0x18ae <read_MQ7+0x45c>
		  case	64	: ppm =	199	;
    1664:	97 ec       	ldi	r25, 0xC7	; 199
    1666:	20 e0       	ldi	r18, 0x00	; 0
		  break;
    1668:	22 c1       	rjmp	.+580    	; 0x18ae <read_MQ7+0x45c>
		  case	65	: ppm =	195	;
    166a:	93 ec       	ldi	r25, 0xC3	; 195
    166c:	20 e0       	ldi	r18, 0x00	; 0
		  break;
    166e:	1f c1       	rjmp	.+574    	; 0x18ae <read_MQ7+0x45c>
		  case	66	: ppm =	190	;
    1670:	9e eb       	ldi	r25, 0xBE	; 190
    1672:	20 e0       	ldi	r18, 0x00	; 0
		  break;
    1674:	1c c1       	rjmp	.+568    	; 0x18ae <read_MQ7+0x45c>
		  case	67	: ppm =	186	;
    1676:	9a eb       	ldi	r25, 0xBA	; 186
    1678:	20 e0       	ldi	r18, 0x00	; 0
		  break;
    167a:	19 c1       	rjmp	.+562    	; 0x18ae <read_MQ7+0x45c>
		  case	68	: ppm =	181	;
    167c:	95 eb       	ldi	r25, 0xB5	; 181
    167e:	20 e0       	ldi	r18, 0x00	; 0
		  break;
    1680:	16 c1       	rjmp	.+556    	; 0x18ae <read_MQ7+0x45c>
		  case	69	: ppm =	177	;
    1682:	91 eb       	ldi	r25, 0xB1	; 177
    1684:	20 e0       	ldi	r18, 0x00	; 0
		  break;
    1686:	13 c1       	rjmp	.+550    	; 0x18ae <read_MQ7+0x45c>
		  case	70	: ppm =	174	;
    1688:	9e ea       	ldi	r25, 0xAE	; 174
    168a:	20 e0       	ldi	r18, 0x00	; 0
		  break;
    168c:	10 c1       	rjmp	.+544    	; 0x18ae <read_MQ7+0x45c>
		  case	71	: ppm =	170	;
    168e:	9a ea       	ldi	r25, 0xAA	; 170
    1690:	20 e0       	ldi	r18, 0x00	; 0
		  break;
    1692:	0d c1       	rjmp	.+538    	; 0x18ae <read_MQ7+0x45c>
		  case	72	: ppm =	166	;
    1694:	96 ea       	ldi	r25, 0xA6	; 166
    1696:	20 e0       	ldi	r18, 0x00	; 0
		  break;
    1698:	0a c1       	rjmp	.+532    	; 0x18ae <read_MQ7+0x45c>
		  case	73	: ppm =	163	;
    169a:	93 ea       	ldi	r25, 0xA3	; 163
    169c:	20 e0       	ldi	r18, 0x00	; 0
		  break;
    169e:	07 c1       	rjmp	.+526    	; 0x18ae <read_MQ7+0x45c>
		  case	74	: ppm =	159	;
    16a0:	9f e9       	ldi	r25, 0x9F	; 159
    16a2:	20 e0       	ldi	r18, 0x00	; 0
		  break;
    16a4:	04 c1       	rjmp	.+520    	; 0x18ae <read_MQ7+0x45c>
		  case	75	: ppm =	156	;
    16a6:	9c e9       	ldi	r25, 0x9C	; 156
    16a8:	20 e0       	ldi	r18, 0x00	; 0
		  break;
    16aa:	01 c1       	rjmp	.+514    	; 0x18ae <read_MQ7+0x45c>
		  case	76	: ppm =	153	;
    16ac:	99 e9       	ldi	r25, 0x99	; 153
    16ae:	20 e0       	ldi	r18, 0x00	; 0
		  break;
    16b0:	fe c0       	rjmp	.+508    	; 0x18ae <read_MQ7+0x45c>
		  case	77	: ppm =	150	;
    16b2:	96 e9       	ldi	r25, 0x96	; 150
    16b4:	20 e0       	ldi	r18, 0x00	; 0
		  break;
    16b6:	fb c0       	rjmp	.+502    	; 0x18ae <read_MQ7+0x45c>
		  case	78	: ppm =	147	;
    16b8:	93 e9       	ldi	r25, 0x93	; 147
    16ba:	20 e0       	ldi	r18, 0x00	; 0
		  break;
    16bc:	f8 c0       	rjmp	.+496    	; 0x18ae <read_MQ7+0x45c>
		  case	79	: ppm =	144	;
    16be:	90 e9       	ldi	r25, 0x90	; 144
    16c0:	20 e0       	ldi	r18, 0x00	; 0
		  break;
    16c2:	f5 c0       	rjmp	.+490    	; 0x18ae <read_MQ7+0x45c>
		  case	80	: ppm =	141	;
    16c4:	9d e8       	ldi	r25, 0x8D	; 141
    16c6:	20 e0       	ldi	r18, 0x00	; 0
		  break;
    16c8:	f2 c0       	rjmp	.+484    	; 0x18ae <read_MQ7+0x45c>
		  case	81	: ppm =	139	;
    16ca:	9b e8       	ldi	r25, 0x8B	; 139
    16cc:	20 e0       	ldi	r18, 0x00	; 0
		  break;
    16ce:	ef c0       	rjmp	.+478    	; 0x18ae <read_MQ7+0x45c>
		  case	82	: ppm =	136	;
    16d0:	98 e8       	ldi	r25, 0x88	; 136
    16d2:	20 e0       	ldi	r18, 0x00	; 0
		  break;
    16d4:	ec c0       	rjmp	.+472    	; 0x18ae <read_MQ7+0x45c>
		  case	83	: ppm =	133	;
    16d6:	95 e8       	ldi	r25, 0x85	; 133
    16d8:	20 e0       	ldi	r18, 0x00	; 0
		  break;
    16da:	e9 c0       	rjmp	.+466    	; 0x18ae <read_MQ7+0x45c>
		  case	84	: ppm =	131	;
    16dc:	93 e8       	ldi	r25, 0x83	; 131
    16de:	20 e0       	ldi	r18, 0x00	; 0
		  break;
    16e0:	e6 c0       	rjmp	.+460    	; 0x18ae <read_MQ7+0x45c>
		  case	85	: ppm =	129	;
    16e2:	91 e8       	ldi	r25, 0x81	; 129
    16e4:	20 e0       	ldi	r18, 0x00	; 0
		  break;
    16e6:	e3 c0       	rjmp	.+454    	; 0x18ae <read_MQ7+0x45c>
		  case	86	: ppm =	126	;
    16e8:	9e e7       	ldi	r25, 0x7E	; 126
    16ea:	20 e0       	ldi	r18, 0x00	; 0
		  break;
    16ec:	e0 c0       	rjmp	.+448    	; 0x18ae <read_MQ7+0x45c>
		  case	87	: ppm =	124	;
    16ee:	9c e7       	ldi	r25, 0x7C	; 124
    16f0:	20 e0       	ldi	r18, 0x00	; 0
		  break;
    16f2:	dd c0       	rjmp	.+442    	; 0x18ae <read_MQ7+0x45c>
		  case	88	: ppm =	122	;
    16f4:	9a e7       	ldi	r25, 0x7A	; 122
    16f6:	20 e0       	ldi	r18, 0x00	; 0
		  break;
    16f8:	da c0       	rjmp	.+436    	; 0x18ae <read_MQ7+0x45c>
		  case	89	: ppm =	120	;
    16fa:	98 e7       	ldi	r25, 0x78	; 120
    16fc:	20 e0       	ldi	r18, 0x00	; 0
		  break;
    16fe:	d7 c0       	rjmp	.+430    	; 0x18ae <read_MQ7+0x45c>
		  case	90	: ppm =	118	;
    1700:	96 e7       	ldi	r25, 0x76	; 118
    1702:	20 e0       	ldi	r18, 0x00	; 0
		  break;
    1704:	d4 c0       	rjmp	.+424    	; 0x18ae <read_MQ7+0x45c>
		  case	91	: ppm =	116	;
    1706:	94 e7       	ldi	r25, 0x74	; 116
    1708:	20 e0       	ldi	r18, 0x00	; 0
		  break;
    170a:	d1 c0       	rjmp	.+418    	; 0x18ae <read_MQ7+0x45c>
		  case	92	: ppm =	114	;
    170c:	92 e7       	ldi	r25, 0x72	; 114
    170e:	20 e0       	ldi	r18, 0x00	; 0
		  break;
    1710:	ce c0       	rjmp	.+412    	; 0x18ae <read_MQ7+0x45c>
		  case	93	: ppm =	112	;
    1712:	90 e7       	ldi	r25, 0x70	; 112
    1714:	20 e0       	ldi	r18, 0x00	; 0
		  break;
    1716:	cb c0       	rjmp	.+406    	; 0x18ae <read_MQ7+0x45c>
		  case	94	: ppm =	110	;
    1718:	9e e6       	ldi	r25, 0x6E	; 110
    171a:	20 e0       	ldi	r18, 0x00	; 0
		  break;
    171c:	c8 c0       	rjmp	.+400    	; 0x18ae <read_MQ7+0x45c>
		  case	95	: ppm =	108	;
    171e:	9c e6       	ldi	r25, 0x6C	; 108
    1720:	20 e0       	ldi	r18, 0x00	; 0
		  break;
    1722:	c5 c0       	rjmp	.+394    	; 0x18ae <read_MQ7+0x45c>
		  case	96	: ppm =	107	;
    1724:	9b e6       	ldi	r25, 0x6B	; 107
    1726:	20 e0       	ldi	r18, 0x00	; 0
		  break;
    1728:	c2 c0       	rjmp	.+388    	; 0x18ae <read_MQ7+0x45c>
		  case	97	: ppm =	105	;
    172a:	99 e6       	ldi	r25, 0x69	; 105
    172c:	20 e0       	ldi	r18, 0x00	; 0
		  break;
    172e:	bf c0       	rjmp	.+382    	; 0x18ae <read_MQ7+0x45c>
		  case	98	: ppm =	103	;
    1730:	97 e6       	ldi	r25, 0x67	; 103
    1732:	20 e0       	ldi	r18, 0x00	; 0
		  break;
    1734:	bc c0       	rjmp	.+376    	; 0x18ae <read_MQ7+0x45c>
		  case	99	: ppm =	102	;
    1736:	96 e6       	ldi	r25, 0x66	; 102
    1738:	20 e0       	ldi	r18, 0x00	; 0
		  break;
    173a:	b9 c0       	rjmp	.+370    	; 0x18ae <read_MQ7+0x45c>
		  case	100	: ppm =	100	;
    173c:	94 e6       	ldi	r25, 0x64	; 100
    173e:	20 e0       	ldi	r18, 0x00	; 0
		  break;
    1740:	b6 c0       	rjmp	.+364    	; 0x18ae <read_MQ7+0x45c>
		  case	101	: ppm =	99	;
    1742:	93 e6       	ldi	r25, 0x63	; 99
    1744:	20 e0       	ldi	r18, 0x00	; 0
		  break;
    1746:	b3 c0       	rjmp	.+358    	; 0x18ae <read_MQ7+0x45c>
		  case	102	: ppm =	97	;
    1748:	91 e6       	ldi	r25, 0x61	; 97
    174a:	20 e0       	ldi	r18, 0x00	; 0
		  break;
    174c:	b0 c0       	rjmp	.+352    	; 0x18ae <read_MQ7+0x45c>
		  case	103	: ppm =	96	;
    174e:	90 e6       	ldi	r25, 0x60	; 96
    1750:	20 e0       	ldi	r18, 0x00	; 0
		  break;
    1752:	ad c0       	rjmp	.+346    	; 0x18ae <read_MQ7+0x45c>
		  case	104	: ppm =	94	;
    1754:	9e e5       	ldi	r25, 0x5E	; 94
    1756:	20 e0       	ldi	r18, 0x00	; 0
		  break;
    1758:	aa c0       	rjmp	.+340    	; 0x18ae <read_MQ7+0x45c>
		  case	105	: ppm =	93	;
    175a:	9d e5       	ldi	r25, 0x5D	; 93
    175c:	20 e0       	ldi	r18, 0x00	; 0
		  break;
    175e:	a7 c0       	rjmp	.+334    	; 0x18ae <read_MQ7+0x45c>
		  case	106	: ppm =	91	;
    1760:	9b e5       	ldi	r25, 0x5B	; 91
    1762:	20 e0       	ldi	r18, 0x00	; 0
		  break;
    1764:	a4 c0       	rjmp	.+328    	; 0x18ae <read_MQ7+0x45c>
		  case	107	: ppm =	90	;
    1766:	9a e5       	ldi	r25, 0x5A	; 90
    1768:	20 e0       	ldi	r18, 0x00	; 0
		  break;
    176a:	a1 c0       	rjmp	.+322    	; 0x18ae <read_MQ7+0x45c>
		  case	108	: ppm =	89	;
    176c:	99 e5       	ldi	r25, 0x59	; 89
    176e:	20 e0       	ldi	r18, 0x00	; 0
		  break;
    1770:	9e c0       	rjmp	.+316    	; 0x18ae <read_MQ7+0x45c>
		  case	109	: ppm =	88	;
    1772:	98 e5       	ldi	r25, 0x58	; 88
    1774:	20 e0       	ldi	r18, 0x00	; 0
		  break;
    1776:	9b c0       	rjmp	.+310    	; 0x18ae <read_MQ7+0x45c>
		  case	110	: ppm =	86	;
    1778:	96 e5       	ldi	r25, 0x56	; 86
    177a:	20 e0       	ldi	r18, 0x00	; 0
		  break;
    177c:	98 c0       	rjmp	.+304    	; 0x18ae <read_MQ7+0x45c>
		  case	111	: ppm =	85	;
    177e:	95 e5       	ldi	r25, 0x55	; 85
    1780:	20 e0       	ldi	r18, 0x00	; 0
		  break;
    1782:	95 c0       	rjmp	.+298    	; 0x18ae <read_MQ7+0x45c>
		  case	112	: ppm =	84	;
    1784:	94 e5       	ldi	r25, 0x54	; 84
    1786:	20 e0       	ldi	r18, 0x00	; 0
		  break;
    1788:	92 c0       	rjmp	.+292    	; 0x18ae <read_MQ7+0x45c>
		  case	113	: ppm =	83	;
    178a:	93 e5       	ldi	r25, 0x53	; 83
    178c:	20 e0       	ldi	r18, 0x00	; 0
		  break;
    178e:	8f c0       	rjmp	.+286    	; 0x18ae <read_MQ7+0x45c>
		  case	114	: ppm =	82	;
    1790:	92 e5       	ldi	r25, 0x52	; 82
    1792:	20 e0       	ldi	r18, 0x00	; 0
		  break;
    1794:	8c c0       	rjmp	.+280    	; 0x18ae <read_MQ7+0x45c>
		  case	115	: ppm =	81	;
    1796:	91 e5       	ldi	r25, 0x51	; 81
    1798:	20 e0       	ldi	r18, 0x00	; 0
		  break;
    179a:	89 c0       	rjmp	.+274    	; 0x18ae <read_MQ7+0x45c>
		  case	116	: ppm =	80	;
    179c:	90 e5       	ldi	r25, 0x50	; 80
    179e:	20 e0       	ldi	r18, 0x00	; 0
		  break;
    17a0:	86 c0       	rjmp	.+268    	; 0x18ae <read_MQ7+0x45c>
		  case	117	: ppm =	79	;
    17a2:	9f e4       	ldi	r25, 0x4F	; 79
    17a4:	20 e0       	ldi	r18, 0x00	; 0
		  break;
    17a6:	83 c0       	rjmp	.+262    	; 0x18ae <read_MQ7+0x45c>
		  case	118	: ppm =	78	;
    17a8:	9e e4       	ldi	r25, 0x4E	; 78
    17aa:	20 e0       	ldi	r18, 0x00	; 0
		  break;
    17ac:	80 c0       	rjmp	.+256    	; 0x18ae <read_MQ7+0x45c>
		  case	119	: ppm =	77	;
    17ae:	9d e4       	ldi	r25, 0x4D	; 77
    17b0:	20 e0       	ldi	r18, 0x00	; 0
		  break;
    17b2:	7d c0       	rjmp	.+250    	; 0x18ae <read_MQ7+0x45c>
		  case	120	: ppm =	76	;
    17b4:	9c e4       	ldi	r25, 0x4C	; 76
    17b6:	20 e0       	ldi	r18, 0x00	; 0
		  break;
    17b8:	7a c0       	rjmp	.+244    	; 0x18ae <read_MQ7+0x45c>
		  case	121	: ppm =	75	;
    17ba:	9b e4       	ldi	r25, 0x4B	; 75
    17bc:	20 e0       	ldi	r18, 0x00	; 0
		  break;
    17be:	77 c0       	rjmp	.+238    	; 0x18ae <read_MQ7+0x45c>
		  case	122	: ppm =	74	;
    17c0:	9a e4       	ldi	r25, 0x4A	; 74
    17c2:	20 e0       	ldi	r18, 0x00	; 0
		  break;
    17c4:	74 c0       	rjmp	.+232    	; 0x18ae <read_MQ7+0x45c>
		  case	123	: ppm =	73	;
    17c6:	99 e4       	ldi	r25, 0x49	; 73
    17c8:	20 e0       	ldi	r18, 0x00	; 0
		  break;
    17ca:	71 c0       	rjmp	.+226    	; 0x18ae <read_MQ7+0x45c>
		  case	124	: ppm =	72	;
    17cc:	98 e4       	ldi	r25, 0x48	; 72
    17ce:	20 e0       	ldi	r18, 0x00	; 0
		  break;
    17d0:	6e c0       	rjmp	.+220    	; 0x18ae <read_MQ7+0x45c>
		  case	125	: ppm =	71	;
    17d2:	97 e4       	ldi	r25, 0x47	; 71
    17d4:	20 e0       	ldi	r18, 0x00	; 0
		  break;
    17d6:	6b c0       	rjmp	.+214    	; 0x18ae <read_MQ7+0x45c>
		  case	126	: ppm =	70	;
    17d8:	96 e4       	ldi	r25, 0x46	; 70
    17da:	20 e0       	ldi	r18, 0x00	; 0
		  break;
    17dc:	68 c0       	rjmp	.+208    	; 0x18ae <read_MQ7+0x45c>
		  case	127	: ppm =	69	;
    17de:	95 e4       	ldi	r25, 0x45	; 69
    17e0:	20 e0       	ldi	r18, 0x00	; 0
		  break;
    17e2:	65 c0       	rjmp	.+202    	; 0x18ae <read_MQ7+0x45c>
		  case	128	: ppm =	68	;
    17e4:	94 e4       	ldi	r25, 0x44	; 68
    17e6:	20 e0       	ldi	r18, 0x00	; 0
		  break;
    17e8:	62 c0       	rjmp	.+196    	; 0x18ae <read_MQ7+0x45c>
		  case	129	: ppm =	68	;
    17ea:	94 e4       	ldi	r25, 0x44	; 68
    17ec:	20 e0       	ldi	r18, 0x00	; 0
		  break;
    17ee:	5f c0       	rjmp	.+190    	; 0x18ae <read_MQ7+0x45c>
		  case	130	: ppm =	67	;
    17f0:	93 e4       	ldi	r25, 0x43	; 67
    17f2:	20 e0       	ldi	r18, 0x00	; 0
		  break;
    17f4:	5c c0       	rjmp	.+184    	; 0x18ae <read_MQ7+0x45c>
		  case	131	: ppm =	66	;
    17f6:	92 e4       	ldi	r25, 0x42	; 66
    17f8:	20 e0       	ldi	r18, 0x00	; 0
		  break;
    17fa:	59 c0       	rjmp	.+178    	; 0x18ae <read_MQ7+0x45c>
		  case	132	: ppm =	65	;
    17fc:	91 e4       	ldi	r25, 0x41	; 65
    17fe:	20 e0       	ldi	r18, 0x00	; 0
		  break;
    1800:	56 c0       	rjmp	.+172    	; 0x18ae <read_MQ7+0x45c>
		  case	133	: ppm =	64	;
    1802:	90 e4       	ldi	r25, 0x40	; 64
    1804:	20 e0       	ldi	r18, 0x00	; 0
		  break;
    1806:	53 c0       	rjmp	.+166    	; 0x18ae <read_MQ7+0x45c>
		  case	134	: ppm =	64	;
    1808:	90 e4       	ldi	r25, 0x40	; 64
    180a:	20 e0       	ldi	r18, 0x00	; 0
		  break;
    180c:	50 c0       	rjmp	.+160    	; 0x18ae <read_MQ7+0x45c>
		  case	135	: ppm =	63	;
    180e:	9f e3       	ldi	r25, 0x3F	; 63
    1810:	20 e0       	ldi	r18, 0x00	; 0
		  break;
    1812:	4d c0       	rjmp	.+154    	; 0x18ae <read_MQ7+0x45c>
		  case	136	: ppm =	62	;
    1814:	9e e3       	ldi	r25, 0x3E	; 62
    1816:	20 e0       	ldi	r18, 0x00	; 0
		  break;
    1818:	4a c0       	rjmp	.+148    	; 0x18ae <read_MQ7+0x45c>
		  case	137	: ppm =	62	;
    181a:	9e e3       	ldi	r25, 0x3E	; 62
    181c:	20 e0       	ldi	r18, 0x00	; 0
		  break;
    181e:	47 c0       	rjmp	.+142    	; 0x18ae <read_MQ7+0x45c>
		  case	138	: ppm =	61	;
    1820:	9d e3       	ldi	r25, 0x3D	; 61
    1822:	20 e0       	ldi	r18, 0x00	; 0
		  break;
    1824:	44 c0       	rjmp	.+136    	; 0x18ae <read_MQ7+0x45c>
		  case	139	: ppm =	60	;
    1826:	9c e3       	ldi	r25, 0x3C	; 60
    1828:	20 e0       	ldi	r18, 0x00	; 0
		  break;
    182a:	41 c0       	rjmp	.+130    	; 0x18ae <read_MQ7+0x45c>
		  case	140	: ppm =	60	;
    182c:	9c e3       	ldi	r25, 0x3C	; 60
    182e:	20 e0       	ldi	r18, 0x00	; 0
		  break;
    1830:	3e c0       	rjmp	.+124    	; 0x18ae <read_MQ7+0x45c>
		  case	141	: ppm =	59	;
    1832:	9b e3       	ldi	r25, 0x3B	; 59
    1834:	20 e0       	ldi	r18, 0x00	; 0
		  break;
    1836:	3b c0       	rjmp	.+118    	; 0x18ae <read_MQ7+0x45c>
		  case	142	: ppm =	58	;
    1838:	9a e3       	ldi	r25, 0x3A	; 58
    183a:	20 e0       	ldi	r18, 0x00	; 0
		  break;
    183c:	38 c0       	rjmp	.+112    	; 0x18ae <read_MQ7+0x45c>
		  case	143	: ppm =	58	;
    183e:	9a e3       	ldi	r25, 0x3A	; 58
    1840:	20 e0       	ldi	r18, 0x00	; 0
		  break;
    1842:	35 c0       	rjmp	.+106    	; 0x18ae <read_MQ7+0x45c>
		  case	144	: ppm =	57	;
    1844:	99 e3       	ldi	r25, 0x39	; 57
    1846:	20 e0       	ldi	r18, 0x00	; 0
		  break;
    1848:	32 c0       	rjmp	.+100    	; 0x18ae <read_MQ7+0x45c>
		  case	145	: ppm =	56	;
    184a:	98 e3       	ldi	r25, 0x38	; 56
    184c:	20 e0       	ldi	r18, 0x00	; 0
		  break;
    184e:	2f c0       	rjmp	.+94     	; 0x18ae <read_MQ7+0x45c>
		  case	146	: ppm =	56	;
    1850:	98 e3       	ldi	r25, 0x38	; 56
    1852:	20 e0       	ldi	r18, 0x00	; 0
		  break;
    1854:	2c c0       	rjmp	.+88     	; 0x18ae <read_MQ7+0x45c>
		  case	147	: ppm =	55	;
    1856:	97 e3       	ldi	r25, 0x37	; 55
    1858:	20 e0       	ldi	r18, 0x00	; 0
		  break;
    185a:	29 c0       	rjmp	.+82     	; 0x18ae <read_MQ7+0x45c>
		  case	148	: ppm =	55	;
    185c:	97 e3       	ldi	r25, 0x37	; 55
    185e:	20 e0       	ldi	r18, 0x00	; 0
		  break;
    1860:	26 c0       	rjmp	.+76     	; 0x18ae <read_MQ7+0x45c>
		  case	149	: ppm =	54	;
    1862:	96 e3       	ldi	r25, 0x36	; 54
    1864:	20 e0       	ldi	r18, 0x00	; 0
		  break;
    1866:	23 c0       	rjmp	.+70     	; 0x18ae <read_MQ7+0x45c>
		  case	150	: ppm =	54	;
    1868:	96 e3       	ldi	r25, 0x36	; 54
    186a:	20 e0       	ldi	r18, 0x00	; 0
		  break;
    186c:	20 c0       	rjmp	.+64     	; 0x18ae <read_MQ7+0x45c>
		  case	151	: ppm =	53	;
    186e:	95 e3       	ldi	r25, 0x35	; 53
    1870:	20 e0       	ldi	r18, 0x00	; 0
		  break;
    1872:	1d c0       	rjmp	.+58     	; 0x18ae <read_MQ7+0x45c>
		  case	152	: ppm =	52	;
    1874:	94 e3       	ldi	r25, 0x34	; 52
    1876:	20 e0       	ldi	r18, 0x00	; 0
		  break;
    1878:	1a c0       	rjmp	.+52     	; 0x18ae <read_MQ7+0x45c>
		  case	153	: ppm =	52	;
    187a:	94 e3       	ldi	r25, 0x34	; 52
    187c:	20 e0       	ldi	r18, 0x00	; 0
		  break;
    187e:	17 c0       	rjmp	.+46     	; 0x18ae <read_MQ7+0x45c>
		  case	154	: ppm =	51	;
    1880:	93 e3       	ldi	r25, 0x33	; 51
    1882:	20 e0       	ldi	r18, 0x00	; 0
		  break;
    1884:	14 c0       	rjmp	.+40     	; 0x18ae <read_MQ7+0x45c>
		  case	155	: ppm =	51	;
    1886:	93 e3       	ldi	r25, 0x33	; 51
    1888:	20 e0       	ldi	r18, 0x00	; 0
		  break;
    188a:	11 c0       	rjmp	.+34     	; 0x18ae <read_MQ7+0x45c>
		  case	156	: ppm =	50	;
    188c:	92 e3       	ldi	r25, 0x32	; 50
    188e:	20 e0       	ldi	r18, 0x00	; 0
		  break;
    1890:	0e c0       	rjmp	.+28     	; 0x18ae <read_MQ7+0x45c>
		  case	157	: ppm =	50	;
    1892:	92 e3       	ldi	r25, 0x32	; 50
    1894:	20 e0       	ldi	r18, 0x00	; 0
		  break;
    1896:	0b c0       	rjmp	.+22     	; 0x18ae <read_MQ7+0x45c>
		  case	158	: ppm =	49	;
    1898:	91 e3       	ldi	r25, 0x31	; 49
    189a:	20 e0       	ldi	r18, 0x00	; 0
		  break;
    189c:	08 c0       	rjmp	.+16     	; 0x18ae <read_MQ7+0x45c>
		  case	159	: ppm =	49	;
    189e:	91 e3       	ldi	r25, 0x31	; 49
    18a0:	20 e0       	ldi	r18, 0x00	; 0
		  break;
    18a2:	05 c0       	rjmp	.+10     	; 0x18ae <read_MQ7+0x45c>
		  default		: ppm = 0	;
    18a4:	90 e0       	ldi	r25, 0x00	; 0
    18a6:	20 e0       	ldi	r18, 0x00	; 0
    18a8:	02 c0       	rjmp	.+4      	; 0x18ae <read_MQ7+0x45c>
	}
	else
	{
		switch(rs)
		{
		  case	9	: ppm =	4112	;
    18aa:	90 e1       	ldi	r25, 0x10	; 16
    18ac:	20 e1       	ldi	r18, 0x10	; 16
		  case	159	: ppm =	49	;
		  break;
		  default		: ppm = 0	;
		}
	}
	strcat(buffer, "CO  : ");
    18ae:	d8 01       	movw	r26, r16
    18b0:	0d 90       	ld	r0, X+
    18b2:	00 20       	and	r0, r0
    18b4:	e9 f7       	brne	.-6      	; 0x18b0 <read_MQ7+0x45e>
    18b6:	11 97       	sbiw	r26, 0x01	; 1
    18b8:	87 e0       	ldi	r24, 0x07	; 7
    18ba:	ec e8       	ldi	r30, 0x8C	; 140
    18bc:	f2 e0       	ldi	r31, 0x02	; 2
    18be:	01 90       	ld	r0, Z+
    18c0:	0d 92       	st	X+, r0
    18c2:	8a 95       	dec	r24
    18c4:	e1 f7       	brne	.-8      	; 0x18be <read_MQ7+0x46c>
	sprintf(temp, "%d ppm\n", (int)ppm);
    18c6:	2f 93       	push	r18
    18c8:	9f 93       	push	r25
    18ca:	8b e3       	ldi	r24, 0x3B	; 59
    18cc:	92 e0       	ldi	r25, 0x02	; 2
    18ce:	9f 93       	push	r25
    18d0:	8f 93       	push	r24
    18d2:	ce 01       	movw	r24, r28
    18d4:	01 96       	adiw	r24, 0x01	; 1
    18d6:	7c 01       	movw	r14, r24
    18d8:	9f 93       	push	r25
    18da:	8f 93       	push	r24
    18dc:	5c d7       	rcall	.+3768   	; 0x2796 <sprintf>
	strcat(buffer, temp);
    18de:	b7 01       	movw	r22, r14
    18e0:	c8 01       	movw	r24, r16
    18e2:	3f d7       	rcall	.+3710   	; 0x2762 <strcat>
	return;
    18e4:	0f 90       	pop	r0
    18e6:	0f 90       	pop	r0
    18e8:	0f 90       	pop	r0
    18ea:	0f 90       	pop	r0
    18ec:	0f 90       	pop	r0
    18ee:	0f 90       	pop	r0
}
    18f0:	2a 96       	adiw	r28, 0x0a	; 10
    18f2:	0f b6       	in	r0, 0x3f	; 63
    18f4:	f8 94       	cli
    18f6:	de bf       	out	0x3e, r29	; 62
    18f8:	0f be       	out	0x3f, r0	; 63
    18fa:	cd bf       	out	0x3d, r28	; 61
    18fc:	df 91       	pop	r29
    18fe:	cf 91       	pop	r28
    1900:	1f 91       	pop	r17
    1902:	0f 91       	pop	r16
    1904:	ff 90       	pop	r15
    1906:	ef 90       	pop	r14
    1908:	df 90       	pop	r13
    190a:	cf 90       	pop	r12
    190c:	08 95       	ret

0000190e <usart_init>:

void usart_init(int n)
{
	switch(n)
    190e:	81 30       	cpi	r24, 0x01	; 1
    1910:	91 05       	cpc	r25, r1
    1912:	b9 f0       	breq	.+46     	; 0x1942 <usart_init+0x34>
    1914:	1c f4       	brge	.+6      	; 0x191c <usart_init+0xe>
    1916:	89 2b       	or	r24, r25
    1918:	39 f0       	breq	.+14     	; 0x1928 <usart_init+0x1a>
    191a:	08 95       	ret
    191c:	82 30       	cpi	r24, 0x02	; 2
    191e:	91 05       	cpc	r25, r1
    1920:	e9 f0       	breq	.+58     	; 0x195c <usart_init+0x4e>
    1922:	03 97       	sbiw	r24, 0x03	; 3
    1924:	41 f1       	breq	.+80     	; 0x1976 <usart_init+0x68>
    1926:	08 95       	ret
	{
		case 0:
			UCSR0B = (1<<TXEN0) | (1<<RXEN0) | (1<<RXCIE0); // TX Enable, RX Enable, RX Interrupt enabled
    1928:	88 e9       	ldi	r24, 0x98	; 152
    192a:	80 93 c1 00 	sts	0x00C1, r24
			UCSR0C = (1<<UCSZ01) | (1<<UCSZ00); // 8 bit data segment
    192e:	86 e0       	ldi	r24, 0x06	; 6
    1930:	80 93 c2 00 	sts	0x00C2, r24
			UBRR0 = 0x33; // Baud rate
    1934:	83 e3       	ldi	r24, 0x33	; 51
    1936:	90 e0       	ldi	r25, 0x00	; 0
    1938:	90 93 c5 00 	sts	0x00C5, r25
    193c:	80 93 c4 00 	sts	0x00C4, r24
			break;
    1940:	08 95       	ret
		case 1:
			UCSR1B = (1<<TXEN1) | (1<<RXEN1) | (1<<RXCIE1); // TX Enable, RX Enable, RX Interrupt enabled
    1942:	88 e9       	ldi	r24, 0x98	; 152
    1944:	80 93 c9 00 	sts	0x00C9, r24
			UCSR1C = (1<<UCSZ11) | (1<<UCSZ10); // 8 bit data segment
    1948:	86 e0       	ldi	r24, 0x06	; 6
    194a:	80 93 ca 00 	sts	0x00CA, r24
			UBRR1 = 0x33; // Baud rate
    194e:	83 e3       	ldi	r24, 0x33	; 51
    1950:	90 e0       	ldi	r25, 0x00	; 0
    1952:	90 93 cd 00 	sts	0x00CD, r25
    1956:	80 93 cc 00 	sts	0x00CC, r24
			break;
    195a:	08 95       	ret
		case 2:
			UCSR2B = (1<<TXEN2) | (1<<RXEN2) | (1<<RXCIE2); // TX Enable, RX Enable, RX Interrupt enabled
    195c:	88 e9       	ldi	r24, 0x98	; 152
    195e:	80 93 d1 00 	sts	0x00D1, r24
			UCSR2C = (1<<UCSZ21) | (1<<UCSZ20); // 8 bit data segment
    1962:	86 e0       	ldi	r24, 0x06	; 6
    1964:	80 93 d2 00 	sts	0x00D2, r24
			UBRR2 = 0x33; // Baud rate
    1968:	83 e3       	ldi	r24, 0x33	; 51
    196a:	90 e0       	ldi	r25, 0x00	; 0
    196c:	90 93 d5 00 	sts	0x00D5, r25
    1970:	80 93 d4 00 	sts	0x00D4, r24
			break;
    1974:	08 95       	ret
		case 3:
			UCSR3B = (1<<TXEN3) | (1<<RXEN3) | (1<<RXCIE3); // TX Enable, RX Enable, RX Interrupt enabled
    1976:	88 e9       	ldi	r24, 0x98	; 152
    1978:	80 93 31 01 	sts	0x0131, r24
			UCSR3C = (1<<UCSZ31) | (1<<UCSZ30); // 8 bit data segment
    197c:	86 e0       	ldi	r24, 0x06	; 6
    197e:	80 93 32 01 	sts	0x0132, r24
			UBRR3 = 0x33; // Baud rate
    1982:	83 e3       	ldi	r24, 0x33	; 51
    1984:	90 e0       	ldi	r25, 0x00	; 0
    1986:	90 93 35 01 	sts	0x0135, r25
    198a:	80 93 34 01 	sts	0x0134, r24
    198e:	08 95       	ret

00001990 <usart_send>:
		break;
	}
}

void usart_send (int n, char* data)
{
    1990:	cf 93       	push	r28
    1992:	df 93       	push	r29
    1994:	db 01       	movw	r26, r22
	switch(n)
    1996:	81 30       	cpi	r24, 0x01	; 1
    1998:	91 05       	cpc	r25, r1
    199a:	d1 f0       	breq	.+52     	; 0x19d0 <usart_send+0x40>
    199c:	1c f4       	brge	.+6      	; 0x19a4 <usart_send+0x14>
    199e:	89 2b       	or	r24, r25
    19a0:	f9 f0       	breq	.+62     	; 0x19e0 <usart_send+0x50>
    19a2:	79 c0       	rjmp	.+242    	; 0x1a96 <usart_send+0x106>
    19a4:	82 30       	cpi	r24, 0x02	; 2
    19a6:	91 05       	cpc	r25, r1
    19a8:	59 f0       	breq	.+22     	; 0x19c0 <usart_send+0x30>
    19aa:	03 97       	sbiw	r24, 0x03	; 3
    19ac:	09 f0       	breq	.+2      	; 0x19b0 <usart_send+0x20>
    19ae:	73 c0       	rjmp	.+230    	; 0x1a96 <usart_send+0x106>
    19b0:	ab 01       	movw	r20, r22
    19b2:	20 e0       	ldi	r18, 0x00	; 0
    19b4:	30 e0       	ldi	r19, 0x00	; 0
		}
		break;
		case 3:
		for(int i = 0; i < strlen(data); i++)
		{
			while (! (UCSR3A & (1<<UDRE3)));
    19b6:	e0 e3       	ldi	r30, 0x30	; 48
    19b8:	f1 e0       	ldi	r31, 0x01	; 1
			UDR3 = data[i];
    19ba:	66 e3       	ldi	r22, 0x36	; 54
    19bc:	71 e0       	ldi	r23, 0x01	; 1
    19be:	61 c0       	rjmp	.+194    	; 0x1a82 <usart_send+0xf2>
    19c0:	ab 01       	movw	r20, r22
	}
}

void usart_send (int n, char* data)
{
	switch(n)
    19c2:	20 e0       	ldi	r18, 0x00	; 0
    19c4:	30 e0       	ldi	r19, 0x00	; 0
		}
		break;
		case 2:
		for(int i = 0; i < strlen(data); i++)
		{
			while (! (UCSR2A & (1<<UDRE2)));
    19c6:	e0 ed       	ldi	r30, 0xD0	; 208
    19c8:	f0 e0       	ldi	r31, 0x00	; 0
			UDR2 = data[i];
    19ca:	66 ed       	ldi	r22, 0xD6	; 214
    19cc:	70 e0       	ldi	r23, 0x00	; 0
    19ce:	44 c0       	rjmp	.+136    	; 0x1a58 <usart_send+0xc8>
    19d0:	ab 01       	movw	r20, r22
	}
}

void usart_send (int n, char* data)
{
	switch(n)
    19d2:	20 e0       	ldi	r18, 0x00	; 0
    19d4:	30 e0       	ldi	r19, 0x00	; 0
			}
			break;
		case 1:
		for(int i = 0; i < strlen(data); i++)
		{
			while (! (UCSR1A & (1<<UDRE1)));
    19d6:	e8 ec       	ldi	r30, 0xC8	; 200
    19d8:	f0 e0       	ldi	r31, 0x00	; 0
			UDR1 = data[i];
    19da:	6e ec       	ldi	r22, 0xCE	; 206
    19dc:	70 e0       	ldi	r23, 0x00	; 0
    19de:	27 c0       	rjmp	.+78     	; 0x1a2e <usart_send+0x9e>
    19e0:	ab 01       	movw	r20, r22
	}
}

void usart_send (int n, char* data)
{
	switch(n)
    19e2:	20 e0       	ldi	r18, 0x00	; 0
    19e4:	30 e0       	ldi	r19, 0x00	; 0
	{
		case 0:
			for(int i = 0; i < strlen(data); i++)
			{
				while (! (UCSR0A & (1<<UDRE0)));
    19e6:	e0 ec       	ldi	r30, 0xC0	; 192
    19e8:	f0 e0       	ldi	r31, 0x00	; 0
				UDR0 = data[i];
    19ea:	66 ec       	ldi	r22, 0xC6	; 198
    19ec:	70 e0       	ldi	r23, 0x00	; 0
    19ee:	0a c0       	rjmp	.+20     	; 0x1a04 <usart_send+0x74>
	switch(n)
	{
		case 0:
			for(int i = 0; i < strlen(data); i++)
			{
				while (! (UCSR0A & (1<<UDRE0)));
    19f0:	80 81       	ld	r24, Z
    19f2:	85 ff       	sbrs	r24, 5
    19f4:	fd cf       	rjmp	.-6      	; 0x19f0 <usart_send+0x60>
				UDR0 = data[i];
    19f6:	ea 01       	movw	r28, r20
    19f8:	89 91       	ld	r24, Y+
    19fa:	ae 01       	movw	r20, r28
    19fc:	eb 01       	movw	r28, r22
    19fe:	88 83       	st	Y, r24
void usart_send (int n, char* data)
{
	switch(n)
	{
		case 0:
			for(int i = 0; i < strlen(data); i++)
    1a00:	2f 5f       	subi	r18, 0xFF	; 255
    1a02:	3f 4f       	sbci	r19, 0xFF	; 255
    1a04:	ed 01       	movw	r28, r26
    1a06:	09 90       	ld	r0, Y+
    1a08:	00 20       	and	r0, r0
    1a0a:	e9 f7       	brne	.-6      	; 0x1a06 <usart_send+0x76>
    1a0c:	21 97       	sbiw	r28, 0x01	; 1
    1a0e:	ca 1b       	sub	r28, r26
    1a10:	db 0b       	sbc	r29, r27
    1a12:	2c 17       	cp	r18, r28
    1a14:	3d 07       	cpc	r19, r29
    1a16:	60 f3       	brcs	.-40     	; 0x19f0 <usart_send+0x60>
    1a18:	3e c0       	rjmp	.+124    	; 0x1a96 <usart_send+0x106>
			}
			break;
		case 1:
		for(int i = 0; i < strlen(data); i++)
		{
			while (! (UCSR1A & (1<<UDRE1)));
    1a1a:	80 81       	ld	r24, Z
    1a1c:	85 ff       	sbrs	r24, 5
    1a1e:	fd cf       	rjmp	.-6      	; 0x1a1a <usart_send+0x8a>
			UDR1 = data[i];
    1a20:	ea 01       	movw	r28, r20
    1a22:	89 91       	ld	r24, Y+
    1a24:	ae 01       	movw	r20, r28
    1a26:	eb 01       	movw	r28, r22
    1a28:	88 83       	st	Y, r24
				while (! (UCSR0A & (1<<UDRE0)));
				UDR0 = data[i];
			}
			break;
		case 1:
		for(int i = 0; i < strlen(data); i++)
    1a2a:	2f 5f       	subi	r18, 0xFF	; 255
    1a2c:	3f 4f       	sbci	r19, 0xFF	; 255
    1a2e:	ed 01       	movw	r28, r26
    1a30:	09 90       	ld	r0, Y+
    1a32:	00 20       	and	r0, r0
    1a34:	e9 f7       	brne	.-6      	; 0x1a30 <usart_send+0xa0>
    1a36:	21 97       	sbiw	r28, 0x01	; 1
    1a38:	ca 1b       	sub	r28, r26
    1a3a:	db 0b       	sbc	r29, r27
    1a3c:	2c 17       	cp	r18, r28
    1a3e:	3d 07       	cpc	r19, r29
    1a40:	60 f3       	brcs	.-40     	; 0x1a1a <usart_send+0x8a>
    1a42:	29 c0       	rjmp	.+82     	; 0x1a96 <usart_send+0x106>
		}
		break;
		case 2:
		for(int i = 0; i < strlen(data); i++)
		{
			while (! (UCSR2A & (1<<UDRE2)));
    1a44:	80 81       	ld	r24, Z
    1a46:	85 ff       	sbrs	r24, 5
    1a48:	fd cf       	rjmp	.-6      	; 0x1a44 <usart_send+0xb4>
			UDR2 = data[i];
    1a4a:	ea 01       	movw	r28, r20
    1a4c:	89 91       	ld	r24, Y+
    1a4e:	ae 01       	movw	r20, r28
    1a50:	eb 01       	movw	r28, r22
    1a52:	88 83       	st	Y, r24
			while (! (UCSR1A & (1<<UDRE1)));
			UDR1 = data[i];
		}
		break;
		case 2:
		for(int i = 0; i < strlen(data); i++)
    1a54:	2f 5f       	subi	r18, 0xFF	; 255
    1a56:	3f 4f       	sbci	r19, 0xFF	; 255
    1a58:	ed 01       	movw	r28, r26
    1a5a:	09 90       	ld	r0, Y+
    1a5c:	00 20       	and	r0, r0
    1a5e:	e9 f7       	brne	.-6      	; 0x1a5a <usart_send+0xca>
    1a60:	21 97       	sbiw	r28, 0x01	; 1
    1a62:	ca 1b       	sub	r28, r26
    1a64:	db 0b       	sbc	r29, r27
    1a66:	2c 17       	cp	r18, r28
    1a68:	3d 07       	cpc	r19, r29
    1a6a:	60 f3       	brcs	.-40     	; 0x1a44 <usart_send+0xb4>
    1a6c:	14 c0       	rjmp	.+40     	; 0x1a96 <usart_send+0x106>
		}
		break;
		case 3:
		for(int i = 0; i < strlen(data); i++)
		{
			while (! (UCSR3A & (1<<UDRE3)));
    1a6e:	80 81       	ld	r24, Z
    1a70:	85 ff       	sbrs	r24, 5
    1a72:	fd cf       	rjmp	.-6      	; 0x1a6e <usart_send+0xde>
			UDR3 = data[i];
    1a74:	ea 01       	movw	r28, r20
    1a76:	89 91       	ld	r24, Y+
    1a78:	ae 01       	movw	r20, r28
    1a7a:	eb 01       	movw	r28, r22
    1a7c:	88 83       	st	Y, r24
			while (! (UCSR2A & (1<<UDRE2)));
			UDR2 = data[i];
		}
		break;
		case 3:
		for(int i = 0; i < strlen(data); i++)
    1a7e:	2f 5f       	subi	r18, 0xFF	; 255
    1a80:	3f 4f       	sbci	r19, 0xFF	; 255
    1a82:	ed 01       	movw	r28, r26
    1a84:	09 90       	ld	r0, Y+
    1a86:	00 20       	and	r0, r0
    1a88:	e9 f7       	brne	.-6      	; 0x1a84 <usart_send+0xf4>
    1a8a:	21 97       	sbiw	r28, 0x01	; 1
    1a8c:	ca 1b       	sub	r28, r26
    1a8e:	db 0b       	sbc	r29, r27
    1a90:	2c 17       	cp	r18, r28
    1a92:	3d 07       	cpc	r19, r29
    1a94:	60 f3       	brcs	.-40     	; 0x1a6e <usart_send+0xde>
			UDR3 = data[i];
		}
		break;
	}
	return;
}
    1a96:	df 91       	pop	r29
    1a98:	cf 91       	pop	r28
    1a9a:	08 95       	ret

00001a9c <parse_GPS>:

void parse_GPS(char* in, char* out)
{
    1a9c:	2f 92       	push	r2
    1a9e:	3f 92       	push	r3
    1aa0:	4f 92       	push	r4
    1aa2:	5f 92       	push	r5
    1aa4:	6f 92       	push	r6
    1aa6:	7f 92       	push	r7
    1aa8:	8f 92       	push	r8
    1aaa:	9f 92       	push	r9
    1aac:	af 92       	push	r10
    1aae:	bf 92       	push	r11
    1ab0:	cf 92       	push	r12
    1ab2:	df 92       	push	r13
    1ab4:	ef 92       	push	r14
    1ab6:	ff 92       	push	r15
    1ab8:	0f 93       	push	r16
    1aba:	1f 93       	push	r17
    1abc:	cf 93       	push	r28
    1abe:	df 93       	push	r29
    1ac0:	cd b7       	in	r28, 0x3d	; 61
    1ac2:	de b7       	in	r29, 0x3e	; 62
    1ac4:	c8 58       	subi	r28, 0x88	; 136
    1ac6:	d1 09       	sbc	r29, r1
    1ac8:	0f b6       	in	r0, 0x3f	; 63
    1aca:	f8 94       	cli
    1acc:	de bf       	out	0x3e, r29	; 62
    1ace:	0f be       	out	0x3f, r0	; 63
    1ad0:	cd bf       	out	0x3d, r28	; 61
    1ad2:	7c 01       	movw	r14, r24
    1ad4:	5b 01       	movw	r10, r22
	int p = 0;
	int comma = 0;
	int i = 0;
	int hour, min, sec, fix, latd, lats, latm, lond, lonm, lons, ns, ew;
	char temp[100];
	if(in[1] == 'G')
    1ad6:	dc 01       	movw	r26, r24
    1ad8:	11 96       	adiw	r26, 0x01	; 1
    1ada:	8c 91       	ld	r24, X
    1adc:	87 34       	cpi	r24, 0x47	; 71
    1ade:	09 f0       	breq	.+2      	; 0x1ae2 <parse_GPS+0x46>
    1ae0:	d3 c2       	rjmp	.+1446   	; 0x2088 <parse_GPS+0x5ec>
    1ae2:	41 2c       	mov	r4, r1
    1ae4:	51 2c       	mov	r5, r1
    1ae6:	c1 2c       	mov	r12, r1
    1ae8:	d1 2c       	mov	r13, r1
    1aea:	00 e0       	ldi	r16, 0x00	; 0
    1aec:	10 e0       	ldi	r17, 0x00	; 0
						temp[7] = in[p++];
						temp[8] = in[p++];
						temp[9] = in[p++];
						temp[10] = in[p++];
						temp[11] = 0;
						sscanf(temp, "%d.%d.%d", &lond, &lonm, &lons);
    1aee:	1e 01       	movw	r2, r28
    1af0:	b1 e1       	ldi	r27, 0x11	; 17
    1af2:	2b 0e       	add	r2, r27
    1af4:	31 1c       	adc	r3, r1
    1af6:	fe 01       	movw	r30, r28
    1af8:	3f 96       	adiw	r30, 0x0f	; 15
    1afa:	e9 96       	adiw	r28, 0x39	; 57
    1afc:	ff af       	std	Y+63, r31	; 0x3f
    1afe:	ee af       	std	Y+62, r30	; 0x3e
    1b00:	e9 97       	sbiw	r28, 0x39	; 57
    1b02:	9e 01       	movw	r18, r28
    1b04:	23 5f       	subi	r18, 0xF3	; 243
    1b06:	3f 4f       	sbci	r19, 0xFF	; 255
    1b08:	eb 96       	adiw	r28, 0x3b	; 59
    1b0a:	3f af       	std	Y+63, r19	; 0x3f
    1b0c:	2e af       	std	Y+62, r18	; 0x3e
    1b0e:	eb 97       	sbiw	r28, 0x3b	; 59
    1b10:	4e 01       	movw	r8, r28
    1b12:	33 e1       	ldi	r19, 0x13	; 19
    1b14:	83 0e       	add	r8, r19
    1b16:	91 1c       	adc	r9, r1
						temp[6] = in[p++];
						temp[7] = in[p++];
						temp[8] = in[p++];
						temp[9] = in[p++];
						temp[10] = 0;
						sscanf(temp, "%d.%d.%d", &latd, &latm, &lats);
    1b18:	ce 01       	movw	r24, r28
    1b1a:	09 96       	adiw	r24, 0x09	; 9
    1b1c:	ed 96       	adiw	r28, 0x3d	; 61
    1b1e:	9f af       	std	Y+63, r25	; 0x3f
    1b20:	8e af       	std	Y+62, r24	; 0x3e
    1b22:	ed 97       	sbiw	r28, 0x3d	; 61
    1b24:	de 01       	movw	r26, r28
    1b26:	1b 96       	adiw	r26, 0x0b	; 11
    1b28:	ef 96       	adiw	r28, 0x3f	; 63
    1b2a:	bf af       	std	Y+63, r27	; 0x3f
    1b2c:	ae af       	std	Y+62, r26	; 0x3e
    1b2e:	ef 97       	sbiw	r28, 0x3f	; 63
    1b30:	38 97       	sbiw	r30, 0x08	; 8
    1b32:	c1 58       	subi	r28, 0x81	; 129
    1b34:	df 4f       	sbci	r29, 0xFF	; 255
    1b36:	f9 83       	std	Y+1, r31	; 0x01
    1b38:	e8 83       	st	Y, r30
    1b3a:	cf 57       	subi	r28, 0x7F	; 127
    1b3c:	d0 40       	sbci	r29, 0x00	; 0
						temp[4] = in[p++];
						temp[5] = ':';
						temp[6] = in[p++];
						temp[7] = in[p++];
						temp[8] = 0;
						sscanf(temp,"%d:%d:%d",&hour,&min,&sec);
    1b3e:	9e 01       	movw	r18, r28
    1b40:	2b 5f       	subi	r18, 0xFB	; 251
    1b42:	3f 4f       	sbci	r19, 0xFF	; 255
    1b44:	cf 57       	subi	r28, 0x7F	; 127
    1b46:	df 4f       	sbci	r29, 0xFF	; 255
    1b48:	39 83       	std	Y+1, r19	; 0x01
    1b4a:	28 83       	st	Y, r18
    1b4c:	c1 58       	subi	r28, 0x81	; 129
    1b4e:	d0 40       	sbci	r29, 0x00	; 0
    1b50:	3e 01       	movw	r6, r28
    1b52:	33 e0       	ldi	r19, 0x03	; 3
    1b54:	63 0e       	add	r6, r19
    1b56:	71 1c       	adc	r7, r1
	char temp[100];
	if(in[1] == 'G')
	{
		while(comma < 12)
		{
			if(in[p] == ',')
    1b58:	f7 01       	movw	r30, r14
    1b5a:	e0 0f       	add	r30, r16
    1b5c:	f1 1f       	adc	r31, r17
    1b5e:	80 81       	ld	r24, Z
    1b60:	8c 32       	cpi	r24, 0x2C	; 44
    1b62:	09 f0       	breq	.+2      	; 0x1b66 <parse_GPS+0xca>
    1b64:	5e c1       	rjmp	.+700    	; 0x1e22 <parse_GPS+0x386>
			{
				comma++;
    1b66:	8f ef       	ldi	r24, 0xFF	; 255
    1b68:	c8 1a       	sub	r12, r24
    1b6a:	d8 0a       	sbc	r13, r24
				p++;
    1b6c:	a8 01       	movw	r20, r16
    1b6e:	4f 5f       	subi	r20, 0xFF	; 255
    1b70:	5f 4f       	sbci	r21, 0xFF	; 255
				switch(comma)
    1b72:	f6 01       	movw	r30, r12
    1b74:	31 97       	sbiw	r30, 0x01	; 1
    1b76:	e9 30       	cpi	r30, 0x09	; 9
    1b78:	f1 05       	cpc	r31, r1
    1b7a:	08 f0       	brcs	.+2      	; 0x1b7e <parse_GPS+0xe2>
    1b7c:	55 c1       	rjmp	.+682    	; 0x1e28 <parse_GPS+0x38c>
    1b7e:	88 27       	eor	r24, r24
    1b80:	e1 57       	subi	r30, 0x71	; 113
    1b82:	fb 4f       	sbci	r31, 0xFB	; 251
    1b84:	8f 4f       	sbci	r24, 0xFF	; 255
    1b86:	aa c5       	rjmp	.+2900   	; 0x26dc <__tablejump2__>
							fix = 1;
						else
							fix = 0;
						break;
					case 9:
						while(in[p] != ',')
    1b88:	f7 01       	movw	r30, r14
    1b8a:	e4 0f       	add	r30, r20
    1b8c:	f5 1f       	adc	r31, r21
    1b8e:	80 81       	ld	r24, Z
    1b90:	8c 32       	cpi	r24, 0x2C	; 44
    1b92:	09 f0       	breq	.+2      	; 0x1b96 <parse_GPS+0xfa>
    1b94:	26 c1       	rjmp	.+588    	; 0x1de2 <parse_GPS+0x346>
    1b96:	92 01       	movw	r18, r4
    1b98:	8a 01       	movw	r16, r20
    1b9a:	35 c1       	rjmp	.+618    	; 0x1e06 <parse_GPS+0x36a>
				comma++;
				p++;
				switch(comma)
				{
					case 1:
						strcat(out, "\nTime: ");
    1b9c:	d5 01       	movw	r26, r10
    1b9e:	0d 90       	ld	r0, X+
    1ba0:	00 20       	and	r0, r0
    1ba2:	e9 f7       	brne	.-6      	; 0x1b9e <parse_GPS+0x102>
    1ba4:	11 97       	sbiw	r26, 0x01	; 1
    1ba6:	88 e0       	ldi	r24, 0x08	; 8
    1ba8:	e3 e9       	ldi	r30, 0x93	; 147
    1baa:	f2 e0       	ldi	r31, 0x02	; 2
    1bac:	01 90       	ld	r0, Z+
    1bae:	0d 92       	st	X+, r0
    1bb0:	8a 95       	dec	r24
    1bb2:	e1 f7       	brne	.-8      	; 0x1bac <parse_GPS+0x110>
						temp[0] = in[p++];
    1bb4:	f7 01       	movw	r30, r14
    1bb6:	e4 0f       	add	r30, r20
    1bb8:	f5 1f       	adc	r31, r21
    1bba:	80 81       	ld	r24, Z
    1bbc:	8b 8b       	std	Y+19, r24	; 0x13
						temp[1] = in[p++];
    1bbe:	f7 01       	movw	r30, r14
    1bc0:	e0 0f       	add	r30, r16
    1bc2:	f1 1f       	adc	r31, r17
    1bc4:	82 81       	ldd	r24, Z+2	; 0x02
    1bc6:	8c 8b       	std	Y+20, r24	; 0x14
						temp[2] = ':';
    1bc8:	8a e3       	ldi	r24, 0x3A	; 58
    1bca:	8d 8b       	std	Y+21, r24	; 0x15
						temp[3] = in[p++];
    1bcc:	93 81       	ldd	r25, Z+3	; 0x03
    1bce:	9e 8b       	std	Y+22, r25	; 0x16
						temp[4] = in[p++];
    1bd0:	94 81       	ldd	r25, Z+4	; 0x04
    1bd2:	9f 8b       	std	Y+23, r25	; 0x17
						temp[5] = ':';
    1bd4:	88 8f       	std	Y+24, r24	; 0x18
						temp[6] = in[p++];
    1bd6:	85 81       	ldd	r24, Z+5	; 0x05
    1bd8:	89 8f       	std	Y+25, r24	; 0x19
						temp[7] = in[p++];
    1bda:	f8 01       	movw	r30, r16
    1bdc:	36 96       	adiw	r30, 0x06	; 6
    1bde:	ee 0d       	add	r30, r14
    1be0:	ff 1d       	adc	r31, r15
    1be2:	09 5f       	subi	r16, 0xF9	; 249
    1be4:	1f 4f       	sbci	r17, 0xFF	; 255
    1be6:	80 81       	ld	r24, Z
    1be8:	8a 8f       	std	Y+26, r24	; 0x1a
						temp[8] = 0;
    1bea:	1b 8e       	std	Y+27, r1	; 0x1b
						sscanf(temp,"%d:%d:%d",&hour,&min,&sec);
    1bec:	ce 57       	subi	r28, 0x7E	; 126
    1bee:	df 4f       	sbci	r29, 0xFF	; 255
    1bf0:	98 81       	ld	r25, Y
    1bf2:	c2 58       	subi	r28, 0x82	; 130
    1bf4:	d0 40       	sbci	r29, 0x00	; 0
    1bf6:	9f 93       	push	r25
    1bf8:	cf 57       	subi	r28, 0x7F	; 127
    1bfa:	df 4f       	sbci	r29, 0xFF	; 255
    1bfc:	a8 81       	ld	r26, Y
    1bfe:	c1 58       	subi	r28, 0x81	; 129
    1c00:	d0 40       	sbci	r29, 0x00	; 0
    1c02:	af 93       	push	r26
    1c04:	7f 92       	push	r7
    1c06:	6f 92       	push	r6
    1c08:	e1 e0       	ldi	r30, 0x01	; 1
    1c0a:	f0 e0       	ldi	r31, 0x00	; 0
    1c0c:	ec 0f       	add	r30, r28
    1c0e:	fd 1f       	adc	r31, r29
    1c10:	ff 93       	push	r31
    1c12:	ef 93       	push	r30
    1c14:	8b e9       	ldi	r24, 0x9B	; 155
    1c16:	92 e0       	ldi	r25, 0x02	; 2
    1c18:	9f 93       	push	r25
    1c1a:	8f 93       	push	r24
    1c1c:	9f 92       	push	r9
    1c1e:	8f 92       	push	r8
    1c20:	e9 d5       	rcall	.+3026   	; 0x27f4 <sscanf>
						if(hour > 6)
    1c22:	89 81       	ldd	r24, Y+1	; 0x01
    1c24:	9a 81       	ldd	r25, Y+2	; 0x02
    1c26:	0f b6       	in	r0, 0x3f	; 63
    1c28:	f8 94       	cli
    1c2a:	de bf       	out	0x3e, r29	; 62
    1c2c:	0f be       	out	0x3f, r0	; 63
    1c2e:	cd bf       	out	0x3d, r28	; 61
    1c30:	87 30       	cpi	r24, 0x07	; 7
    1c32:	91 05       	cpc	r25, r1
    1c34:	24 f0       	brlt	.+8      	; 0x1c3e <parse_GPS+0x1a2>
							hour = hour-7;
    1c36:	07 97       	sbiw	r24, 0x07	; 7
    1c38:	9a 83       	std	Y+2, r25	; 0x02
    1c3a:	89 83       	std	Y+1, r24	; 0x01
    1c3c:	8d cf       	rjmp	.-230    	; 0x1b58 <parse_GPS+0xbc>
						else
							hour = hour + 17;
    1c3e:	41 96       	adiw	r24, 0x11	; 17
    1c40:	9a 83       	std	Y+2, r25	; 0x02
    1c42:	89 83       	std	Y+1, r24	; 0x01
    1c44:	89 cf       	rjmp	.-238    	; 0x1b58 <parse_GPS+0xbc>
						break;
					case 2:
						temp[0] = in[p++];
    1c46:	f7 01       	movw	r30, r14
    1c48:	e4 0f       	add	r30, r20
    1c4a:	f5 1f       	adc	r31, r21
    1c4c:	80 81       	ld	r24, Z
    1c4e:	8b 8b       	std	Y+19, r24	; 0x13
						temp[1] = in[p++];
    1c50:	f7 01       	movw	r30, r14
    1c52:	e0 0f       	add	r30, r16
    1c54:	f1 1f       	adc	r31, r17
    1c56:	82 81       	ldd	r24, Z+2	; 0x02
    1c58:	8c 8b       	std	Y+20, r24	; 0x14
						temp[2] = '.';
    1c5a:	8e e2       	ldi	r24, 0x2E	; 46
    1c5c:	8d 8b       	std	Y+21, r24	; 0x15
						temp[3] = in[p++];
    1c5e:	83 81       	ldd	r24, Z+3	; 0x03
    1c60:	8e 8b       	std	Y+22, r24	; 0x16
						temp[4] = in[p++];
    1c62:	84 81       	ldd	r24, Z+4	; 0x04
    1c64:	8f 8b       	std	Y+23, r24	; 0x17
						temp[5] = in[p++];
    1c66:	85 81       	ldd	r24, Z+5	; 0x05
    1c68:	88 8f       	std	Y+24, r24	; 0x18
						temp[6] = in[p++];
    1c6a:	86 81       	ldd	r24, Z+6	; 0x06
    1c6c:	89 8f       	std	Y+25, r24	; 0x19
						temp[7] = in[p++];
    1c6e:	87 81       	ldd	r24, Z+7	; 0x07
    1c70:	8a 8f       	std	Y+26, r24	; 0x1a
						temp[8] = in[p++];
    1c72:	80 85       	ldd	r24, Z+8	; 0x08
    1c74:	8b 8f       	std	Y+27, r24	; 0x1b
						temp[9] = in[p++];
    1c76:	f8 01       	movw	r30, r16
    1c78:	39 96       	adiw	r30, 0x09	; 9
    1c7a:	ee 0d       	add	r30, r14
    1c7c:	ff 1d       	adc	r31, r15
    1c7e:	06 5f       	subi	r16, 0xF6	; 246
    1c80:	1f 4f       	sbci	r17, 0xFF	; 255
    1c82:	80 81       	ld	r24, Z
    1c84:	8c 8f       	std	Y+28, r24	; 0x1c
						temp[10] = 0;
    1c86:	1d 8e       	std	Y+29, r1	; 0x1d
						sscanf(temp, "%d.%d.%d", &latd, &latm, &lats);
    1c88:	ed 96       	adiw	r28, 0x3d	; 61
    1c8a:	3f ad       	ldd	r19, Y+63	; 0x3f
    1c8c:	ed 97       	sbiw	r28, 0x3d	; 61
    1c8e:	3f 93       	push	r19
    1c90:	ec 96       	adiw	r28, 0x3c	; 60
    1c92:	8f ad       	ldd	r24, Y+63	; 0x3f
    1c94:	ec 97       	sbiw	r28, 0x3c	; 60
    1c96:	8f 93       	push	r24
    1c98:	ef 96       	adiw	r28, 0x3f	; 63
    1c9a:	9f ad       	ldd	r25, Y+63	; 0x3f
    1c9c:	ef 97       	sbiw	r28, 0x3f	; 63
    1c9e:	9f 93       	push	r25
    1ca0:	ee 96       	adiw	r28, 0x3e	; 62
    1ca2:	af ad       	ldd	r26, Y+63	; 0x3f
    1ca4:	ee 97       	sbiw	r28, 0x3e	; 62
    1ca6:	af 93       	push	r26
    1ca8:	c0 58       	subi	r28, 0x80	; 128
    1caa:	df 4f       	sbci	r29, 0xFF	; 255
    1cac:	b8 81       	ld	r27, Y
    1cae:	c0 58       	subi	r28, 0x80	; 128
    1cb0:	d0 40       	sbci	r29, 0x00	; 0
    1cb2:	bf 93       	push	r27
    1cb4:	c1 58       	subi	r28, 0x81	; 129
    1cb6:	df 4f       	sbci	r29, 0xFF	; 255
    1cb8:	e8 81       	ld	r30, Y
    1cba:	cf 57       	subi	r28, 0x7F	; 127
    1cbc:	d0 40       	sbci	r29, 0x00	; 0
    1cbe:	ef 93       	push	r30
    1cc0:	a4 ea       	ldi	r26, 0xA4	; 164
    1cc2:	b2 e0       	ldi	r27, 0x02	; 2
    1cc4:	bf 93       	push	r27
    1cc6:	af 93       	push	r26
    1cc8:	9f 92       	push	r9
    1cca:	8f 92       	push	r8
    1ccc:	93 d5       	rcall	.+2854   	; 0x27f4 <sscanf>
						break;
    1cce:	0f b6       	in	r0, 0x3f	; 63
    1cd0:	f8 94       	cli
    1cd2:	de bf       	out	0x3e, r29	; 62
    1cd4:	0f be       	out	0x3f, r0	; 63
    1cd6:	cd bf       	out	0x3d, r28	; 61
    1cd8:	3f cf       	rjmp	.-386    	; 0x1b58 <parse_GPS+0xbc>
					case 3:
						if(in[p++] == 'N')
    1cda:	0e 5f       	subi	r16, 0xFE	; 254
    1cdc:	1f 4f       	sbci	r17, 0xFF	; 255
    1cde:	f7 01       	movw	r30, r14
    1ce0:	e4 0f       	add	r30, r20
    1ce2:	f5 1f       	adc	r31, r21
    1ce4:	91 e0       	ldi	r25, 0x01	; 1
    1ce6:	80 e0       	ldi	r24, 0x00	; 0
    1ce8:	20 81       	ld	r18, Z
    1cea:	2e 34       	cpi	r18, 0x4E	; 78
    1cec:	09 f4       	brne	.+2      	; 0x1cf0 <parse_GPS+0x254>
    1cee:	90 e0       	ldi	r25, 0x00	; 0
    1cf0:	cb 57       	subi	r28, 0x7B	; 123
    1cf2:	df 4f       	sbci	r29, 0xFF	; 255
    1cf4:	98 83       	st	Y, r25
    1cf6:	c5 58       	subi	r28, 0x85	; 133
    1cf8:	d0 40       	sbci	r29, 0x00	; 0
    1cfa:	ca 57       	subi	r28, 0x7A	; 122
    1cfc:	df 4f       	sbci	r29, 0xFF	; 255
    1cfe:	88 83       	st	Y, r24
    1d00:	c6 58       	subi	r28, 0x86	; 134
    1d02:	d0 40       	sbci	r29, 0x00	; 0
    1d04:	29 cf       	rjmp	.-430    	; 0x1b58 <parse_GPS+0xbc>
							ns = 0;
						else
							ns = 1;
						break;
					case 4:
						temp[0] = in[p++];
    1d06:	f7 01       	movw	r30, r14
    1d08:	e4 0f       	add	r30, r20
    1d0a:	f5 1f       	adc	r31, r21
    1d0c:	80 81       	ld	r24, Z
    1d0e:	8b 8b       	std	Y+19, r24	; 0x13
						temp[1] = in[p++];
    1d10:	f7 01       	movw	r30, r14
    1d12:	e0 0f       	add	r30, r16
    1d14:	f1 1f       	adc	r31, r17
    1d16:	82 81       	ldd	r24, Z+2	; 0x02
    1d18:	8c 8b       	std	Y+20, r24	; 0x14
						temp[2] = in[p++];
    1d1a:	83 81       	ldd	r24, Z+3	; 0x03
    1d1c:	8d 8b       	std	Y+21, r24	; 0x15
						temp[3] = '.';
    1d1e:	8e e2       	ldi	r24, 0x2E	; 46
    1d20:	8e 8b       	std	Y+22, r24	; 0x16
						temp[4] = in[p++];
    1d22:	84 81       	ldd	r24, Z+4	; 0x04
    1d24:	8f 8b       	std	Y+23, r24	; 0x17
						temp[5] = in[p++];
    1d26:	85 81       	ldd	r24, Z+5	; 0x05
    1d28:	88 8f       	std	Y+24, r24	; 0x18
						temp[6] = in[p++];
    1d2a:	86 81       	ldd	r24, Z+6	; 0x06
    1d2c:	89 8f       	std	Y+25, r24	; 0x19
						temp[7] = in[p++];
    1d2e:	87 81       	ldd	r24, Z+7	; 0x07
    1d30:	8a 8f       	std	Y+26, r24	; 0x1a
						temp[8] = in[p++];
    1d32:	80 85       	ldd	r24, Z+8	; 0x08
    1d34:	8b 8f       	std	Y+27, r24	; 0x1b
						temp[9] = in[p++];
    1d36:	81 85       	ldd	r24, Z+9	; 0x09
    1d38:	8c 8f       	std	Y+28, r24	; 0x1c
						temp[10] = in[p++];
    1d3a:	f8 01       	movw	r30, r16
    1d3c:	3a 96       	adiw	r30, 0x0a	; 10
    1d3e:	ee 0d       	add	r30, r14
    1d40:	ff 1d       	adc	r31, r15
    1d42:	05 5f       	subi	r16, 0xF5	; 245
    1d44:	1f 4f       	sbci	r17, 0xFF	; 255
    1d46:	80 81       	ld	r24, Z
    1d48:	8d 8f       	std	Y+29, r24	; 0x1d
						temp[11] = 0;
    1d4a:	1e 8e       	std	Y+30, r1	; 0x1e
						sscanf(temp, "%d.%d.%d", &lond, &lonm, &lons);
    1d4c:	3f 92       	push	r3
    1d4e:	2f 92       	push	r2
    1d50:	e9 96       	adiw	r28, 0x39	; 57
    1d52:	3f ad       	ldd	r19, Y+63	; 0x3f
    1d54:	e9 97       	sbiw	r28, 0x39	; 57
    1d56:	3f 93       	push	r19
    1d58:	e8 96       	adiw	r28, 0x38	; 56
    1d5a:	8f ad       	ldd	r24, Y+63	; 0x3f
    1d5c:	e8 97       	sbiw	r28, 0x38	; 56
    1d5e:	8f 93       	push	r24
    1d60:	eb 96       	adiw	r28, 0x3b	; 59
    1d62:	9f ad       	ldd	r25, Y+63	; 0x3f
    1d64:	eb 97       	sbiw	r28, 0x3b	; 59
    1d66:	9f 93       	push	r25
    1d68:	ea 96       	adiw	r28, 0x3a	; 58
    1d6a:	af ad       	ldd	r26, Y+63	; 0x3f
    1d6c:	ea 97       	sbiw	r28, 0x3a	; 58
    1d6e:	af 93       	push	r26
    1d70:	a4 ea       	ldi	r26, 0xA4	; 164
    1d72:	b2 e0       	ldi	r27, 0x02	; 2
    1d74:	bf 93       	push	r27
    1d76:	af 93       	push	r26
    1d78:	9f 92       	push	r9
    1d7a:	8f 92       	push	r8
    1d7c:	3b d5       	rcall	.+2678   	; 0x27f4 <sscanf>
						break;
    1d7e:	0f b6       	in	r0, 0x3f	; 63
    1d80:	f8 94       	cli
    1d82:	de bf       	out	0x3e, r29	; 62
    1d84:	0f be       	out	0x3f, r0	; 63
    1d86:	cd bf       	out	0x3d, r28	; 61
    1d88:	e7 ce       	rjmp	.-562    	; 0x1b58 <parse_GPS+0xbc>
					case 5:
						if(in[p++] == 'E')
    1d8a:	0e 5f       	subi	r16, 0xFE	; 254
    1d8c:	1f 4f       	sbci	r17, 0xFF	; 255
    1d8e:	f7 01       	movw	r30, r14
    1d90:	e4 0f       	add	r30, r20
    1d92:	f5 1f       	adc	r31, r21
    1d94:	91 e0       	ldi	r25, 0x01	; 1
    1d96:	80 e0       	ldi	r24, 0x00	; 0
    1d98:	20 81       	ld	r18, Z
    1d9a:	25 34       	cpi	r18, 0x45	; 69
    1d9c:	09 f4       	brne	.+2      	; 0x1da0 <parse_GPS+0x304>
    1d9e:	90 e0       	ldi	r25, 0x00	; 0
    1da0:	c9 57       	subi	r28, 0x79	; 121
    1da2:	df 4f       	sbci	r29, 0xFF	; 255
    1da4:	98 83       	st	Y, r25
    1da6:	c7 58       	subi	r28, 0x87	; 135
    1da8:	d0 40       	sbci	r29, 0x00	; 0
    1daa:	c8 57       	subi	r28, 0x78	; 120
    1dac:	df 4f       	sbci	r29, 0xFF	; 255
    1dae:	88 83       	st	Y, r24
    1db0:	c8 58       	subi	r28, 0x88	; 136
    1db2:	d0 40       	sbci	r29, 0x00	; 0
    1db4:	d1 ce       	rjmp	.-606    	; 0x1b58 <parse_GPS+0xbc>
							ew = 0;
						else
							ew = 1;
						break;
					case 6:
						if(in[p++] == '1')
    1db6:	0e 5f       	subi	r16, 0xFE	; 254
    1db8:	1f 4f       	sbci	r17, 0xFF	; 255
    1dba:	f7 01       	movw	r30, r14
    1dbc:	e4 0f       	add	r30, r20
    1dbe:	f5 1f       	adc	r31, r21
    1dc0:	91 e0       	ldi	r25, 0x01	; 1
    1dc2:	80 e0       	ldi	r24, 0x00	; 0
    1dc4:	20 81       	ld	r18, Z
    1dc6:	21 33       	cpi	r18, 0x31	; 49
    1dc8:	09 f0       	breq	.+2      	; 0x1dcc <parse_GPS+0x330>
    1dca:	90 e0       	ldi	r25, 0x00	; 0
    1dcc:	cd 57       	subi	r28, 0x7D	; 125
    1dce:	df 4f       	sbci	r29, 0xFF	; 255
    1dd0:	98 83       	st	Y, r25
    1dd2:	c3 58       	subi	r28, 0x83	; 131
    1dd4:	d0 40       	sbci	r29, 0x00	; 0
    1dd6:	cc 57       	subi	r28, 0x7C	; 124
    1dd8:	df 4f       	sbci	r29, 0xFF	; 255
    1dda:	88 83       	st	Y, r24
    1ddc:	c4 58       	subi	r28, 0x84	; 132
    1dde:	d0 40       	sbci	r29, 0x00	; 0
    1de0:	bb ce       	rjmp	.-650    	; 0x1b58 <parse_GPS+0xbc>
    1de2:	d4 01       	movw	r26, r8
    1de4:	a4 0d       	add	r26, r4
    1de6:	b5 1d       	adc	r27, r5
    1de8:	0e 5f       	subi	r16, 0xFE	; 254
    1dea:	1f 4f       	sbci	r17, 0xFF	; 255
    1dec:	f7 01       	movw	r30, r14
    1dee:	e0 0f       	add	r30, r16
    1df0:	f1 1f       	adc	r31, r17
							fix = 1;
						else
							fix = 0;
						break;
					case 9:
						while(in[p] != ',')
    1df2:	92 01       	movw	r18, r4
    1df4:	8f 01       	movw	r16, r30
    1df6:	0e 19       	sub	r16, r14
    1df8:	1f 09       	sbc	r17, r15
						{
							temp[i] = in[p++];
    1dfa:	8d 93       	st	X+, r24
							i++;
    1dfc:	2f 5f       	subi	r18, 0xFF	; 255
    1dfe:	3f 4f       	sbci	r19, 0xFF	; 255
							fix = 1;
						else
							fix = 0;
						break;
					case 9:
						while(in[p] != ',')
    1e00:	81 91       	ld	r24, Z+
    1e02:	8c 32       	cpi	r24, 0x2C	; 44
    1e04:	b9 f7       	brne	.-18     	; 0x1df4 <parse_GPS+0x358>
						{
							temp[i] = in[p++];
							i++;
						}
						temp[i++] = '\n';
    1e06:	29 01       	movw	r4, r18
    1e08:	8f ef       	ldi	r24, 0xFF	; 255
    1e0a:	48 1a       	sub	r4, r24
    1e0c:	58 0a       	sbc	r5, r24
    1e0e:	f4 01       	movw	r30, r8
    1e10:	e2 0f       	add	r30, r18
    1e12:	f3 1f       	adc	r31, r19
    1e14:	8a e0       	ldi	r24, 0x0A	; 10
    1e16:	80 83       	st	Z, r24
						temp[i] = 0;
    1e18:	f4 01       	movw	r30, r8
    1e1a:	e4 0d       	add	r30, r4
    1e1c:	f5 1d       	adc	r31, r5
    1e1e:	10 82       	st	Z, r1
						break;
    1e20:	9b ce       	rjmp	.-714    	; 0x1b58 <parse_GPS+0xbc>
				}
			}
			else
				p++;
    1e22:	0f 5f       	subi	r16, 0xFF	; 255
    1e24:	1f 4f       	sbci	r17, 0xFF	; 255
    1e26:	01 c0       	rjmp	.+2      	; 0x1e2a <parse_GPS+0x38e>
		while(comma < 12)
		{
			if(in[p] == ',')
			{
				comma++;
				p++;
    1e28:	8a 01       	movw	r16, r20
	int i = 0;
	int hour, min, sec, fix, latd, lats, latm, lond, lonm, lons, ns, ew;
	char temp[100];
	if(in[1] == 'G')
	{
		while(comma < 12)
    1e2a:	9c e0       	ldi	r25, 0x0C	; 12
    1e2c:	c9 16       	cp	r12, r25
    1e2e:	d1 04       	cpc	r13, r1
    1e30:	0c f4       	brge	.+2      	; 0x1e34 <parse_GPS+0x398>
    1e32:	92 ce       	rjmp	.-732    	; 0x1b58 <parse_GPS+0xbc>
				p++;
		}
	}
	else
		return;
	if(fix == 1)
    1e34:	cd 57       	subi	r28, 0x7D	; 125
    1e36:	df 4f       	sbci	r29, 0xFF	; 255
    1e38:	a8 81       	ld	r26, Y
    1e3a:	b9 81       	ldd	r27, Y+1	; 0x01
    1e3c:	c3 58       	subi	r28, 0x83	; 131
    1e3e:	d0 40       	sbci	r29, 0x00	; 0
    1e40:	11 97       	sbiw	r26, 0x01	; 1
    1e42:	09 f0       	breq	.+2      	; 0x1e46 <parse_GPS+0x3aa>
    1e44:	fd c0       	rjmp	.+506    	; 0x2040 <parse_GPS+0x5a4>
	{
		if(ns == 0 && ew == 0)
    1e46:	cb 57       	subi	r28, 0x7B	; 123
    1e48:	df 4f       	sbci	r29, 0xFF	; 255
    1e4a:	e8 81       	ld	r30, Y
    1e4c:	f9 81       	ldd	r31, Y+1	; 0x01
    1e4e:	c5 58       	subi	r28, 0x85	; 133
    1e50:	d0 40       	sbci	r29, 0x00	; 0
    1e52:	ef 2b       	or	r30, r31
    1e54:	d1 f5       	brne	.+116    	; 0x1eca <parse_GPS+0x42e>
    1e56:	c9 57       	subi	r28, 0x79	; 121
    1e58:	df 4f       	sbci	r29, 0xFF	; 255
    1e5a:	28 81       	ld	r18, Y
    1e5c:	39 81       	ldd	r19, Y+1	; 0x01
    1e5e:	c7 58       	subi	r28, 0x87	; 135
    1e60:	d0 40       	sbci	r29, 0x00	; 0
    1e62:	23 2b       	or	r18, r19
    1e64:	09 f0       	breq	.+2      	; 0x1e68 <parse_GPS+0x3cc>
    1e66:	74 c0       	rjmp	.+232    	; 0x1f50 <parse_GPS+0x4b4>
			sprintf(out, "\nTime: %.2d:%.2d:%.2d\nLatitude: %d %d.%d\nLongitude: %d %d.%d\nAltitude: ", hour, min, sec, latd, latm, lats, lond, lonm, lons);
    1e68:	8a 89       	ldd	r24, Y+18	; 0x12
    1e6a:	8f 93       	push	r24
    1e6c:	89 89       	ldd	r24, Y+17	; 0x11
    1e6e:	8f 93       	push	r24
    1e70:	88 89       	ldd	r24, Y+16	; 0x10
    1e72:	8f 93       	push	r24
    1e74:	8f 85       	ldd	r24, Y+15	; 0x0f
    1e76:	8f 93       	push	r24
    1e78:	8e 85       	ldd	r24, Y+14	; 0x0e
    1e7a:	8f 93       	push	r24
    1e7c:	8d 85       	ldd	r24, Y+13	; 0x0d
    1e7e:	8f 93       	push	r24
    1e80:	8a 85       	ldd	r24, Y+10	; 0x0a
    1e82:	8f 93       	push	r24
    1e84:	89 85       	ldd	r24, Y+9	; 0x09
    1e86:	8f 93       	push	r24
    1e88:	8c 85       	ldd	r24, Y+12	; 0x0c
    1e8a:	8f 93       	push	r24
    1e8c:	8b 85       	ldd	r24, Y+11	; 0x0b
    1e8e:	8f 93       	push	r24
    1e90:	88 85       	ldd	r24, Y+8	; 0x08
    1e92:	8f 93       	push	r24
    1e94:	8f 81       	ldd	r24, Y+7	; 0x07
    1e96:	8f 93       	push	r24
    1e98:	8e 81       	ldd	r24, Y+6	; 0x06
    1e9a:	8f 93       	push	r24
    1e9c:	8d 81       	ldd	r24, Y+5	; 0x05
    1e9e:	8f 93       	push	r24
    1ea0:	8c 81       	ldd	r24, Y+4	; 0x04
    1ea2:	8f 93       	push	r24
    1ea4:	8b 81       	ldd	r24, Y+3	; 0x03
    1ea6:	8f 93       	push	r24
    1ea8:	8a 81       	ldd	r24, Y+2	; 0x02
    1eaa:	8f 93       	push	r24
    1eac:	89 81       	ldd	r24, Y+1	; 0x01
    1eae:	8f 93       	push	r24
    1eb0:	8d ea       	ldi	r24, 0xAD	; 173
    1eb2:	92 e0       	ldi	r25, 0x02	; 2
    1eb4:	9f 93       	push	r25
    1eb6:	8f 93       	push	r24
    1eb8:	bf 92       	push	r11
    1eba:	af 92       	push	r10
    1ebc:	6c d4       	rcall	.+2264   	; 0x2796 <sprintf>
    1ebe:	0f b6       	in	r0, 0x3f	; 63
    1ec0:	f8 94       	cli
    1ec2:	de bf       	out	0x3e, r29	; 62
    1ec4:	0f be       	out	0x3f, r0	; 63
    1ec6:	cd bf       	out	0x3d, r28	; 61
    1ec8:	b5 c0       	rjmp	.+362    	; 0x2034 <parse_GPS+0x598>
		else if(ns == 1 && ew == 0)
    1eca:	cb 57       	subi	r28, 0x7B	; 123
    1ecc:	df 4f       	sbci	r29, 0xFF	; 255
    1ece:	a8 81       	ld	r26, Y
    1ed0:	b9 81       	ldd	r27, Y+1	; 0x01
    1ed2:	c5 58       	subi	r28, 0x85	; 133
    1ed4:	d0 40       	sbci	r29, 0x00	; 0
    1ed6:	11 97       	sbiw	r26, 0x01	; 1
    1ed8:	09 f0       	breq	.+2      	; 0x1edc <parse_GPS+0x440>
    1eda:	ac c0       	rjmp	.+344    	; 0x2034 <parse_GPS+0x598>
    1edc:	c9 57       	subi	r28, 0x79	; 121
    1ede:	df 4f       	sbci	r29, 0xFF	; 255
    1ee0:	e8 81       	ld	r30, Y
    1ee2:	f9 81       	ldd	r31, Y+1	; 0x01
    1ee4:	c7 58       	subi	r28, 0x87	; 135
    1ee6:	d0 40       	sbci	r29, 0x00	; 0
    1ee8:	ef 2b       	or	r30, r31
    1eea:	09 f0       	breq	.+2      	; 0x1eee <parse_GPS+0x452>
    1eec:	6b c0       	rjmp	.+214    	; 0x1fc4 <parse_GPS+0x528>
			sprintf(out, "\nTime: %.2d:%.2d:%.2d\nLatitude: -%d %d.%d\nLongitude: %d %d.%d\nAltitude: ", hour, min, sec, latd, latm, lats, lond, lonm, lons);
    1eee:	8a 89       	ldd	r24, Y+18	; 0x12
    1ef0:	8f 93       	push	r24
    1ef2:	89 89       	ldd	r24, Y+17	; 0x11
    1ef4:	8f 93       	push	r24
    1ef6:	88 89       	ldd	r24, Y+16	; 0x10
    1ef8:	8f 93       	push	r24
    1efa:	8f 85       	ldd	r24, Y+15	; 0x0f
    1efc:	8f 93       	push	r24
    1efe:	8e 85       	ldd	r24, Y+14	; 0x0e
    1f00:	8f 93       	push	r24
    1f02:	8d 85       	ldd	r24, Y+13	; 0x0d
    1f04:	8f 93       	push	r24
    1f06:	8a 85       	ldd	r24, Y+10	; 0x0a
    1f08:	8f 93       	push	r24
    1f0a:	89 85       	ldd	r24, Y+9	; 0x09
    1f0c:	8f 93       	push	r24
    1f0e:	8c 85       	ldd	r24, Y+12	; 0x0c
    1f10:	8f 93       	push	r24
    1f12:	8b 85       	ldd	r24, Y+11	; 0x0b
    1f14:	8f 93       	push	r24
    1f16:	88 85       	ldd	r24, Y+8	; 0x08
    1f18:	8f 93       	push	r24
    1f1a:	8f 81       	ldd	r24, Y+7	; 0x07
    1f1c:	8f 93       	push	r24
    1f1e:	8e 81       	ldd	r24, Y+6	; 0x06
    1f20:	8f 93       	push	r24
    1f22:	8d 81       	ldd	r24, Y+5	; 0x05
    1f24:	8f 93       	push	r24
    1f26:	8c 81       	ldd	r24, Y+4	; 0x04
    1f28:	8f 93       	push	r24
    1f2a:	8b 81       	ldd	r24, Y+3	; 0x03
    1f2c:	8f 93       	push	r24
    1f2e:	8a 81       	ldd	r24, Y+2	; 0x02
    1f30:	8f 93       	push	r24
    1f32:	89 81       	ldd	r24, Y+1	; 0x01
    1f34:	8f 93       	push	r24
    1f36:	85 ef       	ldi	r24, 0xF5	; 245
    1f38:	92 e0       	ldi	r25, 0x02	; 2
    1f3a:	9f 93       	push	r25
    1f3c:	8f 93       	push	r24
    1f3e:	bf 92       	push	r11
    1f40:	af 92       	push	r10
    1f42:	29 d4       	rcall	.+2130   	; 0x2796 <sprintf>
    1f44:	0f b6       	in	r0, 0x3f	; 63
    1f46:	f8 94       	cli
    1f48:	de bf       	out	0x3e, r29	; 62
    1f4a:	0f be       	out	0x3f, r0	; 63
    1f4c:	cd bf       	out	0x3d, r28	; 61
    1f4e:	72 c0       	rjmp	.+228    	; 0x2034 <parse_GPS+0x598>
		else if(ns == 0 && ew == 1)
    1f50:	c9 57       	subi	r28, 0x79	; 121
    1f52:	df 4f       	sbci	r29, 0xFF	; 255
    1f54:	88 81       	ld	r24, Y
    1f56:	99 81       	ldd	r25, Y+1	; 0x01
    1f58:	c7 58       	subi	r28, 0x87	; 135
    1f5a:	d0 40       	sbci	r29, 0x00	; 0
    1f5c:	01 97       	sbiw	r24, 0x01	; 1
    1f5e:	09 f0       	breq	.+2      	; 0x1f62 <parse_GPS+0x4c6>
    1f60:	69 c0       	rjmp	.+210    	; 0x2034 <parse_GPS+0x598>
			sprintf(out, "\nTime: %.2d:%.2d:%.2d\nLatitude: %d %d.%d\nLongitude: -%d %d.%d\nAltitude: ", hour, min, sec, latd, latm, lats, lond, lonm, lons);
    1f62:	8a 89       	ldd	r24, Y+18	; 0x12
    1f64:	8f 93       	push	r24
    1f66:	89 89       	ldd	r24, Y+17	; 0x11
    1f68:	8f 93       	push	r24
    1f6a:	88 89       	ldd	r24, Y+16	; 0x10
    1f6c:	8f 93       	push	r24
    1f6e:	8f 85       	ldd	r24, Y+15	; 0x0f
    1f70:	8f 93       	push	r24
    1f72:	8e 85       	ldd	r24, Y+14	; 0x0e
    1f74:	8f 93       	push	r24
    1f76:	8d 85       	ldd	r24, Y+13	; 0x0d
    1f78:	8f 93       	push	r24
    1f7a:	8a 85       	ldd	r24, Y+10	; 0x0a
    1f7c:	8f 93       	push	r24
    1f7e:	89 85       	ldd	r24, Y+9	; 0x09
    1f80:	8f 93       	push	r24
    1f82:	8c 85       	ldd	r24, Y+12	; 0x0c
    1f84:	8f 93       	push	r24
    1f86:	8b 85       	ldd	r24, Y+11	; 0x0b
    1f88:	8f 93       	push	r24
    1f8a:	88 85       	ldd	r24, Y+8	; 0x08
    1f8c:	8f 93       	push	r24
    1f8e:	8f 81       	ldd	r24, Y+7	; 0x07
    1f90:	8f 93       	push	r24
    1f92:	8e 81       	ldd	r24, Y+6	; 0x06
    1f94:	8f 93       	push	r24
    1f96:	8d 81       	ldd	r24, Y+5	; 0x05
    1f98:	8f 93       	push	r24
    1f9a:	8c 81       	ldd	r24, Y+4	; 0x04
    1f9c:	8f 93       	push	r24
    1f9e:	8b 81       	ldd	r24, Y+3	; 0x03
    1fa0:	8f 93       	push	r24
    1fa2:	8a 81       	ldd	r24, Y+2	; 0x02
    1fa4:	8f 93       	push	r24
    1fa6:	89 81       	ldd	r24, Y+1	; 0x01
    1fa8:	8f 93       	push	r24
    1faa:	8e e3       	ldi	r24, 0x3E	; 62
    1fac:	93 e0       	ldi	r25, 0x03	; 3
    1fae:	9f 93       	push	r25
    1fb0:	8f 93       	push	r24
    1fb2:	bf 92       	push	r11
    1fb4:	af 92       	push	r10
    1fb6:	ef d3       	rcall	.+2014   	; 0x2796 <sprintf>
    1fb8:	0f b6       	in	r0, 0x3f	; 63
    1fba:	f8 94       	cli
    1fbc:	de bf       	out	0x3e, r29	; 62
    1fbe:	0f be       	out	0x3f, r0	; 63
    1fc0:	cd bf       	out	0x3d, r28	; 61
    1fc2:	38 c0       	rjmp	.+112    	; 0x2034 <parse_GPS+0x598>
		else if(ns == 1 && ew == 1)
    1fc4:	c9 57       	subi	r28, 0x79	; 121
    1fc6:	df 4f       	sbci	r29, 0xFF	; 255
    1fc8:	e8 81       	ld	r30, Y
    1fca:	f9 81       	ldd	r31, Y+1	; 0x01
    1fcc:	c7 58       	subi	r28, 0x87	; 135
    1fce:	d0 40       	sbci	r29, 0x00	; 0
    1fd0:	31 97       	sbiw	r30, 0x01	; 1
    1fd2:	81 f5       	brne	.+96     	; 0x2034 <parse_GPS+0x598>
			sprintf(out, "\nTime: %.2d:%.2d:%.2d\nLatitude: -%d %d.%d\nLongitude: -%d %d.%d\nAltitude: ", hour, min, sec, latd, latm, lats, lond, lonm, lons);
    1fd4:	8a 89       	ldd	r24, Y+18	; 0x12
    1fd6:	8f 93       	push	r24
    1fd8:	89 89       	ldd	r24, Y+17	; 0x11
    1fda:	8f 93       	push	r24
    1fdc:	88 89       	ldd	r24, Y+16	; 0x10
    1fde:	8f 93       	push	r24
    1fe0:	8f 85       	ldd	r24, Y+15	; 0x0f
    1fe2:	8f 93       	push	r24
    1fe4:	8e 85       	ldd	r24, Y+14	; 0x0e
    1fe6:	8f 93       	push	r24
    1fe8:	8d 85       	ldd	r24, Y+13	; 0x0d
    1fea:	8f 93       	push	r24
    1fec:	8a 85       	ldd	r24, Y+10	; 0x0a
    1fee:	8f 93       	push	r24
    1ff0:	89 85       	ldd	r24, Y+9	; 0x09
    1ff2:	8f 93       	push	r24
    1ff4:	8c 85       	ldd	r24, Y+12	; 0x0c
    1ff6:	8f 93       	push	r24
    1ff8:	8b 85       	ldd	r24, Y+11	; 0x0b
    1ffa:	8f 93       	push	r24
    1ffc:	88 85       	ldd	r24, Y+8	; 0x08
    1ffe:	8f 93       	push	r24
    2000:	8f 81       	ldd	r24, Y+7	; 0x07
    2002:	8f 93       	push	r24
    2004:	8e 81       	ldd	r24, Y+6	; 0x06
    2006:	8f 93       	push	r24
    2008:	8d 81       	ldd	r24, Y+5	; 0x05
    200a:	8f 93       	push	r24
    200c:	8c 81       	ldd	r24, Y+4	; 0x04
    200e:	8f 93       	push	r24
    2010:	8b 81       	ldd	r24, Y+3	; 0x03
    2012:	8f 93       	push	r24
    2014:	8a 81       	ldd	r24, Y+2	; 0x02
    2016:	8f 93       	push	r24
    2018:	89 81       	ldd	r24, Y+1	; 0x01
    201a:	8f 93       	push	r24
    201c:	87 e8       	ldi	r24, 0x87	; 135
    201e:	93 e0       	ldi	r25, 0x03	; 3
    2020:	9f 93       	push	r25
    2022:	8f 93       	push	r24
    2024:	bf 92       	push	r11
    2026:	af 92       	push	r10
    2028:	b6 d3       	rcall	.+1900   	; 0x2796 <sprintf>
    202a:	0f b6       	in	r0, 0x3f	; 63
    202c:	f8 94       	cli
    202e:	de bf       	out	0x3e, r29	; 62
    2030:	0f be       	out	0x3f, r0	; 63
    2032:	cd bf       	out	0x3d, r28	; 61
		strcat(out, temp);
    2034:	be 01       	movw	r22, r28
    2036:	6d 5e       	subi	r22, 0xED	; 237
    2038:	7f 4f       	sbci	r23, 0xFF	; 255
    203a:	c5 01       	movw	r24, r10
    203c:	92 d3       	rcall	.+1828   	; 0x2762 <strcat>
    203e:	24 c0       	rjmp	.+72     	; 0x2088 <parse_GPS+0x5ec>
	}
	else
	{
		sprintf(out, "\nTime: %.2d:%.2d:%.2d\n", hour, min, sec);
    2040:	8e 81       	ldd	r24, Y+6	; 0x06
    2042:	8f 93       	push	r24
    2044:	8d 81       	ldd	r24, Y+5	; 0x05
    2046:	8f 93       	push	r24
    2048:	8c 81       	ldd	r24, Y+4	; 0x04
    204a:	8f 93       	push	r24
    204c:	8b 81       	ldd	r24, Y+3	; 0x03
    204e:	8f 93       	push	r24
    2050:	8a 81       	ldd	r24, Y+2	; 0x02
    2052:	8f 93       	push	r24
    2054:	89 81       	ldd	r24, Y+1	; 0x01
    2056:	8f 93       	push	r24
    2058:	81 ed       	ldi	r24, 0xD1	; 209
    205a:	93 e0       	ldi	r25, 0x03	; 3
    205c:	9f 93       	push	r25
    205e:	8f 93       	push	r24
    2060:	bf 92       	push	r11
    2062:	af 92       	push	r10
    2064:	98 d3       	rcall	.+1840   	; 0x2796 <sprintf>
		strcat(out, "NO GPS DATA AVAILABLE\n");
    2066:	d5 01       	movw	r26, r10
    2068:	0d 90       	ld	r0, X+
    206a:	00 20       	and	r0, r0
    206c:	e9 f7       	brne	.-6      	; 0x2068 <parse_GPS+0x5cc>
    206e:	11 97       	sbiw	r26, 0x01	; 1
    2070:	87 e1       	ldi	r24, 0x17	; 23
    2072:	e8 ee       	ldi	r30, 0xE8	; 232
    2074:	f3 e0       	ldi	r31, 0x03	; 3
    2076:	01 90       	ld	r0, Z+
    2078:	0d 92       	st	X+, r0
    207a:	8a 95       	dec	r24
    207c:	e1 f7       	brne	.-8      	; 0x2076 <parse_GPS+0x5da>
    207e:	0f b6       	in	r0, 0x3f	; 63
    2080:	f8 94       	cli
    2082:	de bf       	out	0x3e, r29	; 62
    2084:	0f be       	out	0x3f, r0	; 63
    2086:	cd bf       	out	0x3d, r28	; 61
	}

	return;
}
    2088:	c8 57       	subi	r28, 0x78	; 120
    208a:	df 4f       	sbci	r29, 0xFF	; 255
    208c:	0f b6       	in	r0, 0x3f	; 63
    208e:	f8 94       	cli
    2090:	de bf       	out	0x3e, r29	; 62
    2092:	0f be       	out	0x3f, r0	; 63
    2094:	cd bf       	out	0x3d, r28	; 61
    2096:	df 91       	pop	r29
    2098:	cf 91       	pop	r28
    209a:	1f 91       	pop	r17
    209c:	0f 91       	pop	r16
    209e:	ff 90       	pop	r15
    20a0:	ef 90       	pop	r14
    20a2:	df 90       	pop	r13
    20a4:	cf 90       	pop	r12
    20a6:	bf 90       	pop	r11
    20a8:	af 90       	pop	r10
    20aa:	9f 90       	pop	r9
    20ac:	8f 90       	pop	r8
    20ae:	7f 90       	pop	r7
    20b0:	6f 90       	pop	r6
    20b2:	5f 90       	pop	r5
    20b4:	4f 90       	pop	r4
    20b6:	3f 90       	pop	r3
    20b8:	2f 90       	pop	r2
    20ba:	08 95       	ret

000020bc <parse_dylos>:

void parse_dylos(char* in, char* out)
{
    20bc:	cf 92       	push	r12
    20be:	df 92       	push	r13
    20c0:	ef 92       	push	r14
    20c2:	ff 92       	push	r15
    20c4:	0f 93       	push	r16
    20c6:	1f 93       	push	r17
    20c8:	cf 93       	push	r28
    20ca:	df 93       	push	r29
    20cc:	cd b7       	in	r28, 0x3d	; 61
    20ce:	de b7       	in	r29, 0x3e	; 62
    20d0:	2e 97       	sbiw	r28, 0x0e	; 14
    20d2:	0f b6       	in	r0, 0x3f	; 63
    20d4:	f8 94       	cli
    20d6:	de bf       	out	0x3e, r29	; 62
    20d8:	0f be       	out	0x3f, r0	; 63
    20da:	cd bf       	out	0x3d, r28	; 61
    20dc:	7b 01       	movw	r14, r22
	int small, large;
	char temp[10];
	sscanf(in, "%d,%d", &small, &large);	
    20de:	9e 01       	movw	r18, r28
    20e0:	2d 5f       	subi	r18, 0xFD	; 253
    20e2:	3f 4f       	sbci	r19, 0xFF	; 255
    20e4:	3f 93       	push	r19
    20e6:	2f 93       	push	r18
    20e8:	22 50       	subi	r18, 0x02	; 2
    20ea:	31 09       	sbc	r19, r1
    20ec:	3f 93       	push	r19
    20ee:	2f 93       	push	r18
    20f0:	2f ef       	ldi	r18, 0xFF	; 255
    20f2:	33 e0       	ldi	r19, 0x03	; 3
    20f4:	3f 93       	push	r19
    20f6:	2f 93       	push	r18
    20f8:	9f 93       	push	r25
    20fa:	8f 93       	push	r24
    20fc:	7b d3       	rcall	.+1782   	; 0x27f4 <sscanf>
	strcat(out, "Small: ");
    20fe:	d7 01       	movw	r26, r14
    2100:	0d 90       	ld	r0, X+
    2102:	00 20       	and	r0, r0
    2104:	e9 f7       	brne	.-6      	; 0x2100 <parse_dylos+0x44>
    2106:	11 97       	sbiw	r26, 0x01	; 1
    2108:	88 e0       	ldi	r24, 0x08	; 8
    210a:	e5 e0       	ldi	r30, 0x05	; 5
    210c:	f4 e0       	ldi	r31, 0x04	; 4
    210e:	01 90       	ld	r0, Z+
    2110:	0d 92       	st	X+, r0
    2112:	8a 95       	dec	r24
    2114:	e1 f7       	brne	.-8      	; 0x210e <parse_dylos+0x52>
	sprintf(temp, "%d\n", small);
    2116:	8a 81       	ldd	r24, Y+2	; 0x02
    2118:	8f 93       	push	r24
    211a:	89 81       	ldd	r24, Y+1	; 0x01
    211c:	8f 93       	push	r24
    211e:	0f 2e       	mov	r0, r31
    2120:	fd e0       	ldi	r31, 0x0D	; 13
    2122:	cf 2e       	mov	r12, r31
    2124:	f4 e0       	ldi	r31, 0x04	; 4
    2126:	df 2e       	mov	r13, r31
    2128:	f0 2d       	mov	r31, r0
    212a:	df 92       	push	r13
    212c:	cf 92       	push	r12
    212e:	8e 01       	movw	r16, r28
    2130:	0b 5f       	subi	r16, 0xFB	; 251
    2132:	1f 4f       	sbci	r17, 0xFF	; 255
    2134:	1f 93       	push	r17
    2136:	0f 93       	push	r16
    2138:	2e d3       	rcall	.+1628   	; 0x2796 <sprintf>
	strcat(out, temp);
    213a:	b8 01       	movw	r22, r16
    213c:	c7 01       	movw	r24, r14
    213e:	11 d3       	rcall	.+1570   	; 0x2762 <strcat>
	strcat(out, "Large: ");
    2140:	d7 01       	movw	r26, r14
    2142:	0d 90       	ld	r0, X+
    2144:	00 20       	and	r0, r0
    2146:	e9 f7       	brne	.-6      	; 0x2142 <parse_dylos+0x86>
    2148:	11 97       	sbiw	r26, 0x01	; 1
    214a:	88 e0       	ldi	r24, 0x08	; 8
    214c:	e1 e1       	ldi	r30, 0x11	; 17
    214e:	f4 e0       	ldi	r31, 0x04	; 4
    2150:	01 90       	ld	r0, Z+
    2152:	0d 92       	st	X+, r0
    2154:	8a 95       	dec	r24
    2156:	e1 f7       	brne	.-8      	; 0x2150 <parse_dylos+0x94>
	sprintf(temp,"%d\n", large);
    2158:	8c 81       	ldd	r24, Y+4	; 0x04
    215a:	8f 93       	push	r24
    215c:	8b 81       	ldd	r24, Y+3	; 0x03
    215e:	8f 93       	push	r24
    2160:	df 92       	push	r13
    2162:	cf 92       	push	r12
    2164:	1f 93       	push	r17
    2166:	0f 93       	push	r16
    2168:	16 d3       	rcall	.+1580   	; 0x2796 <sprintf>
	strcat(out, temp);
    216a:	b8 01       	movw	r22, r16
    216c:	c7 01       	movw	r24, r14
    216e:	f9 d2       	rcall	.+1522   	; 0x2762 <strcat>
    2170:	0f b6       	in	r0, 0x3f	; 63
    2172:	f8 94       	cli
    2174:	de bf       	out	0x3e, r29	; 62
    2176:	0f be       	out	0x3f, r0	; 63
    2178:	cd bf       	out	0x3d, r28	; 61
	return;
}
    217a:	2e 96       	adiw	r28, 0x0e	; 14
    217c:	0f b6       	in	r0, 0x3f	; 63
    217e:	f8 94       	cli
    2180:	de bf       	out	0x3e, r29	; 62
    2182:	0f be       	out	0x3f, r0	; 63
    2184:	cd bf       	out	0x3d, r28	; 61
    2186:	df 91       	pop	r29
    2188:	cf 91       	pop	r28
    218a:	1f 91       	pop	r17
    218c:	0f 91       	pop	r16
    218e:	ff 90       	pop	r15
    2190:	ef 90       	pop	r14
    2192:	df 90       	pop	r13
    2194:	cf 90       	pop	r12
    2196:	08 95       	ret

00002198 <strclr>:

void strclr(char* s)
{	
	for(int i = strlen(s); i > 0; i--)
    2198:	fc 01       	movw	r30, r24
    219a:	01 90       	ld	r0, Z+
    219c:	00 20       	and	r0, r0
    219e:	e9 f7       	brne	.-6      	; 0x219a <strclr+0x2>
    21a0:	31 97       	sbiw	r30, 0x01	; 1
    21a2:	e8 1b       	sub	r30, r24
    21a4:	f9 0b       	sbc	r31, r25
    21a6:	1e 16       	cp	r1, r30
    21a8:	1f 06       	cpc	r1, r31
    21aa:	34 f4       	brge	.+12     	; 0x21b8 <strclr+0x20>
    21ac:	e8 0f       	add	r30, r24
    21ae:	f9 1f       	adc	r31, r25
		s[i-1] = 0;
    21b0:	12 92       	st	-Z, r1
	return;
}

void strclr(char* s)
{	
	for(int i = strlen(s); i > 0; i--)
    21b2:	e8 17       	cp	r30, r24
    21b4:	f9 07       	cpc	r31, r25
    21b6:	e1 f7       	brne	.-8      	; 0x21b0 <strclr+0x18>
    21b8:	08 95       	ret

000021ba <init_GPS>:
		s[i-1] = 0;
}

void init_GPS()
{
	usart_send(1,"$PGCMD,33,0*6D\r\n");
    21ba:	69 e1       	ldi	r22, 0x19	; 25
    21bc:	74 e0       	ldi	r23, 0x04	; 4
    21be:	81 e0       	ldi	r24, 0x01	; 1
    21c0:	90 e0       	ldi	r25, 0x00	; 0
    21c2:	e6 db       	rcall	.-2100   	; 0x1990 <usart_send>
	usart_send(1,"$PMTK220,1000*1F\r\n");
    21c4:	6a e2       	ldi	r22, 0x2A	; 42
    21c6:	74 e0       	ldi	r23, 0x04	; 4
    21c8:	81 e0       	ldi	r24, 0x01	; 1
    21ca:	90 e0       	ldi	r25, 0x00	; 0
    21cc:	e1 db       	rcall	.-2110   	; 0x1990 <usart_send>
	usart_send(1,"$PMTK314,0,0,0,1,0,0,0,0,0,0,0,0,0,0,0,0,0,0,0*29\r\n");
    21ce:	6d e3       	ldi	r22, 0x3D	; 61
    21d0:	74 e0       	ldi	r23, 0x04	; 4
    21d2:	81 e0       	ldi	r24, 0x01	; 1
    21d4:	90 e0       	ldi	r25, 0x00	; 0
    21d6:	dc cb       	rjmp	.-2120   	; 0x1990 <usart_send>
    21d8:	08 95       	ret

000021da <main>:
	rec_GPS[strlen(rec_GPS)] = UDR1;
	rec_GPS_flag = 1;
}

int main(void)
{
    21da:	cf 93       	push	r28
    21dc:	df 93       	push	r29
    21de:	cd b7       	in	r28, 0x3d	; 61
    21e0:	de b7       	in	r29, 0x3e	; 62
    21e2:	ca 5e       	subi	r28, 0xEA	; 234
    21e4:	d1 40       	sbci	r29, 0x01	; 1
    21e6:	0f b6       	in	r0, 0x3f	; 63
    21e8:	f8 94       	cli
    21ea:	de bf       	out	0x3e, r29	; 62
    21ec:	0f be       	out	0x3f, r0	; 63
    21ee:	cd bf       	out	0x3d, r28	; 61
	DDRF = 0;
    21f0:	10 ba       	out	0x10, r1	; 16
	char dylos_line = 0;
	char GPS_parsed[100];
	char dylos_parsed[30];
	char buffer[100];
	char tx[150];
	usart_init(0);
    21f2:	80 e0       	ldi	r24, 0x00	; 0
    21f4:	90 e0       	ldi	r25, 0x00	; 0
    21f6:	8b db       	rcall	.-2282   	; 0x190e <usart_init>
	usart_init(1);
    21f8:	81 e0       	ldi	r24, 0x01	; 1
    21fa:	90 e0       	ldi	r25, 0x00	; 0
    21fc:	88 db       	rcall	.-2288   	; 0x190e <usart_init>
	usart_init(2);
    21fe:	82 e0       	ldi	r24, 0x02	; 2
    2200:	90 e0       	ldi	r25, 0x00	; 0
    2202:	85 db       	rcall	.-2294   	; 0x190e <usart_init>
	usart_init(3);
    2204:	83 e0       	ldi	r24, 0x03	; 3
    2206:	90 e0       	ldi	r25, 0x00	; 0
    2208:	82 db       	rcall	.-2300   	; 0x190e <usart_init>
	init_GPS();
    220a:	d7 df       	rcall	.-82     	; 0x21ba <init_GPS>
	sei();
    220c:	78 94       	sei
{
	DDRF = 0;
	char GPS[100];
	char dylos[10];
	char GPS_line = 0;
	char dylos_line = 0;
    220e:	a1 2c       	mov	r10, r1
int main(void)
{
	DDRF = 0;
	char GPS[100];
	char dylos[10];
	char GPS_line = 0;
    2210:	b1 2c       	mov	r11, r1
			dylos_line = 0;
		}
		
		if(GPS_line == 1)
		{
			strclr(GPS_parsed);
    2212:	8e 01       	movw	r16, r28
    2214:	01 59       	subi	r16, 0x91	; 145
    2216:	1f 4f       	sbci	r17, 0xFF	; 255
			parse_GPS(GPS, GPS_parsed);
			GPS_line = 0;
    2218:	91 2c       	mov	r9, r1
		}

		if(rec_GPS_flag == 1)
		{
			rec_GPS_flag = 0;
			if(rec_GPS[strlen(rec_GPS) - 1] == '\n')
    221a:	0f 2e       	mov	r0, r31
    221c:	f4 e7       	ldi	r31, 0x74	; 116
    221e:	ef 2e       	mov	r14, r31
    2220:	f4 e0       	ldi	r31, 0x04	; 4
    2222:	ff 2e       	mov	r15, r31
    2224:	f0 2d       	mov	r31, r0
			{
				GPS_line = 1;
    2226:	88 24       	eor	r8, r8
    2228:	83 94       	inc	r8
    while (1) 
    {
		if(rec_dylos_flag == 1)
		{
			rec_dylos_flag = 0;
			if(rec_dylos[strlen(rec_dylos) - 1] == '\n')
    222a:	0f 2e       	mov	r0, r31
    222c:	f8 ed       	ldi	r31, 0xD8	; 216
    222e:	cf 2e       	mov	r12, r31
    2230:	f4 e0       	ldi	r31, 0x04	; 4
    2232:	df 2e       	mov	r13, r31
    2234:	f0 2d       	mov	r31, r0
	init_GPS();
	sei();

    while (1) 
    {
		if(rec_dylos_flag == 1)
    2236:	90 91 73 04 	lds	r25, 0x0473
    223a:	91 30       	cpi	r25, 0x01	; 1
    223c:	e1 f4       	brne	.+56     	; 0x2276 <__stack+0x77>
		{
			rec_dylos_flag = 0;
    223e:	90 92 73 04 	sts	0x0473, r9
			if(rec_dylos[strlen(rec_dylos) - 1] == '\n')
    2242:	f6 01       	movw	r30, r12
    2244:	01 90       	ld	r0, Z+
    2246:	00 20       	and	r0, r0
    2248:	e9 f7       	brne	.-6      	; 0x2244 <__stack+0x45>
    224a:	31 97       	sbiw	r30, 0x01	; 1
    224c:	af 01       	movw	r20, r30
    224e:	48 5d       	subi	r20, 0xD8	; 216
    2250:	54 40       	sbci	r21, 0x04	; 4
    2252:	da 01       	movw	r26, r20
    2254:	a9 52       	subi	r26, 0x29	; 41
    2256:	bb 4f       	sbci	r27, 0xFB	; 251
    2258:	8c 91       	ld	r24, X
    225a:	8a 30       	cpi	r24, 0x0A	; 10
    225c:	61 f4       	brne	.+24     	; 0x2276 <__stack+0x77>
			{
				dylos_line = 1;
				strncpy(dylos, rec_dylos, strlen(rec_dylos));
    225e:	b6 01       	movw	r22, r12
    2260:	ce 01       	movw	r24, r28
    2262:	8b 59       	subi	r24, 0x9B	; 155
    2264:	9f 4f       	sbci	r25, 0xFF	; 255
    2266:	88 d2       	rcall	.+1296   	; 0x2778 <strncpy>
				strclr(rec_dylos);			
    2268:	c6 01       	movw	r24, r12
    226a:	96 df       	rcall	.-212    	; 0x2198 <strclr>
			}
		}

		if(rec_GPS_flag == 1)
    226c:	80 91 72 04 	lds	r24, 0x0472
    2270:	81 30       	cpi	r24, 0x01	; 1
    2272:	21 f5       	brne	.+72     	; 0x22bc <__stack+0xbd>
    2274:	7e c0       	rjmp	.+252    	; 0x2372 <__stack+0x173>
    2276:	90 91 72 04 	lds	r25, 0x0472
    227a:	91 30       	cpi	r25, 0x01	; 1
    227c:	d1 f4       	brne	.+52     	; 0x22b2 <__stack+0xb3>
		{
			rec_GPS_flag = 0;
    227e:	90 92 72 04 	sts	0x0472, r9
			if(rec_GPS[strlen(rec_GPS) - 1] == '\n')
    2282:	f7 01       	movw	r30, r14
    2284:	01 90       	ld	r0, Z+
    2286:	00 20       	and	r0, r0
    2288:	e9 f7       	brne	.-6      	; 0x2284 <__stack+0x85>
    228a:	31 97       	sbiw	r30, 0x01	; 1
    228c:	af 01       	movw	r20, r30
    228e:	44 57       	subi	r20, 0x74	; 116
    2290:	54 40       	sbci	r21, 0x04	; 4
    2292:	da 01       	movw	r26, r20
    2294:	ad 58       	subi	r26, 0x8D	; 141
    2296:	bb 4f       	sbci	r27, 0xFB	; 251
    2298:	8c 91       	ld	r24, X
    229a:	8a 30       	cpi	r24, 0x0A	; 10
    229c:	51 f4       	brne	.+20     	; 0x22b2 <__stack+0xb3>
			{
				GPS_line = 1;
				strncpy(GPS, rec_GPS, strlen(rec_GPS));
    229e:	b7 01       	movw	r22, r14
    22a0:	ce 01       	movw	r24, r28
    22a2:	01 96       	adiw	r24, 0x01	; 1
    22a4:	69 d2       	rcall	.+1234   	; 0x2778 <strncpy>
				strclr(rec_GPS);
    22a6:	c7 01       	movw	r24, r14
    22a8:	77 df       	rcall	.-274    	; 0x2198 <strclr>
			}
		}
		
		if(dylos_line == 1)
    22aa:	81 e0       	ldi	r24, 0x01	; 1
    22ac:	a8 12       	cpse	r10, r24
    22ae:	15 c0       	rjmp	.+42     	; 0x22da <__stack+0xdb>
    22b0:	04 c0       	rjmp	.+8      	; 0x22ba <__stack+0xbb>
    22b2:	81 e0       	ldi	r24, 0x01	; 1
    22b4:	a8 12       	cpse	r10, r24
    22b6:	0e c0       	rjmp	.+28     	; 0x22d4 <__stack+0xd5>
    22b8:	01 c0       	rjmp	.+2      	; 0x22bc <__stack+0xbd>
		if(rec_GPS_flag == 1)
		{
			rec_GPS_flag = 0;
			if(rec_GPS[strlen(rec_GPS) - 1] == '\n')
			{
				GPS_line = 1;
    22ba:	b8 2c       	mov	r11, r8
			}
		}
		
		if(dylos_line == 1)
		{
			strclr(dylos_parsed);
    22bc:	ce 01       	movw	r24, r28
    22be:	8d 52       	subi	r24, 0x2D	; 45
    22c0:	9f 4f       	sbci	r25, 0xFF	; 255
    22c2:	6a df       	rcall	.-300    	; 0x2198 <strclr>
			parse_dylos(dylos, dylos_parsed);
    22c4:	be 01       	movw	r22, r28
    22c6:	6d 52       	subi	r22, 0x2D	; 45
    22c8:	7f 4f       	sbci	r23, 0xFF	; 255
    22ca:	ce 01       	movw	r24, r28
    22cc:	8b 59       	subi	r24, 0x9B	; 155
    22ce:	9f 4f       	sbci	r25, 0xFF	; 255
    22d0:	f5 de       	rcall	.-534    	; 0x20bc <parse_dylos>
			dylos_line = 0;
    22d2:	a9 2c       	mov	r10, r9
		}
		
		if(GPS_line == 1)
    22d4:	81 e0       	ldi	r24, 0x01	; 1
    22d6:	b8 12       	cpse	r11, r24
    22d8:	ae cf       	rjmp	.-164    	; 0x2236 <__stack+0x37>
		{
			strclr(GPS_parsed);
    22da:	c8 01       	movw	r24, r16
    22dc:	5d df       	rcall	.-326    	; 0x2198 <strclr>
			parse_GPS(GPS, GPS_parsed);
    22de:	b8 01       	movw	r22, r16
    22e0:	ce 01       	movw	r24, r28
    22e2:	01 96       	adiw	r24, 0x01	; 1
    22e4:	db db       	rcall	.-2122   	; 0x1a9c <parse_GPS>
			GPS_line = 0;
			strncpy(tx, GPS_parsed, strlen(GPS_parsed));
    22e6:	f8 01       	movw	r30, r16
    22e8:	01 90       	ld	r0, Z+
    22ea:	00 20       	and	r0, r0
    22ec:	e9 f7       	brne	.-6      	; 0x22e8 <__stack+0xe9>
    22ee:	31 97       	sbiw	r30, 0x01	; 1
    22f0:	af 01       	movw	r20, r30
    22f2:	40 1b       	sub	r20, r16
    22f4:	51 0b       	sbc	r21, r17
    22f6:	b8 01       	movw	r22, r16
    22f8:	ce 01       	movw	r24, r28
    22fa:	8b 5a       	subi	r24, 0xAB	; 171
    22fc:	9e 4f       	sbci	r25, 0xFE	; 254
    22fe:	3c d2       	rcall	.+1144   	; 0x2778 <strncpy>
			strcat(tx, dylos_parsed);
    2300:	be 01       	movw	r22, r28
    2302:	6d 52       	subi	r22, 0x2D	; 45
    2304:	7f 4f       	sbci	r23, 0xFF	; 255
    2306:	ce 01       	movw	r24, r28
    2308:	8b 5a       	subi	r24, 0xAB	; 171
    230a:	9e 4f       	sbci	r25, 0xFE	; 254
    230c:	2a d2       	rcall	.+1108   	; 0x2762 <strcat>
			read_temp(buffer);
    230e:	ce 01       	movw	r24, r28
    2310:	8f 50       	subi	r24, 0x0F	; 15
    2312:	9f 4f       	sbci	r25, 0xFF	; 255
    2314:	0e 94 00 05 	call	0xa00	; 0xa00 <read_temp>
			read_MQ2(buffer);
    2318:	ce 01       	movw	r24, r28
    231a:	8f 50       	subi	r24, 0x0F	; 15
    231c:	9f 4f       	sbci	r25, 0xFF	; 255
    231e:	0e 94 68 05 	call	0xad0	; 0xad0 <read_MQ2>
			read_MQ5(buffer);
    2322:	ce 01       	movw	r24, r28
    2324:	8f 50       	subi	r24, 0x0F	; 15
    2326:	9f 4f       	sbci	r25, 0xFF	; 255
    2328:	0e 94 c7 07 	call	0xf8e	; 0xf8e <read_MQ5>
			read_MQ7(buffer);
    232c:	ce 01       	movw	r24, r28
    232e:	8f 50       	subi	r24, 0x0F	; 15
    2330:	9f 4f       	sbci	r25, 0xFF	; 255
    2332:	8f d8       	rcall	.-3810   	; 0x1452 <read_MQ7>
			strcat(tx, buffer);
    2334:	be 01       	movw	r22, r28
    2336:	6f 50       	subi	r22, 0x0F	; 15
    2338:	7f 4f       	sbci	r23, 0xFF	; 255
    233a:	ce 01       	movw	r24, r28
    233c:	8b 5a       	subi	r24, 0xAB	; 171
    233e:	9e 4f       	sbci	r25, 0xFE	; 254
    2340:	10 d2       	rcall	.+1056   	; 0x2762 <strcat>
			usart_send(3, tx);
    2342:	be 01       	movw	r22, r28
    2344:	6b 5a       	subi	r22, 0xAB	; 171
    2346:	7e 4f       	sbci	r23, 0xFE	; 254
    2348:	83 e0       	ldi	r24, 0x03	; 3
    234a:	90 e0       	ldi	r25, 0x00	; 0
    234c:	21 db       	rcall	.-2494   	; 0x1990 <usart_send>
			strclr(tx);
    234e:	ce 01       	movw	r24, r28
    2350:	8b 5a       	subi	r24, 0xAB	; 171
    2352:	9e 4f       	sbci	r25, 0xFE	; 254
    2354:	21 df       	rcall	.-446    	; 0x2198 <strclr>
			strclr(buffer);
    2356:	ce 01       	movw	r24, r28
    2358:	8f 50       	subi	r24, 0x0F	; 15
    235a:	9f 4f       	sbci	r25, 0xFF	; 255
    235c:	1d df       	rcall	.-454    	; 0x2198 <strclr>
		
		if(GPS_line == 1)
		{
			strclr(GPS_parsed);
			parse_GPS(GPS, GPS_parsed);
			GPS_line = 0;
    235e:	b9 2c       	mov	r11, r9
    2360:	6a cf       	rjmp	.-300    	; 0x2236 <__stack+0x37>
		{
			rec_GPS_flag = 0;
			if(rec_GPS[strlen(rec_GPS) - 1] == '\n')
			{
				GPS_line = 1;
				strncpy(GPS, rec_GPS, strlen(rec_GPS));
    2362:	b7 01       	movw	r22, r14
    2364:	ce 01       	movw	r24, r28
    2366:	01 96       	adiw	r24, 0x01	; 1
    2368:	07 d2       	rcall	.+1038   	; 0x2778 <strncpy>
				strclr(rec_GPS);
    236a:	c7 01       	movw	r24, r14
    236c:	15 df       	rcall	.-470    	; 0x2198 <strclr>
		if(rec_GPS_flag == 1)
		{
			rec_GPS_flag = 0;
			if(rec_GPS[strlen(rec_GPS) - 1] == '\n')
			{
				GPS_line = 1;
    236e:	b8 2c       	mov	r11, r8
    2370:	a5 cf       	rjmp	.-182    	; 0x22bc <__stack+0xbd>
			}
		}

		if(rec_GPS_flag == 1)
		{
			rec_GPS_flag = 0;
    2372:	90 92 72 04 	sts	0x0472, r9
			if(rec_GPS[strlen(rec_GPS) - 1] == '\n')
    2376:	f7 01       	movw	r30, r14
    2378:	01 90       	ld	r0, Z+
    237a:	00 20       	and	r0, r0
    237c:	e9 f7       	brne	.-6      	; 0x2378 <__stack+0x179>
    237e:	31 97       	sbiw	r30, 0x01	; 1
    2380:	af 01       	movw	r20, r30
    2382:	44 57       	subi	r20, 0x74	; 116
    2384:	54 40       	sbci	r21, 0x04	; 4
    2386:	da 01       	movw	r26, r20
    2388:	ad 58       	subi	r26, 0x8D	; 141
    238a:	bb 4f       	sbci	r27, 0xFB	; 251
    238c:	8c 91       	ld	r24, X
    238e:	8a 30       	cpi	r24, 0x0A	; 10
    2390:	41 f3       	breq	.-48     	; 0x2362 <__stack+0x163>
		if(rec_dylos_flag == 1)
		{
			rec_dylos_flag = 0;
			if(rec_dylos[strlen(rec_dylos) - 1] == '\n')
			{
				dylos_line = 1;
    2392:	a8 2c       	mov	r10, r8
    2394:	8e cf       	rjmp	.-228    	; 0x22b2 <__stack+0xb3>

00002396 <__subsf3>:
    2396:	50 58       	subi	r21, 0x80	; 128

00002398 <__addsf3>:
    2398:	bb 27       	eor	r27, r27
    239a:	aa 27       	eor	r26, r26
    239c:	0e d0       	rcall	.+28     	; 0x23ba <__addsf3x>
    239e:	e5 c0       	rjmp	.+458    	; 0x256a <__fp_round>
    23a0:	d6 d0       	rcall	.+428    	; 0x254e <__fp_pscA>
    23a2:	30 f0       	brcs	.+12     	; 0x23b0 <__addsf3+0x18>
    23a4:	db d0       	rcall	.+438    	; 0x255c <__fp_pscB>
    23a6:	20 f0       	brcs	.+8      	; 0x23b0 <__addsf3+0x18>
    23a8:	31 f4       	brne	.+12     	; 0x23b6 <__addsf3+0x1e>
    23aa:	9f 3f       	cpi	r25, 0xFF	; 255
    23ac:	11 f4       	brne	.+4      	; 0x23b2 <__addsf3+0x1a>
    23ae:	1e f4       	brtc	.+6      	; 0x23b6 <__addsf3+0x1e>
    23b0:	cb c0       	rjmp	.+406    	; 0x2548 <__fp_nan>
    23b2:	0e f4       	brtc	.+2      	; 0x23b6 <__addsf3+0x1e>
    23b4:	e0 95       	com	r30
    23b6:	e7 fb       	bst	r30, 7
    23b8:	c1 c0       	rjmp	.+386    	; 0x253c <__fp_inf>

000023ba <__addsf3x>:
    23ba:	e9 2f       	mov	r30, r25
    23bc:	e7 d0       	rcall	.+462    	; 0x258c <__fp_split3>
    23be:	80 f3       	brcs	.-32     	; 0x23a0 <__addsf3+0x8>
    23c0:	ba 17       	cp	r27, r26
    23c2:	62 07       	cpc	r22, r18
    23c4:	73 07       	cpc	r23, r19
    23c6:	84 07       	cpc	r24, r20
    23c8:	95 07       	cpc	r25, r21
    23ca:	18 f0       	brcs	.+6      	; 0x23d2 <__addsf3x+0x18>
    23cc:	71 f4       	brne	.+28     	; 0x23ea <__addsf3x+0x30>
    23ce:	9e f5       	brtc	.+102    	; 0x2436 <__addsf3x+0x7c>
    23d0:	ff c0       	rjmp	.+510    	; 0x25d0 <__fp_zero>
    23d2:	0e f4       	brtc	.+2      	; 0x23d6 <__addsf3x+0x1c>
    23d4:	e0 95       	com	r30
    23d6:	0b 2e       	mov	r0, r27
    23d8:	ba 2f       	mov	r27, r26
    23da:	a0 2d       	mov	r26, r0
    23dc:	0b 01       	movw	r0, r22
    23de:	b9 01       	movw	r22, r18
    23e0:	90 01       	movw	r18, r0
    23e2:	0c 01       	movw	r0, r24
    23e4:	ca 01       	movw	r24, r20
    23e6:	a0 01       	movw	r20, r0
    23e8:	11 24       	eor	r1, r1
    23ea:	ff 27       	eor	r31, r31
    23ec:	59 1b       	sub	r21, r25
    23ee:	99 f0       	breq	.+38     	; 0x2416 <__addsf3x+0x5c>
    23f0:	59 3f       	cpi	r21, 0xF9	; 249
    23f2:	50 f4       	brcc	.+20     	; 0x2408 <__addsf3x+0x4e>
    23f4:	50 3e       	cpi	r21, 0xE0	; 224
    23f6:	68 f1       	brcs	.+90     	; 0x2452 <__addsf3x+0x98>
    23f8:	1a 16       	cp	r1, r26
    23fa:	f0 40       	sbci	r31, 0x00	; 0
    23fc:	a2 2f       	mov	r26, r18
    23fe:	23 2f       	mov	r18, r19
    2400:	34 2f       	mov	r19, r20
    2402:	44 27       	eor	r20, r20
    2404:	58 5f       	subi	r21, 0xF8	; 248
    2406:	f3 cf       	rjmp	.-26     	; 0x23ee <__addsf3x+0x34>
    2408:	46 95       	lsr	r20
    240a:	37 95       	ror	r19
    240c:	27 95       	ror	r18
    240e:	a7 95       	ror	r26
    2410:	f0 40       	sbci	r31, 0x00	; 0
    2412:	53 95       	inc	r21
    2414:	c9 f7       	brne	.-14     	; 0x2408 <__addsf3x+0x4e>
    2416:	7e f4       	brtc	.+30     	; 0x2436 <__addsf3x+0x7c>
    2418:	1f 16       	cp	r1, r31
    241a:	ba 0b       	sbc	r27, r26
    241c:	62 0b       	sbc	r22, r18
    241e:	73 0b       	sbc	r23, r19
    2420:	84 0b       	sbc	r24, r20
    2422:	ba f0       	brmi	.+46     	; 0x2452 <__addsf3x+0x98>
    2424:	91 50       	subi	r25, 0x01	; 1
    2426:	a1 f0       	breq	.+40     	; 0x2450 <__addsf3x+0x96>
    2428:	ff 0f       	add	r31, r31
    242a:	bb 1f       	adc	r27, r27
    242c:	66 1f       	adc	r22, r22
    242e:	77 1f       	adc	r23, r23
    2430:	88 1f       	adc	r24, r24
    2432:	c2 f7       	brpl	.-16     	; 0x2424 <__addsf3x+0x6a>
    2434:	0e c0       	rjmp	.+28     	; 0x2452 <__addsf3x+0x98>
    2436:	ba 0f       	add	r27, r26
    2438:	62 1f       	adc	r22, r18
    243a:	73 1f       	adc	r23, r19
    243c:	84 1f       	adc	r24, r20
    243e:	48 f4       	brcc	.+18     	; 0x2452 <__addsf3x+0x98>
    2440:	87 95       	ror	r24
    2442:	77 95       	ror	r23
    2444:	67 95       	ror	r22
    2446:	b7 95       	ror	r27
    2448:	f7 95       	ror	r31
    244a:	9e 3f       	cpi	r25, 0xFE	; 254
    244c:	08 f0       	brcs	.+2      	; 0x2450 <__addsf3x+0x96>
    244e:	b3 cf       	rjmp	.-154    	; 0x23b6 <__addsf3+0x1e>
    2450:	93 95       	inc	r25
    2452:	88 0f       	add	r24, r24
    2454:	08 f0       	brcs	.+2      	; 0x2458 <__addsf3x+0x9e>
    2456:	99 27       	eor	r25, r25
    2458:	ee 0f       	add	r30, r30
    245a:	97 95       	ror	r25
    245c:	87 95       	ror	r24
    245e:	08 95       	ret

00002460 <__fixsfsi>:
    2460:	04 d0       	rcall	.+8      	; 0x246a <__fixunssfsi>
    2462:	68 94       	set
    2464:	b1 11       	cpse	r27, r1
    2466:	b5 c0       	rjmp	.+362    	; 0x25d2 <__fp_szero>
    2468:	08 95       	ret

0000246a <__fixunssfsi>:
    246a:	98 d0       	rcall	.+304    	; 0x259c <__fp_splitA>
    246c:	88 f0       	brcs	.+34     	; 0x2490 <__fixunssfsi+0x26>
    246e:	9f 57       	subi	r25, 0x7F	; 127
    2470:	90 f0       	brcs	.+36     	; 0x2496 <__fixunssfsi+0x2c>
    2472:	b9 2f       	mov	r27, r25
    2474:	99 27       	eor	r25, r25
    2476:	b7 51       	subi	r27, 0x17	; 23
    2478:	a0 f0       	brcs	.+40     	; 0x24a2 <__fixunssfsi+0x38>
    247a:	d1 f0       	breq	.+52     	; 0x24b0 <__fixunssfsi+0x46>
    247c:	66 0f       	add	r22, r22
    247e:	77 1f       	adc	r23, r23
    2480:	88 1f       	adc	r24, r24
    2482:	99 1f       	adc	r25, r25
    2484:	1a f0       	brmi	.+6      	; 0x248c <__fixunssfsi+0x22>
    2486:	ba 95       	dec	r27
    2488:	c9 f7       	brne	.-14     	; 0x247c <__fixunssfsi+0x12>
    248a:	12 c0       	rjmp	.+36     	; 0x24b0 <__fixunssfsi+0x46>
    248c:	b1 30       	cpi	r27, 0x01	; 1
    248e:	81 f0       	breq	.+32     	; 0x24b0 <__fixunssfsi+0x46>
    2490:	9f d0       	rcall	.+318    	; 0x25d0 <__fp_zero>
    2492:	b1 e0       	ldi	r27, 0x01	; 1
    2494:	08 95       	ret
    2496:	9c c0       	rjmp	.+312    	; 0x25d0 <__fp_zero>
    2498:	67 2f       	mov	r22, r23
    249a:	78 2f       	mov	r23, r24
    249c:	88 27       	eor	r24, r24
    249e:	b8 5f       	subi	r27, 0xF8	; 248
    24a0:	39 f0       	breq	.+14     	; 0x24b0 <__fixunssfsi+0x46>
    24a2:	b9 3f       	cpi	r27, 0xF9	; 249
    24a4:	cc f3       	brlt	.-14     	; 0x2498 <__fixunssfsi+0x2e>
    24a6:	86 95       	lsr	r24
    24a8:	77 95       	ror	r23
    24aa:	67 95       	ror	r22
    24ac:	b3 95       	inc	r27
    24ae:	d9 f7       	brne	.-10     	; 0x24a6 <__fixunssfsi+0x3c>
    24b0:	3e f4       	brtc	.+14     	; 0x24c0 <__fixunssfsi+0x56>
    24b2:	90 95       	com	r25
    24b4:	80 95       	com	r24
    24b6:	70 95       	com	r23
    24b8:	61 95       	neg	r22
    24ba:	7f 4f       	sbci	r23, 0xFF	; 255
    24bc:	8f 4f       	sbci	r24, 0xFF	; 255
    24be:	9f 4f       	sbci	r25, 0xFF	; 255
    24c0:	08 95       	ret

000024c2 <__floatunsisf>:
    24c2:	e8 94       	clt
    24c4:	09 c0       	rjmp	.+18     	; 0x24d8 <__floatsisf+0x12>

000024c6 <__floatsisf>:
    24c6:	97 fb       	bst	r25, 7
    24c8:	3e f4       	brtc	.+14     	; 0x24d8 <__floatsisf+0x12>
    24ca:	90 95       	com	r25
    24cc:	80 95       	com	r24
    24ce:	70 95       	com	r23
    24d0:	61 95       	neg	r22
    24d2:	7f 4f       	sbci	r23, 0xFF	; 255
    24d4:	8f 4f       	sbci	r24, 0xFF	; 255
    24d6:	9f 4f       	sbci	r25, 0xFF	; 255
    24d8:	99 23       	and	r25, r25
    24da:	a9 f0       	breq	.+42     	; 0x2506 <__floatsisf+0x40>
    24dc:	f9 2f       	mov	r31, r25
    24de:	96 e9       	ldi	r25, 0x96	; 150
    24e0:	bb 27       	eor	r27, r27
    24e2:	93 95       	inc	r25
    24e4:	f6 95       	lsr	r31
    24e6:	87 95       	ror	r24
    24e8:	77 95       	ror	r23
    24ea:	67 95       	ror	r22
    24ec:	b7 95       	ror	r27
    24ee:	f1 11       	cpse	r31, r1
    24f0:	f8 cf       	rjmp	.-16     	; 0x24e2 <__floatsisf+0x1c>
    24f2:	fa f4       	brpl	.+62     	; 0x2532 <__floatsisf+0x6c>
    24f4:	bb 0f       	add	r27, r27
    24f6:	11 f4       	brne	.+4      	; 0x24fc <__floatsisf+0x36>
    24f8:	60 ff       	sbrs	r22, 0
    24fa:	1b c0       	rjmp	.+54     	; 0x2532 <__floatsisf+0x6c>
    24fc:	6f 5f       	subi	r22, 0xFF	; 255
    24fe:	7f 4f       	sbci	r23, 0xFF	; 255
    2500:	8f 4f       	sbci	r24, 0xFF	; 255
    2502:	9f 4f       	sbci	r25, 0xFF	; 255
    2504:	16 c0       	rjmp	.+44     	; 0x2532 <__floatsisf+0x6c>
    2506:	88 23       	and	r24, r24
    2508:	11 f0       	breq	.+4      	; 0x250e <__floatsisf+0x48>
    250a:	96 e9       	ldi	r25, 0x96	; 150
    250c:	11 c0       	rjmp	.+34     	; 0x2530 <__floatsisf+0x6a>
    250e:	77 23       	and	r23, r23
    2510:	21 f0       	breq	.+8      	; 0x251a <__floatsisf+0x54>
    2512:	9e e8       	ldi	r25, 0x8E	; 142
    2514:	87 2f       	mov	r24, r23
    2516:	76 2f       	mov	r23, r22
    2518:	05 c0       	rjmp	.+10     	; 0x2524 <__floatsisf+0x5e>
    251a:	66 23       	and	r22, r22
    251c:	71 f0       	breq	.+28     	; 0x253a <__floatsisf+0x74>
    251e:	96 e8       	ldi	r25, 0x86	; 134
    2520:	86 2f       	mov	r24, r22
    2522:	70 e0       	ldi	r23, 0x00	; 0
    2524:	60 e0       	ldi	r22, 0x00	; 0
    2526:	2a f0       	brmi	.+10     	; 0x2532 <__floatsisf+0x6c>
    2528:	9a 95       	dec	r25
    252a:	66 0f       	add	r22, r22
    252c:	77 1f       	adc	r23, r23
    252e:	88 1f       	adc	r24, r24
    2530:	da f7       	brpl	.-10     	; 0x2528 <__floatsisf+0x62>
    2532:	88 0f       	add	r24, r24
    2534:	96 95       	lsr	r25
    2536:	87 95       	ror	r24
    2538:	97 f9       	bld	r25, 7
    253a:	08 95       	ret

0000253c <__fp_inf>:
    253c:	97 f9       	bld	r25, 7
    253e:	9f 67       	ori	r25, 0x7F	; 127
    2540:	80 e8       	ldi	r24, 0x80	; 128
    2542:	70 e0       	ldi	r23, 0x00	; 0
    2544:	60 e0       	ldi	r22, 0x00	; 0
    2546:	08 95       	ret

00002548 <__fp_nan>:
    2548:	9f ef       	ldi	r25, 0xFF	; 255
    254a:	80 ec       	ldi	r24, 0xC0	; 192
    254c:	08 95       	ret

0000254e <__fp_pscA>:
    254e:	00 24       	eor	r0, r0
    2550:	0a 94       	dec	r0
    2552:	16 16       	cp	r1, r22
    2554:	17 06       	cpc	r1, r23
    2556:	18 06       	cpc	r1, r24
    2558:	09 06       	cpc	r0, r25
    255a:	08 95       	ret

0000255c <__fp_pscB>:
    255c:	00 24       	eor	r0, r0
    255e:	0a 94       	dec	r0
    2560:	12 16       	cp	r1, r18
    2562:	13 06       	cpc	r1, r19
    2564:	14 06       	cpc	r1, r20
    2566:	05 06       	cpc	r0, r21
    2568:	08 95       	ret

0000256a <__fp_round>:
    256a:	09 2e       	mov	r0, r25
    256c:	03 94       	inc	r0
    256e:	00 0c       	add	r0, r0
    2570:	11 f4       	brne	.+4      	; 0x2576 <__fp_round+0xc>
    2572:	88 23       	and	r24, r24
    2574:	52 f0       	brmi	.+20     	; 0x258a <__fp_round+0x20>
    2576:	bb 0f       	add	r27, r27
    2578:	40 f4       	brcc	.+16     	; 0x258a <__fp_round+0x20>
    257a:	bf 2b       	or	r27, r31
    257c:	11 f4       	brne	.+4      	; 0x2582 <__fp_round+0x18>
    257e:	60 ff       	sbrs	r22, 0
    2580:	04 c0       	rjmp	.+8      	; 0x258a <__fp_round+0x20>
    2582:	6f 5f       	subi	r22, 0xFF	; 255
    2584:	7f 4f       	sbci	r23, 0xFF	; 255
    2586:	8f 4f       	sbci	r24, 0xFF	; 255
    2588:	9f 4f       	sbci	r25, 0xFF	; 255
    258a:	08 95       	ret

0000258c <__fp_split3>:
    258c:	57 fd       	sbrc	r21, 7
    258e:	90 58       	subi	r25, 0x80	; 128
    2590:	44 0f       	add	r20, r20
    2592:	55 1f       	adc	r21, r21
    2594:	59 f0       	breq	.+22     	; 0x25ac <__fp_splitA+0x10>
    2596:	5f 3f       	cpi	r21, 0xFF	; 255
    2598:	71 f0       	breq	.+28     	; 0x25b6 <__fp_splitA+0x1a>
    259a:	47 95       	ror	r20

0000259c <__fp_splitA>:
    259c:	88 0f       	add	r24, r24
    259e:	97 fb       	bst	r25, 7
    25a0:	99 1f       	adc	r25, r25
    25a2:	61 f0       	breq	.+24     	; 0x25bc <__fp_splitA+0x20>
    25a4:	9f 3f       	cpi	r25, 0xFF	; 255
    25a6:	79 f0       	breq	.+30     	; 0x25c6 <__fp_splitA+0x2a>
    25a8:	87 95       	ror	r24
    25aa:	08 95       	ret
    25ac:	12 16       	cp	r1, r18
    25ae:	13 06       	cpc	r1, r19
    25b0:	14 06       	cpc	r1, r20
    25b2:	55 1f       	adc	r21, r21
    25b4:	f2 cf       	rjmp	.-28     	; 0x259a <__fp_split3+0xe>
    25b6:	46 95       	lsr	r20
    25b8:	f1 df       	rcall	.-30     	; 0x259c <__fp_splitA>
    25ba:	08 c0       	rjmp	.+16     	; 0x25cc <__fp_splitA+0x30>
    25bc:	16 16       	cp	r1, r22
    25be:	17 06       	cpc	r1, r23
    25c0:	18 06       	cpc	r1, r24
    25c2:	99 1f       	adc	r25, r25
    25c4:	f1 cf       	rjmp	.-30     	; 0x25a8 <__fp_splitA+0xc>
    25c6:	86 95       	lsr	r24
    25c8:	71 05       	cpc	r23, r1
    25ca:	61 05       	cpc	r22, r1
    25cc:	08 94       	sec
    25ce:	08 95       	ret

000025d0 <__fp_zero>:
    25d0:	e8 94       	clt

000025d2 <__fp_szero>:
    25d2:	bb 27       	eor	r27, r27
    25d4:	66 27       	eor	r22, r22
    25d6:	77 27       	eor	r23, r23
    25d8:	cb 01       	movw	r24, r22
    25da:	97 f9       	bld	r25, 7
    25dc:	08 95       	ret

000025de <__mulsf3>:
    25de:	0b d0       	rcall	.+22     	; 0x25f6 <__mulsf3x>
    25e0:	c4 cf       	rjmp	.-120    	; 0x256a <__fp_round>
    25e2:	b5 df       	rcall	.-150    	; 0x254e <__fp_pscA>
    25e4:	28 f0       	brcs	.+10     	; 0x25f0 <__mulsf3+0x12>
    25e6:	ba df       	rcall	.-140    	; 0x255c <__fp_pscB>
    25e8:	18 f0       	brcs	.+6      	; 0x25f0 <__mulsf3+0x12>
    25ea:	95 23       	and	r25, r21
    25ec:	09 f0       	breq	.+2      	; 0x25f0 <__mulsf3+0x12>
    25ee:	a6 cf       	rjmp	.-180    	; 0x253c <__fp_inf>
    25f0:	ab cf       	rjmp	.-170    	; 0x2548 <__fp_nan>
    25f2:	11 24       	eor	r1, r1
    25f4:	ee cf       	rjmp	.-36     	; 0x25d2 <__fp_szero>

000025f6 <__mulsf3x>:
    25f6:	ca df       	rcall	.-108    	; 0x258c <__fp_split3>
    25f8:	a0 f3       	brcs	.-24     	; 0x25e2 <__mulsf3+0x4>

000025fa <__mulsf3_pse>:
    25fa:	95 9f       	mul	r25, r21
    25fc:	d1 f3       	breq	.-12     	; 0x25f2 <__mulsf3+0x14>
    25fe:	95 0f       	add	r25, r21
    2600:	50 e0       	ldi	r21, 0x00	; 0
    2602:	55 1f       	adc	r21, r21
    2604:	62 9f       	mul	r22, r18
    2606:	f0 01       	movw	r30, r0
    2608:	72 9f       	mul	r23, r18
    260a:	bb 27       	eor	r27, r27
    260c:	f0 0d       	add	r31, r0
    260e:	b1 1d       	adc	r27, r1
    2610:	63 9f       	mul	r22, r19
    2612:	aa 27       	eor	r26, r26
    2614:	f0 0d       	add	r31, r0
    2616:	b1 1d       	adc	r27, r1
    2618:	aa 1f       	adc	r26, r26
    261a:	64 9f       	mul	r22, r20
    261c:	66 27       	eor	r22, r22
    261e:	b0 0d       	add	r27, r0
    2620:	a1 1d       	adc	r26, r1
    2622:	66 1f       	adc	r22, r22
    2624:	82 9f       	mul	r24, r18
    2626:	22 27       	eor	r18, r18
    2628:	b0 0d       	add	r27, r0
    262a:	a1 1d       	adc	r26, r1
    262c:	62 1f       	adc	r22, r18
    262e:	73 9f       	mul	r23, r19
    2630:	b0 0d       	add	r27, r0
    2632:	a1 1d       	adc	r26, r1
    2634:	62 1f       	adc	r22, r18
    2636:	83 9f       	mul	r24, r19
    2638:	a0 0d       	add	r26, r0
    263a:	61 1d       	adc	r22, r1
    263c:	22 1f       	adc	r18, r18
    263e:	74 9f       	mul	r23, r20
    2640:	33 27       	eor	r19, r19
    2642:	a0 0d       	add	r26, r0
    2644:	61 1d       	adc	r22, r1
    2646:	23 1f       	adc	r18, r19
    2648:	84 9f       	mul	r24, r20
    264a:	60 0d       	add	r22, r0
    264c:	21 1d       	adc	r18, r1
    264e:	82 2f       	mov	r24, r18
    2650:	76 2f       	mov	r23, r22
    2652:	6a 2f       	mov	r22, r26
    2654:	11 24       	eor	r1, r1
    2656:	9f 57       	subi	r25, 0x7F	; 127
    2658:	50 40       	sbci	r21, 0x00	; 0
    265a:	8a f0       	brmi	.+34     	; 0x267e <__mulsf3_pse+0x84>
    265c:	e1 f0       	breq	.+56     	; 0x2696 <__mulsf3_pse+0x9c>
    265e:	88 23       	and	r24, r24
    2660:	4a f0       	brmi	.+18     	; 0x2674 <__mulsf3_pse+0x7a>
    2662:	ee 0f       	add	r30, r30
    2664:	ff 1f       	adc	r31, r31
    2666:	bb 1f       	adc	r27, r27
    2668:	66 1f       	adc	r22, r22
    266a:	77 1f       	adc	r23, r23
    266c:	88 1f       	adc	r24, r24
    266e:	91 50       	subi	r25, 0x01	; 1
    2670:	50 40       	sbci	r21, 0x00	; 0
    2672:	a9 f7       	brne	.-22     	; 0x265e <__mulsf3_pse+0x64>
    2674:	9e 3f       	cpi	r25, 0xFE	; 254
    2676:	51 05       	cpc	r21, r1
    2678:	70 f0       	brcs	.+28     	; 0x2696 <__mulsf3_pse+0x9c>
    267a:	60 cf       	rjmp	.-320    	; 0x253c <__fp_inf>
    267c:	aa cf       	rjmp	.-172    	; 0x25d2 <__fp_szero>
    267e:	5f 3f       	cpi	r21, 0xFF	; 255
    2680:	ec f3       	brlt	.-6      	; 0x267c <__mulsf3_pse+0x82>
    2682:	98 3e       	cpi	r25, 0xE8	; 232
    2684:	dc f3       	brlt	.-10     	; 0x267c <__mulsf3_pse+0x82>
    2686:	86 95       	lsr	r24
    2688:	77 95       	ror	r23
    268a:	67 95       	ror	r22
    268c:	b7 95       	ror	r27
    268e:	f7 95       	ror	r31
    2690:	e7 95       	ror	r30
    2692:	9f 5f       	subi	r25, 0xFF	; 255
    2694:	c1 f7       	brne	.-16     	; 0x2686 <__mulsf3_pse+0x8c>
    2696:	fe 2b       	or	r31, r30
    2698:	88 0f       	add	r24, r24
    269a:	91 1d       	adc	r25, r1
    269c:	96 95       	lsr	r25
    269e:	87 95       	ror	r24
    26a0:	97 f9       	bld	r25, 7
    26a2:	08 95       	ret

000026a4 <__divmodsi4>:
    26a4:	05 2e       	mov	r0, r21
    26a6:	97 fb       	bst	r25, 7
    26a8:	16 f4       	brtc	.+4      	; 0x26ae <__divmodsi4+0xa>
    26aa:	00 94       	com	r0
    26ac:	0f d0       	rcall	.+30     	; 0x26cc <__negsi2>
    26ae:	57 fd       	sbrc	r21, 7
    26b0:	05 d0       	rcall	.+10     	; 0x26bc <__divmodsi4_neg2>
    26b2:	26 d0       	rcall	.+76     	; 0x2700 <__udivmodsi4>
    26b4:	07 fc       	sbrc	r0, 7
    26b6:	02 d0       	rcall	.+4      	; 0x26bc <__divmodsi4_neg2>
    26b8:	46 f4       	brtc	.+16     	; 0x26ca <__divmodsi4_exit>
    26ba:	08 c0       	rjmp	.+16     	; 0x26cc <__negsi2>

000026bc <__divmodsi4_neg2>:
    26bc:	50 95       	com	r21
    26be:	40 95       	com	r20
    26c0:	30 95       	com	r19
    26c2:	21 95       	neg	r18
    26c4:	3f 4f       	sbci	r19, 0xFF	; 255
    26c6:	4f 4f       	sbci	r20, 0xFF	; 255
    26c8:	5f 4f       	sbci	r21, 0xFF	; 255

000026ca <__divmodsi4_exit>:
    26ca:	08 95       	ret

000026cc <__negsi2>:
    26cc:	90 95       	com	r25
    26ce:	80 95       	com	r24
    26d0:	70 95       	com	r23
    26d2:	61 95       	neg	r22
    26d4:	7f 4f       	sbci	r23, 0xFF	; 255
    26d6:	8f 4f       	sbci	r24, 0xFF	; 255
    26d8:	9f 4f       	sbci	r25, 0xFF	; 255
    26da:	08 95       	ret

000026dc <__tablejump2__>:
    26dc:	ee 0f       	add	r30, r30
    26de:	ff 1f       	adc	r31, r31
    26e0:	88 1f       	adc	r24, r24
    26e2:	8b bf       	out	0x3b, r24	; 59
    26e4:	07 90       	elpm	r0, Z+
    26e6:	f6 91       	elpm	r31, Z
    26e8:	e0 2d       	mov	r30, r0
    26ea:	19 94       	eijmp

000026ec <__muluhisi3>:
    26ec:	2b d0       	rcall	.+86     	; 0x2744 <__umulhisi3>
    26ee:	a5 9f       	mul	r26, r21
    26f0:	90 0d       	add	r25, r0
    26f2:	b4 9f       	mul	r27, r20
    26f4:	90 0d       	add	r25, r0
    26f6:	a4 9f       	mul	r26, r20
    26f8:	80 0d       	add	r24, r0
    26fa:	91 1d       	adc	r25, r1
    26fc:	11 24       	eor	r1, r1
    26fe:	08 95       	ret

00002700 <__udivmodsi4>:
    2700:	a1 e2       	ldi	r26, 0x21	; 33
    2702:	1a 2e       	mov	r1, r26
    2704:	aa 1b       	sub	r26, r26
    2706:	bb 1b       	sub	r27, r27
    2708:	fd 01       	movw	r30, r26
    270a:	0d c0       	rjmp	.+26     	; 0x2726 <__udivmodsi4_ep>

0000270c <__udivmodsi4_loop>:
    270c:	aa 1f       	adc	r26, r26
    270e:	bb 1f       	adc	r27, r27
    2710:	ee 1f       	adc	r30, r30
    2712:	ff 1f       	adc	r31, r31
    2714:	a2 17       	cp	r26, r18
    2716:	b3 07       	cpc	r27, r19
    2718:	e4 07       	cpc	r30, r20
    271a:	f5 07       	cpc	r31, r21
    271c:	20 f0       	brcs	.+8      	; 0x2726 <__udivmodsi4_ep>
    271e:	a2 1b       	sub	r26, r18
    2720:	b3 0b       	sbc	r27, r19
    2722:	e4 0b       	sbc	r30, r20
    2724:	f5 0b       	sbc	r31, r21

00002726 <__udivmodsi4_ep>:
    2726:	66 1f       	adc	r22, r22
    2728:	77 1f       	adc	r23, r23
    272a:	88 1f       	adc	r24, r24
    272c:	99 1f       	adc	r25, r25
    272e:	1a 94       	dec	r1
    2730:	69 f7       	brne	.-38     	; 0x270c <__udivmodsi4_loop>
    2732:	60 95       	com	r22
    2734:	70 95       	com	r23
    2736:	80 95       	com	r24
    2738:	90 95       	com	r25
    273a:	9b 01       	movw	r18, r22
    273c:	ac 01       	movw	r20, r24
    273e:	bd 01       	movw	r22, r26
    2740:	cf 01       	movw	r24, r30
    2742:	08 95       	ret

00002744 <__umulhisi3>:
    2744:	a2 9f       	mul	r26, r18
    2746:	b0 01       	movw	r22, r0
    2748:	b3 9f       	mul	r27, r19
    274a:	c0 01       	movw	r24, r0
    274c:	a3 9f       	mul	r26, r19
    274e:	70 0d       	add	r23, r0
    2750:	81 1d       	adc	r24, r1
    2752:	11 24       	eor	r1, r1
    2754:	91 1d       	adc	r25, r1
    2756:	b2 9f       	mul	r27, r18
    2758:	70 0d       	add	r23, r0
    275a:	81 1d       	adc	r24, r1
    275c:	11 24       	eor	r1, r1
    275e:	91 1d       	adc	r25, r1
    2760:	08 95       	ret

00002762 <strcat>:
    2762:	fb 01       	movw	r30, r22
    2764:	dc 01       	movw	r26, r24
    2766:	0d 90       	ld	r0, X+
    2768:	00 20       	and	r0, r0
    276a:	e9 f7       	brne	.-6      	; 0x2766 <strcat+0x4>
    276c:	11 97       	sbiw	r26, 0x01	; 1
    276e:	01 90       	ld	r0, Z+
    2770:	0d 92       	st	X+, r0
    2772:	00 20       	and	r0, r0
    2774:	e1 f7       	brne	.-8      	; 0x276e <strcat+0xc>
    2776:	08 95       	ret

00002778 <strncpy>:
    2778:	fb 01       	movw	r30, r22
    277a:	dc 01       	movw	r26, r24
    277c:	41 50       	subi	r20, 0x01	; 1
    277e:	50 40       	sbci	r21, 0x00	; 0
    2780:	48 f0       	brcs	.+18     	; 0x2794 <strncpy+0x1c>
    2782:	01 90       	ld	r0, Z+
    2784:	0d 92       	st	X+, r0
    2786:	00 20       	and	r0, r0
    2788:	c9 f7       	brne	.-14     	; 0x277c <strncpy+0x4>
    278a:	01 c0       	rjmp	.+2      	; 0x278e <strncpy+0x16>
    278c:	1d 92       	st	X+, r1
    278e:	41 50       	subi	r20, 0x01	; 1
    2790:	50 40       	sbci	r21, 0x00	; 0
    2792:	e0 f7       	brcc	.-8      	; 0x278c <strncpy+0x14>
    2794:	08 95       	ret

00002796 <sprintf>:
    2796:	0f 93       	push	r16
    2798:	1f 93       	push	r17
    279a:	cf 93       	push	r28
    279c:	df 93       	push	r29
    279e:	cd b7       	in	r28, 0x3d	; 61
    27a0:	de b7       	in	r29, 0x3e	; 62
    27a2:	2e 97       	sbiw	r28, 0x0e	; 14
    27a4:	0f b6       	in	r0, 0x3f	; 63
    27a6:	f8 94       	cli
    27a8:	de bf       	out	0x3e, r29	; 62
    27aa:	0f be       	out	0x3f, r0	; 63
    27ac:	cd bf       	out	0x3d, r28	; 61
    27ae:	0e 89       	ldd	r16, Y+22	; 0x16
    27b0:	1f 89       	ldd	r17, Y+23	; 0x17
    27b2:	86 e0       	ldi	r24, 0x06	; 6
    27b4:	8c 83       	std	Y+4, r24	; 0x04
    27b6:	1a 83       	std	Y+2, r17	; 0x02
    27b8:	09 83       	std	Y+1, r16	; 0x01
    27ba:	8f ef       	ldi	r24, 0xFF	; 255
    27bc:	9f e7       	ldi	r25, 0x7F	; 127
    27be:	9e 83       	std	Y+6, r25	; 0x06
    27c0:	8d 83       	std	Y+5, r24	; 0x05
    27c2:	ae 01       	movw	r20, r28
    27c4:	46 5e       	subi	r20, 0xE6	; 230
    27c6:	5f 4f       	sbci	r21, 0xFF	; 255
    27c8:	68 8d       	ldd	r22, Y+24	; 0x18
    27ca:	79 8d       	ldd	r23, Y+25	; 0x19
    27cc:	ce 01       	movw	r24, r28
    27ce:	01 96       	adiw	r24, 0x01	; 1
    27d0:	32 d0       	rcall	.+100    	; 0x2836 <vfprintf>
    27d2:	2f 81       	ldd	r18, Y+7	; 0x07
    27d4:	38 85       	ldd	r19, Y+8	; 0x08
    27d6:	f8 01       	movw	r30, r16
    27d8:	e2 0f       	add	r30, r18
    27da:	f3 1f       	adc	r31, r19
    27dc:	10 82       	st	Z, r1
    27de:	2e 96       	adiw	r28, 0x0e	; 14
    27e0:	0f b6       	in	r0, 0x3f	; 63
    27e2:	f8 94       	cli
    27e4:	de bf       	out	0x3e, r29	; 62
    27e6:	0f be       	out	0x3f, r0	; 63
    27e8:	cd bf       	out	0x3d, r28	; 61
    27ea:	df 91       	pop	r29
    27ec:	cf 91       	pop	r28
    27ee:	1f 91       	pop	r17
    27f0:	0f 91       	pop	r16
    27f2:	08 95       	ret

000027f4 <sscanf>:
    27f4:	cf 93       	push	r28
    27f6:	df 93       	push	r29
    27f8:	cd b7       	in	r28, 0x3d	; 61
    27fa:	de b7       	in	r29, 0x3e	; 62
    27fc:	2e 97       	sbiw	r28, 0x0e	; 14
    27fe:	0f b6       	in	r0, 0x3f	; 63
    2800:	f8 94       	cli
    2802:	de bf       	out	0x3e, r29	; 62
    2804:	0f be       	out	0x3f, r0	; 63
    2806:	cd bf       	out	0x3d, r28	; 61
    2808:	85 e0       	ldi	r24, 0x05	; 5
    280a:	8c 83       	std	Y+4, r24	; 0x04
    280c:	8c 89       	ldd	r24, Y+20	; 0x14
    280e:	9d 89       	ldd	r25, Y+21	; 0x15
    2810:	9a 83       	std	Y+2, r25	; 0x02
    2812:	89 83       	std	Y+1, r24	; 0x01
    2814:	ae 01       	movw	r20, r28
    2816:	48 5e       	subi	r20, 0xE8	; 232
    2818:	5f 4f       	sbci	r21, 0xFF	; 255
    281a:	6e 89       	ldd	r22, Y+22	; 0x16
    281c:	7f 89       	ldd	r23, Y+23	; 0x17
    281e:	ce 01       	movw	r24, r28
    2820:	01 96       	adiw	r24, 0x01	; 1
    2822:	9e d3       	rcall	.+1852   	; 0x2f60 <vfscanf>
    2824:	2e 96       	adiw	r28, 0x0e	; 14
    2826:	0f b6       	in	r0, 0x3f	; 63
    2828:	f8 94       	cli
    282a:	de bf       	out	0x3e, r29	; 62
    282c:	0f be       	out	0x3f, r0	; 63
    282e:	cd bf       	out	0x3d, r28	; 61
    2830:	df 91       	pop	r29
    2832:	cf 91       	pop	r28
    2834:	08 95       	ret

00002836 <vfprintf>:
    2836:	2f 92       	push	r2
    2838:	3f 92       	push	r3
    283a:	4f 92       	push	r4
    283c:	5f 92       	push	r5
    283e:	6f 92       	push	r6
    2840:	7f 92       	push	r7
    2842:	8f 92       	push	r8
    2844:	9f 92       	push	r9
    2846:	af 92       	push	r10
    2848:	bf 92       	push	r11
    284a:	cf 92       	push	r12
    284c:	df 92       	push	r13
    284e:	ef 92       	push	r14
    2850:	ff 92       	push	r15
    2852:	0f 93       	push	r16
    2854:	1f 93       	push	r17
    2856:	cf 93       	push	r28
    2858:	df 93       	push	r29
    285a:	cd b7       	in	r28, 0x3d	; 61
    285c:	de b7       	in	r29, 0x3e	; 62
    285e:	2c 97       	sbiw	r28, 0x0c	; 12
    2860:	0f b6       	in	r0, 0x3f	; 63
    2862:	f8 94       	cli
    2864:	de bf       	out	0x3e, r29	; 62
    2866:	0f be       	out	0x3f, r0	; 63
    2868:	cd bf       	out	0x3d, r28	; 61
    286a:	7c 01       	movw	r14, r24
    286c:	6b 01       	movw	r12, r22
    286e:	8a 01       	movw	r16, r20
    2870:	fc 01       	movw	r30, r24
    2872:	17 82       	std	Z+7, r1	; 0x07
    2874:	16 82       	std	Z+6, r1	; 0x06
    2876:	83 81       	ldd	r24, Z+3	; 0x03
    2878:	81 ff       	sbrs	r24, 1
    287a:	b0 c1       	rjmp	.+864    	; 0x2bdc <vfprintf+0x3a6>
    287c:	ce 01       	movw	r24, r28
    287e:	01 96       	adiw	r24, 0x01	; 1
    2880:	4c 01       	movw	r8, r24
    2882:	f7 01       	movw	r30, r14
    2884:	93 81       	ldd	r25, Z+3	; 0x03
    2886:	f6 01       	movw	r30, r12
    2888:	93 fd       	sbrc	r25, 3
    288a:	85 91       	lpm	r24, Z+
    288c:	93 ff       	sbrs	r25, 3
    288e:	81 91       	ld	r24, Z+
    2890:	6f 01       	movw	r12, r30
    2892:	88 23       	and	r24, r24
    2894:	09 f4       	brne	.+2      	; 0x2898 <vfprintf+0x62>
    2896:	9e c1       	rjmp	.+828    	; 0x2bd4 <vfprintf+0x39e>
    2898:	85 32       	cpi	r24, 0x25	; 37
    289a:	39 f4       	brne	.+14     	; 0x28aa <vfprintf+0x74>
    289c:	93 fd       	sbrc	r25, 3
    289e:	85 91       	lpm	r24, Z+
    28a0:	93 ff       	sbrs	r25, 3
    28a2:	81 91       	ld	r24, Z+
    28a4:	6f 01       	movw	r12, r30
    28a6:	85 32       	cpi	r24, 0x25	; 37
    28a8:	21 f4       	brne	.+8      	; 0x28b2 <vfprintf+0x7c>
    28aa:	b7 01       	movw	r22, r14
    28ac:	90 e0       	ldi	r25, 0x00	; 0
    28ae:	df d4       	rcall	.+2494   	; 0x326e <fputc>
    28b0:	e8 cf       	rjmp	.-48     	; 0x2882 <vfprintf+0x4c>
    28b2:	51 2c       	mov	r5, r1
    28b4:	31 2c       	mov	r3, r1
    28b6:	20 e0       	ldi	r18, 0x00	; 0
    28b8:	20 32       	cpi	r18, 0x20	; 32
    28ba:	a0 f4       	brcc	.+40     	; 0x28e4 <vfprintf+0xae>
    28bc:	8b 32       	cpi	r24, 0x2B	; 43
    28be:	69 f0       	breq	.+26     	; 0x28da <vfprintf+0xa4>
    28c0:	30 f4       	brcc	.+12     	; 0x28ce <vfprintf+0x98>
    28c2:	80 32       	cpi	r24, 0x20	; 32
    28c4:	59 f0       	breq	.+22     	; 0x28dc <vfprintf+0xa6>
    28c6:	83 32       	cpi	r24, 0x23	; 35
    28c8:	69 f4       	brne	.+26     	; 0x28e4 <vfprintf+0xae>
    28ca:	20 61       	ori	r18, 0x10	; 16
    28cc:	2c c0       	rjmp	.+88     	; 0x2926 <vfprintf+0xf0>
    28ce:	8d 32       	cpi	r24, 0x2D	; 45
    28d0:	39 f0       	breq	.+14     	; 0x28e0 <vfprintf+0xaa>
    28d2:	80 33       	cpi	r24, 0x30	; 48
    28d4:	39 f4       	brne	.+14     	; 0x28e4 <vfprintf+0xae>
    28d6:	21 60       	ori	r18, 0x01	; 1
    28d8:	26 c0       	rjmp	.+76     	; 0x2926 <vfprintf+0xf0>
    28da:	22 60       	ori	r18, 0x02	; 2
    28dc:	24 60       	ori	r18, 0x04	; 4
    28de:	23 c0       	rjmp	.+70     	; 0x2926 <vfprintf+0xf0>
    28e0:	28 60       	ori	r18, 0x08	; 8
    28e2:	21 c0       	rjmp	.+66     	; 0x2926 <vfprintf+0xf0>
    28e4:	27 fd       	sbrc	r18, 7
    28e6:	27 c0       	rjmp	.+78     	; 0x2936 <vfprintf+0x100>
    28e8:	30 ed       	ldi	r19, 0xD0	; 208
    28ea:	38 0f       	add	r19, r24
    28ec:	3a 30       	cpi	r19, 0x0A	; 10
    28ee:	78 f4       	brcc	.+30     	; 0x290e <vfprintf+0xd8>
    28f0:	26 ff       	sbrs	r18, 6
    28f2:	06 c0       	rjmp	.+12     	; 0x2900 <vfprintf+0xca>
    28f4:	fa e0       	ldi	r31, 0x0A	; 10
    28f6:	5f 9e       	mul	r5, r31
    28f8:	30 0d       	add	r19, r0
    28fa:	11 24       	eor	r1, r1
    28fc:	53 2e       	mov	r5, r19
    28fe:	13 c0       	rjmp	.+38     	; 0x2926 <vfprintf+0xf0>
    2900:	8a e0       	ldi	r24, 0x0A	; 10
    2902:	38 9e       	mul	r3, r24
    2904:	30 0d       	add	r19, r0
    2906:	11 24       	eor	r1, r1
    2908:	33 2e       	mov	r3, r19
    290a:	20 62       	ori	r18, 0x20	; 32
    290c:	0c c0       	rjmp	.+24     	; 0x2926 <vfprintf+0xf0>
    290e:	8e 32       	cpi	r24, 0x2E	; 46
    2910:	21 f4       	brne	.+8      	; 0x291a <vfprintf+0xe4>
    2912:	26 fd       	sbrc	r18, 6
    2914:	5f c1       	rjmp	.+702    	; 0x2bd4 <vfprintf+0x39e>
    2916:	20 64       	ori	r18, 0x40	; 64
    2918:	06 c0       	rjmp	.+12     	; 0x2926 <vfprintf+0xf0>
    291a:	8c 36       	cpi	r24, 0x6C	; 108
    291c:	11 f4       	brne	.+4      	; 0x2922 <vfprintf+0xec>
    291e:	20 68       	ori	r18, 0x80	; 128
    2920:	02 c0       	rjmp	.+4      	; 0x2926 <vfprintf+0xf0>
    2922:	88 36       	cpi	r24, 0x68	; 104
    2924:	41 f4       	brne	.+16     	; 0x2936 <vfprintf+0x100>
    2926:	f6 01       	movw	r30, r12
    2928:	93 fd       	sbrc	r25, 3
    292a:	85 91       	lpm	r24, Z+
    292c:	93 ff       	sbrs	r25, 3
    292e:	81 91       	ld	r24, Z+
    2930:	6f 01       	movw	r12, r30
    2932:	81 11       	cpse	r24, r1
    2934:	c1 cf       	rjmp	.-126    	; 0x28b8 <vfprintf+0x82>
    2936:	98 2f       	mov	r25, r24
    2938:	9f 7d       	andi	r25, 0xDF	; 223
    293a:	95 54       	subi	r25, 0x45	; 69
    293c:	93 30       	cpi	r25, 0x03	; 3
    293e:	28 f4       	brcc	.+10     	; 0x294a <vfprintf+0x114>
    2940:	0c 5f       	subi	r16, 0xFC	; 252
    2942:	1f 4f       	sbci	r17, 0xFF	; 255
    2944:	ff e3       	ldi	r31, 0x3F	; 63
    2946:	f9 83       	std	Y+1, r31	; 0x01
    2948:	0d c0       	rjmp	.+26     	; 0x2964 <vfprintf+0x12e>
    294a:	83 36       	cpi	r24, 0x63	; 99
    294c:	31 f0       	breq	.+12     	; 0x295a <vfprintf+0x124>
    294e:	83 37       	cpi	r24, 0x73	; 115
    2950:	71 f0       	breq	.+28     	; 0x296e <vfprintf+0x138>
    2952:	83 35       	cpi	r24, 0x53	; 83
    2954:	09 f0       	breq	.+2      	; 0x2958 <vfprintf+0x122>
    2956:	57 c0       	rjmp	.+174    	; 0x2a06 <vfprintf+0x1d0>
    2958:	21 c0       	rjmp	.+66     	; 0x299c <vfprintf+0x166>
    295a:	f8 01       	movw	r30, r16
    295c:	80 81       	ld	r24, Z
    295e:	89 83       	std	Y+1, r24	; 0x01
    2960:	0e 5f       	subi	r16, 0xFE	; 254
    2962:	1f 4f       	sbci	r17, 0xFF	; 255
    2964:	44 24       	eor	r4, r4
    2966:	43 94       	inc	r4
    2968:	51 2c       	mov	r5, r1
    296a:	54 01       	movw	r10, r8
    296c:	14 c0       	rjmp	.+40     	; 0x2996 <vfprintf+0x160>
    296e:	38 01       	movw	r6, r16
    2970:	f2 e0       	ldi	r31, 0x02	; 2
    2972:	6f 0e       	add	r6, r31
    2974:	71 1c       	adc	r7, r1
    2976:	f8 01       	movw	r30, r16
    2978:	a0 80       	ld	r10, Z
    297a:	b1 80       	ldd	r11, Z+1	; 0x01
    297c:	26 ff       	sbrs	r18, 6
    297e:	03 c0       	rjmp	.+6      	; 0x2986 <vfprintf+0x150>
    2980:	65 2d       	mov	r22, r5
    2982:	70 e0       	ldi	r23, 0x00	; 0
    2984:	02 c0       	rjmp	.+4      	; 0x298a <vfprintf+0x154>
    2986:	6f ef       	ldi	r22, 0xFF	; 255
    2988:	7f ef       	ldi	r23, 0xFF	; 255
    298a:	c5 01       	movw	r24, r10
    298c:	2c 87       	std	Y+12, r18	; 0x0c
    298e:	26 d4       	rcall	.+2124   	; 0x31dc <strnlen>
    2990:	2c 01       	movw	r4, r24
    2992:	83 01       	movw	r16, r6
    2994:	2c 85       	ldd	r18, Y+12	; 0x0c
    2996:	2f 77       	andi	r18, 0x7F	; 127
    2998:	22 2e       	mov	r2, r18
    299a:	16 c0       	rjmp	.+44     	; 0x29c8 <vfprintf+0x192>
    299c:	38 01       	movw	r6, r16
    299e:	f2 e0       	ldi	r31, 0x02	; 2
    29a0:	6f 0e       	add	r6, r31
    29a2:	71 1c       	adc	r7, r1
    29a4:	f8 01       	movw	r30, r16
    29a6:	a0 80       	ld	r10, Z
    29a8:	b1 80       	ldd	r11, Z+1	; 0x01
    29aa:	26 ff       	sbrs	r18, 6
    29ac:	03 c0       	rjmp	.+6      	; 0x29b4 <vfprintf+0x17e>
    29ae:	65 2d       	mov	r22, r5
    29b0:	70 e0       	ldi	r23, 0x00	; 0
    29b2:	02 c0       	rjmp	.+4      	; 0x29b8 <vfprintf+0x182>
    29b4:	6f ef       	ldi	r22, 0xFF	; 255
    29b6:	7f ef       	ldi	r23, 0xFF	; 255
    29b8:	c5 01       	movw	r24, r10
    29ba:	2c 87       	std	Y+12, r18	; 0x0c
    29bc:	04 d4       	rcall	.+2056   	; 0x31c6 <strnlen_P>
    29be:	2c 01       	movw	r4, r24
    29c0:	2c 85       	ldd	r18, Y+12	; 0x0c
    29c2:	20 68       	ori	r18, 0x80	; 128
    29c4:	22 2e       	mov	r2, r18
    29c6:	83 01       	movw	r16, r6
    29c8:	23 fc       	sbrc	r2, 3
    29ca:	19 c0       	rjmp	.+50     	; 0x29fe <vfprintf+0x1c8>
    29cc:	83 2d       	mov	r24, r3
    29ce:	90 e0       	ldi	r25, 0x00	; 0
    29d0:	48 16       	cp	r4, r24
    29d2:	59 06       	cpc	r5, r25
    29d4:	a0 f4       	brcc	.+40     	; 0x29fe <vfprintf+0x1c8>
    29d6:	b7 01       	movw	r22, r14
    29d8:	80 e2       	ldi	r24, 0x20	; 32
    29da:	90 e0       	ldi	r25, 0x00	; 0
    29dc:	48 d4       	rcall	.+2192   	; 0x326e <fputc>
    29de:	3a 94       	dec	r3
    29e0:	f5 cf       	rjmp	.-22     	; 0x29cc <vfprintf+0x196>
    29e2:	f5 01       	movw	r30, r10
    29e4:	27 fc       	sbrc	r2, 7
    29e6:	85 91       	lpm	r24, Z+
    29e8:	27 fe       	sbrs	r2, 7
    29ea:	81 91       	ld	r24, Z+
    29ec:	5f 01       	movw	r10, r30
    29ee:	b7 01       	movw	r22, r14
    29f0:	90 e0       	ldi	r25, 0x00	; 0
    29f2:	3d d4       	rcall	.+2170   	; 0x326e <fputc>
    29f4:	31 10       	cpse	r3, r1
    29f6:	3a 94       	dec	r3
    29f8:	f1 e0       	ldi	r31, 0x01	; 1
    29fa:	4f 1a       	sub	r4, r31
    29fc:	51 08       	sbc	r5, r1
    29fe:	41 14       	cp	r4, r1
    2a00:	51 04       	cpc	r5, r1
    2a02:	79 f7       	brne	.-34     	; 0x29e2 <vfprintf+0x1ac>
    2a04:	de c0       	rjmp	.+444    	; 0x2bc2 <vfprintf+0x38c>
    2a06:	84 36       	cpi	r24, 0x64	; 100
    2a08:	11 f0       	breq	.+4      	; 0x2a0e <vfprintf+0x1d8>
    2a0a:	89 36       	cpi	r24, 0x69	; 105
    2a0c:	31 f5       	brne	.+76     	; 0x2a5a <vfprintf+0x224>
    2a0e:	f8 01       	movw	r30, r16
    2a10:	27 ff       	sbrs	r18, 7
    2a12:	07 c0       	rjmp	.+14     	; 0x2a22 <vfprintf+0x1ec>
    2a14:	60 81       	ld	r22, Z
    2a16:	71 81       	ldd	r23, Z+1	; 0x01
    2a18:	82 81       	ldd	r24, Z+2	; 0x02
    2a1a:	93 81       	ldd	r25, Z+3	; 0x03
    2a1c:	0c 5f       	subi	r16, 0xFC	; 252
    2a1e:	1f 4f       	sbci	r17, 0xFF	; 255
    2a20:	08 c0       	rjmp	.+16     	; 0x2a32 <vfprintf+0x1fc>
    2a22:	60 81       	ld	r22, Z
    2a24:	71 81       	ldd	r23, Z+1	; 0x01
    2a26:	07 2e       	mov	r0, r23
    2a28:	00 0c       	add	r0, r0
    2a2a:	88 0b       	sbc	r24, r24
    2a2c:	99 0b       	sbc	r25, r25
    2a2e:	0e 5f       	subi	r16, 0xFE	; 254
    2a30:	1f 4f       	sbci	r17, 0xFF	; 255
    2a32:	2f 76       	andi	r18, 0x6F	; 111
    2a34:	72 2e       	mov	r7, r18
    2a36:	97 ff       	sbrs	r25, 7
    2a38:	09 c0       	rjmp	.+18     	; 0x2a4c <vfprintf+0x216>
    2a3a:	90 95       	com	r25
    2a3c:	80 95       	com	r24
    2a3e:	70 95       	com	r23
    2a40:	61 95       	neg	r22
    2a42:	7f 4f       	sbci	r23, 0xFF	; 255
    2a44:	8f 4f       	sbci	r24, 0xFF	; 255
    2a46:	9f 4f       	sbci	r25, 0xFF	; 255
    2a48:	20 68       	ori	r18, 0x80	; 128
    2a4a:	72 2e       	mov	r7, r18
    2a4c:	2a e0       	ldi	r18, 0x0A	; 10
    2a4e:	30 e0       	ldi	r19, 0x00	; 0
    2a50:	a4 01       	movw	r20, r8
    2a52:	5e d4       	rcall	.+2236   	; 0x3310 <__ultoa_invert>
    2a54:	a8 2e       	mov	r10, r24
    2a56:	a8 18       	sub	r10, r8
    2a58:	43 c0       	rjmp	.+134    	; 0x2ae0 <vfprintf+0x2aa>
    2a5a:	85 37       	cpi	r24, 0x75	; 117
    2a5c:	29 f4       	brne	.+10     	; 0x2a68 <vfprintf+0x232>
    2a5e:	2f 7e       	andi	r18, 0xEF	; 239
    2a60:	b2 2e       	mov	r11, r18
    2a62:	2a e0       	ldi	r18, 0x0A	; 10
    2a64:	30 e0       	ldi	r19, 0x00	; 0
    2a66:	25 c0       	rjmp	.+74     	; 0x2ab2 <vfprintf+0x27c>
    2a68:	f2 2f       	mov	r31, r18
    2a6a:	f9 7f       	andi	r31, 0xF9	; 249
    2a6c:	bf 2e       	mov	r11, r31
    2a6e:	8f 36       	cpi	r24, 0x6F	; 111
    2a70:	c1 f0       	breq	.+48     	; 0x2aa2 <vfprintf+0x26c>
    2a72:	18 f4       	brcc	.+6      	; 0x2a7a <vfprintf+0x244>
    2a74:	88 35       	cpi	r24, 0x58	; 88
    2a76:	79 f0       	breq	.+30     	; 0x2a96 <vfprintf+0x260>
    2a78:	ad c0       	rjmp	.+346    	; 0x2bd4 <vfprintf+0x39e>
    2a7a:	80 37       	cpi	r24, 0x70	; 112
    2a7c:	19 f0       	breq	.+6      	; 0x2a84 <vfprintf+0x24e>
    2a7e:	88 37       	cpi	r24, 0x78	; 120
    2a80:	21 f0       	breq	.+8      	; 0x2a8a <vfprintf+0x254>
    2a82:	a8 c0       	rjmp	.+336    	; 0x2bd4 <vfprintf+0x39e>
    2a84:	2f 2f       	mov	r18, r31
    2a86:	20 61       	ori	r18, 0x10	; 16
    2a88:	b2 2e       	mov	r11, r18
    2a8a:	b4 fe       	sbrs	r11, 4
    2a8c:	0d c0       	rjmp	.+26     	; 0x2aa8 <vfprintf+0x272>
    2a8e:	8b 2d       	mov	r24, r11
    2a90:	84 60       	ori	r24, 0x04	; 4
    2a92:	b8 2e       	mov	r11, r24
    2a94:	09 c0       	rjmp	.+18     	; 0x2aa8 <vfprintf+0x272>
    2a96:	24 ff       	sbrs	r18, 4
    2a98:	0a c0       	rjmp	.+20     	; 0x2aae <vfprintf+0x278>
    2a9a:	9f 2f       	mov	r25, r31
    2a9c:	96 60       	ori	r25, 0x06	; 6
    2a9e:	b9 2e       	mov	r11, r25
    2aa0:	06 c0       	rjmp	.+12     	; 0x2aae <vfprintf+0x278>
    2aa2:	28 e0       	ldi	r18, 0x08	; 8
    2aa4:	30 e0       	ldi	r19, 0x00	; 0
    2aa6:	05 c0       	rjmp	.+10     	; 0x2ab2 <vfprintf+0x27c>
    2aa8:	20 e1       	ldi	r18, 0x10	; 16
    2aaa:	30 e0       	ldi	r19, 0x00	; 0
    2aac:	02 c0       	rjmp	.+4      	; 0x2ab2 <vfprintf+0x27c>
    2aae:	20 e1       	ldi	r18, 0x10	; 16
    2ab0:	32 e0       	ldi	r19, 0x02	; 2
    2ab2:	f8 01       	movw	r30, r16
    2ab4:	b7 fe       	sbrs	r11, 7
    2ab6:	07 c0       	rjmp	.+14     	; 0x2ac6 <vfprintf+0x290>
    2ab8:	60 81       	ld	r22, Z
    2aba:	71 81       	ldd	r23, Z+1	; 0x01
    2abc:	82 81       	ldd	r24, Z+2	; 0x02
    2abe:	93 81       	ldd	r25, Z+3	; 0x03
    2ac0:	0c 5f       	subi	r16, 0xFC	; 252
    2ac2:	1f 4f       	sbci	r17, 0xFF	; 255
    2ac4:	06 c0       	rjmp	.+12     	; 0x2ad2 <vfprintf+0x29c>
    2ac6:	60 81       	ld	r22, Z
    2ac8:	71 81       	ldd	r23, Z+1	; 0x01
    2aca:	80 e0       	ldi	r24, 0x00	; 0
    2acc:	90 e0       	ldi	r25, 0x00	; 0
    2ace:	0e 5f       	subi	r16, 0xFE	; 254
    2ad0:	1f 4f       	sbci	r17, 0xFF	; 255
    2ad2:	a4 01       	movw	r20, r8
    2ad4:	1d d4       	rcall	.+2106   	; 0x3310 <__ultoa_invert>
    2ad6:	a8 2e       	mov	r10, r24
    2ad8:	a8 18       	sub	r10, r8
    2ada:	fb 2d       	mov	r31, r11
    2adc:	ff 77       	andi	r31, 0x7F	; 127
    2ade:	7f 2e       	mov	r7, r31
    2ae0:	76 fe       	sbrs	r7, 6
    2ae2:	0b c0       	rjmp	.+22     	; 0x2afa <vfprintf+0x2c4>
    2ae4:	37 2d       	mov	r19, r7
    2ae6:	3e 7f       	andi	r19, 0xFE	; 254
    2ae8:	a5 14       	cp	r10, r5
    2aea:	50 f4       	brcc	.+20     	; 0x2b00 <vfprintf+0x2ca>
    2aec:	74 fe       	sbrs	r7, 4
    2aee:	0a c0       	rjmp	.+20     	; 0x2b04 <vfprintf+0x2ce>
    2af0:	72 fc       	sbrc	r7, 2
    2af2:	08 c0       	rjmp	.+16     	; 0x2b04 <vfprintf+0x2ce>
    2af4:	37 2d       	mov	r19, r7
    2af6:	3e 7e       	andi	r19, 0xEE	; 238
    2af8:	05 c0       	rjmp	.+10     	; 0x2b04 <vfprintf+0x2ce>
    2afa:	ba 2c       	mov	r11, r10
    2afc:	37 2d       	mov	r19, r7
    2afe:	03 c0       	rjmp	.+6      	; 0x2b06 <vfprintf+0x2d0>
    2b00:	ba 2c       	mov	r11, r10
    2b02:	01 c0       	rjmp	.+2      	; 0x2b06 <vfprintf+0x2d0>
    2b04:	b5 2c       	mov	r11, r5
    2b06:	34 ff       	sbrs	r19, 4
    2b08:	0d c0       	rjmp	.+26     	; 0x2b24 <vfprintf+0x2ee>
    2b0a:	fe 01       	movw	r30, r28
    2b0c:	ea 0d       	add	r30, r10
    2b0e:	f1 1d       	adc	r31, r1
    2b10:	80 81       	ld	r24, Z
    2b12:	80 33       	cpi	r24, 0x30	; 48
    2b14:	11 f4       	brne	.+4      	; 0x2b1a <vfprintf+0x2e4>
    2b16:	39 7e       	andi	r19, 0xE9	; 233
    2b18:	09 c0       	rjmp	.+18     	; 0x2b2c <vfprintf+0x2f6>
    2b1a:	32 ff       	sbrs	r19, 2
    2b1c:	06 c0       	rjmp	.+12     	; 0x2b2a <vfprintf+0x2f4>
    2b1e:	b3 94       	inc	r11
    2b20:	b3 94       	inc	r11
    2b22:	04 c0       	rjmp	.+8      	; 0x2b2c <vfprintf+0x2f6>
    2b24:	83 2f       	mov	r24, r19
    2b26:	86 78       	andi	r24, 0x86	; 134
    2b28:	09 f0       	breq	.+2      	; 0x2b2c <vfprintf+0x2f6>
    2b2a:	b3 94       	inc	r11
    2b2c:	33 fd       	sbrc	r19, 3
    2b2e:	12 c0       	rjmp	.+36     	; 0x2b54 <vfprintf+0x31e>
    2b30:	30 ff       	sbrs	r19, 0
    2b32:	06 c0       	rjmp	.+12     	; 0x2b40 <vfprintf+0x30a>
    2b34:	5a 2c       	mov	r5, r10
    2b36:	b3 14       	cp	r11, r3
    2b38:	18 f4       	brcc	.+6      	; 0x2b40 <vfprintf+0x30a>
    2b3a:	53 0c       	add	r5, r3
    2b3c:	5b 18       	sub	r5, r11
    2b3e:	b3 2c       	mov	r11, r3
    2b40:	b3 14       	cp	r11, r3
    2b42:	60 f4       	brcc	.+24     	; 0x2b5c <vfprintf+0x326>
    2b44:	b7 01       	movw	r22, r14
    2b46:	80 e2       	ldi	r24, 0x20	; 32
    2b48:	90 e0       	ldi	r25, 0x00	; 0
    2b4a:	3c 87       	std	Y+12, r19	; 0x0c
    2b4c:	90 d3       	rcall	.+1824   	; 0x326e <fputc>
    2b4e:	b3 94       	inc	r11
    2b50:	3c 85       	ldd	r19, Y+12	; 0x0c
    2b52:	f6 cf       	rjmp	.-20     	; 0x2b40 <vfprintf+0x30a>
    2b54:	b3 14       	cp	r11, r3
    2b56:	10 f4       	brcc	.+4      	; 0x2b5c <vfprintf+0x326>
    2b58:	3b 18       	sub	r3, r11
    2b5a:	01 c0       	rjmp	.+2      	; 0x2b5e <vfprintf+0x328>
    2b5c:	31 2c       	mov	r3, r1
    2b5e:	34 ff       	sbrs	r19, 4
    2b60:	11 c0       	rjmp	.+34     	; 0x2b84 <vfprintf+0x34e>
    2b62:	b7 01       	movw	r22, r14
    2b64:	80 e3       	ldi	r24, 0x30	; 48
    2b66:	90 e0       	ldi	r25, 0x00	; 0
    2b68:	3c 87       	std	Y+12, r19	; 0x0c
    2b6a:	81 d3       	rcall	.+1794   	; 0x326e <fputc>
    2b6c:	3c 85       	ldd	r19, Y+12	; 0x0c
    2b6e:	32 ff       	sbrs	r19, 2
    2b70:	16 c0       	rjmp	.+44     	; 0x2b9e <vfprintf+0x368>
    2b72:	31 fd       	sbrc	r19, 1
    2b74:	03 c0       	rjmp	.+6      	; 0x2b7c <vfprintf+0x346>
    2b76:	88 e7       	ldi	r24, 0x78	; 120
    2b78:	90 e0       	ldi	r25, 0x00	; 0
    2b7a:	02 c0       	rjmp	.+4      	; 0x2b80 <vfprintf+0x34a>
    2b7c:	88 e5       	ldi	r24, 0x58	; 88
    2b7e:	90 e0       	ldi	r25, 0x00	; 0
    2b80:	b7 01       	movw	r22, r14
    2b82:	0c c0       	rjmp	.+24     	; 0x2b9c <vfprintf+0x366>
    2b84:	83 2f       	mov	r24, r19
    2b86:	86 78       	andi	r24, 0x86	; 134
    2b88:	51 f0       	breq	.+20     	; 0x2b9e <vfprintf+0x368>
    2b8a:	31 ff       	sbrs	r19, 1
    2b8c:	02 c0       	rjmp	.+4      	; 0x2b92 <vfprintf+0x35c>
    2b8e:	8b e2       	ldi	r24, 0x2B	; 43
    2b90:	01 c0       	rjmp	.+2      	; 0x2b94 <vfprintf+0x35e>
    2b92:	80 e2       	ldi	r24, 0x20	; 32
    2b94:	37 fd       	sbrc	r19, 7
    2b96:	8d e2       	ldi	r24, 0x2D	; 45
    2b98:	b7 01       	movw	r22, r14
    2b9a:	90 e0       	ldi	r25, 0x00	; 0
    2b9c:	68 d3       	rcall	.+1744   	; 0x326e <fputc>
    2b9e:	a5 14       	cp	r10, r5
    2ba0:	30 f4       	brcc	.+12     	; 0x2bae <vfprintf+0x378>
    2ba2:	b7 01       	movw	r22, r14
    2ba4:	80 e3       	ldi	r24, 0x30	; 48
    2ba6:	90 e0       	ldi	r25, 0x00	; 0
    2ba8:	62 d3       	rcall	.+1732   	; 0x326e <fputc>
    2baa:	5a 94       	dec	r5
    2bac:	f8 cf       	rjmp	.-16     	; 0x2b9e <vfprintf+0x368>
    2bae:	aa 94       	dec	r10
    2bb0:	f4 01       	movw	r30, r8
    2bb2:	ea 0d       	add	r30, r10
    2bb4:	f1 1d       	adc	r31, r1
    2bb6:	80 81       	ld	r24, Z
    2bb8:	b7 01       	movw	r22, r14
    2bba:	90 e0       	ldi	r25, 0x00	; 0
    2bbc:	58 d3       	rcall	.+1712   	; 0x326e <fputc>
    2bbe:	a1 10       	cpse	r10, r1
    2bc0:	f6 cf       	rjmp	.-20     	; 0x2bae <vfprintf+0x378>
    2bc2:	33 20       	and	r3, r3
    2bc4:	09 f4       	brne	.+2      	; 0x2bc8 <vfprintf+0x392>
    2bc6:	5d ce       	rjmp	.-838    	; 0x2882 <vfprintf+0x4c>
    2bc8:	b7 01       	movw	r22, r14
    2bca:	80 e2       	ldi	r24, 0x20	; 32
    2bcc:	90 e0       	ldi	r25, 0x00	; 0
    2bce:	4f d3       	rcall	.+1694   	; 0x326e <fputc>
    2bd0:	3a 94       	dec	r3
    2bd2:	f7 cf       	rjmp	.-18     	; 0x2bc2 <vfprintf+0x38c>
    2bd4:	f7 01       	movw	r30, r14
    2bd6:	86 81       	ldd	r24, Z+6	; 0x06
    2bd8:	97 81       	ldd	r25, Z+7	; 0x07
    2bda:	02 c0       	rjmp	.+4      	; 0x2be0 <vfprintf+0x3aa>
    2bdc:	8f ef       	ldi	r24, 0xFF	; 255
    2bde:	9f ef       	ldi	r25, 0xFF	; 255
    2be0:	2c 96       	adiw	r28, 0x0c	; 12
    2be2:	0f b6       	in	r0, 0x3f	; 63
    2be4:	f8 94       	cli
    2be6:	de bf       	out	0x3e, r29	; 62
    2be8:	0f be       	out	0x3f, r0	; 63
    2bea:	cd bf       	out	0x3d, r28	; 61
    2bec:	df 91       	pop	r29
    2bee:	cf 91       	pop	r28
    2bf0:	1f 91       	pop	r17
    2bf2:	0f 91       	pop	r16
    2bf4:	ff 90       	pop	r15
    2bf6:	ef 90       	pop	r14
    2bf8:	df 90       	pop	r13
    2bfa:	cf 90       	pop	r12
    2bfc:	bf 90       	pop	r11
    2bfe:	af 90       	pop	r10
    2c00:	9f 90       	pop	r9
    2c02:	8f 90       	pop	r8
    2c04:	7f 90       	pop	r7
    2c06:	6f 90       	pop	r6
    2c08:	5f 90       	pop	r5
    2c0a:	4f 90       	pop	r4
    2c0c:	3f 90       	pop	r3
    2c0e:	2f 90       	pop	r2
    2c10:	08 95       	ret

00002c12 <putval>:
    2c12:	20 fd       	sbrc	r18, 0
    2c14:	09 c0       	rjmp	.+18     	; 0x2c28 <putval+0x16>
    2c16:	fc 01       	movw	r30, r24
    2c18:	23 fd       	sbrc	r18, 3
    2c1a:	05 c0       	rjmp	.+10     	; 0x2c26 <putval+0x14>
    2c1c:	22 ff       	sbrs	r18, 2
    2c1e:	02 c0       	rjmp	.+4      	; 0x2c24 <putval+0x12>
    2c20:	73 83       	std	Z+3, r23	; 0x03
    2c22:	62 83       	std	Z+2, r22	; 0x02
    2c24:	51 83       	std	Z+1, r21	; 0x01
    2c26:	40 83       	st	Z, r20
    2c28:	08 95       	ret

00002c2a <mulacc>:
    2c2a:	44 fd       	sbrc	r20, 4
    2c2c:	10 c0       	rjmp	.+32     	; 0x2c4e <mulacc+0x24>
    2c2e:	46 fd       	sbrc	r20, 6
    2c30:	10 c0       	rjmp	.+32     	; 0x2c52 <mulacc+0x28>
    2c32:	db 01       	movw	r26, r22
    2c34:	fc 01       	movw	r30, r24
    2c36:	aa 0f       	add	r26, r26
    2c38:	bb 1f       	adc	r27, r27
    2c3a:	ee 1f       	adc	r30, r30
    2c3c:	ff 1f       	adc	r31, r31
    2c3e:	10 94       	com	r1
    2c40:	d1 f7       	brne	.-12     	; 0x2c36 <mulacc+0xc>
    2c42:	6a 0f       	add	r22, r26
    2c44:	7b 1f       	adc	r23, r27
    2c46:	8e 1f       	adc	r24, r30
    2c48:	9f 1f       	adc	r25, r31
    2c4a:	31 e0       	ldi	r19, 0x01	; 1
    2c4c:	03 c0       	rjmp	.+6      	; 0x2c54 <mulacc+0x2a>
    2c4e:	33 e0       	ldi	r19, 0x03	; 3
    2c50:	01 c0       	rjmp	.+2      	; 0x2c54 <mulacc+0x2a>
    2c52:	34 e0       	ldi	r19, 0x04	; 4
    2c54:	66 0f       	add	r22, r22
    2c56:	77 1f       	adc	r23, r23
    2c58:	88 1f       	adc	r24, r24
    2c5a:	99 1f       	adc	r25, r25
    2c5c:	31 50       	subi	r19, 0x01	; 1
    2c5e:	d1 f7       	brne	.-12     	; 0x2c54 <mulacc+0x2a>
    2c60:	62 0f       	add	r22, r18
    2c62:	71 1d       	adc	r23, r1
    2c64:	81 1d       	adc	r24, r1
    2c66:	91 1d       	adc	r25, r1
    2c68:	08 95       	ret

00002c6a <skip_spaces>:
    2c6a:	0f 93       	push	r16
    2c6c:	1f 93       	push	r17
    2c6e:	cf 93       	push	r28
    2c70:	df 93       	push	r29
    2c72:	8c 01       	movw	r16, r24
    2c74:	c8 01       	movw	r24, r16
    2c76:	bd d2       	rcall	.+1402   	; 0x31f2 <fgetc>
    2c78:	ec 01       	movw	r28, r24
    2c7a:	97 fd       	sbrc	r25, 7
    2c7c:	06 c0       	rjmp	.+12     	; 0x2c8a <skip_spaces+0x20>
    2c7e:	90 d2       	rcall	.+1312   	; 0x31a0 <isspace>
    2c80:	89 2b       	or	r24, r25
    2c82:	c1 f7       	brne	.-16     	; 0x2c74 <skip_spaces+0xa>
    2c84:	b8 01       	movw	r22, r16
    2c86:	ce 01       	movw	r24, r28
    2c88:	2a d3       	rcall	.+1620   	; 0x32de <ungetc>
    2c8a:	ce 01       	movw	r24, r28
    2c8c:	df 91       	pop	r29
    2c8e:	cf 91       	pop	r28
    2c90:	1f 91       	pop	r17
    2c92:	0f 91       	pop	r16
    2c94:	08 95       	ret

00002c96 <conv_int>:
    2c96:	8f 92       	push	r8
    2c98:	9f 92       	push	r9
    2c9a:	af 92       	push	r10
    2c9c:	bf 92       	push	r11
    2c9e:	cf 92       	push	r12
    2ca0:	df 92       	push	r13
    2ca2:	ef 92       	push	r14
    2ca4:	ff 92       	push	r15
    2ca6:	0f 93       	push	r16
    2ca8:	1f 93       	push	r17
    2caa:	cf 93       	push	r28
    2cac:	df 93       	push	r29
    2cae:	1f 92       	push	r1
    2cb0:	cd b7       	in	r28, 0x3d	; 61
    2cb2:	de b7       	in	r29, 0x3e	; 62
    2cb4:	8c 01       	movw	r16, r24
    2cb6:	c6 2e       	mov	r12, r22
    2cb8:	7a 01       	movw	r14, r20
    2cba:	29 83       	std	Y+1, r18	; 0x01
    2cbc:	9a d2       	rcall	.+1332   	; 0x31f2 <fgetc>
    2cbe:	ac 01       	movw	r20, r24
    2cc0:	55 27       	eor	r21, r21
    2cc2:	29 81       	ldd	r18, Y+1	; 0x01
    2cc4:	4b 32       	cpi	r20, 0x2B	; 43
    2cc6:	51 05       	cpc	r21, r1
    2cc8:	21 f0       	breq	.+8      	; 0x2cd2 <conv_int+0x3c>
    2cca:	4d 32       	cpi	r20, 0x2D	; 45
    2ccc:	51 05       	cpc	r21, r1
    2cce:	61 f4       	brne	.+24     	; 0x2ce8 <conv_int+0x52>
    2cd0:	20 68       	ori	r18, 0x80	; 128
    2cd2:	ca 94       	dec	r12
    2cd4:	c1 10       	cpse	r12, r1
    2cd6:	02 c0       	rjmp	.+4      	; 0x2cdc <conv_int+0x46>
    2cd8:	80 e0       	ldi	r24, 0x00	; 0
    2cda:	6f c0       	rjmp	.+222    	; 0x2dba <conv_int+0x124>
    2cdc:	c8 01       	movw	r24, r16
    2cde:	29 83       	std	Y+1, r18	; 0x01
    2ce0:	88 d2       	rcall	.+1296   	; 0x31f2 <fgetc>
    2ce2:	29 81       	ldd	r18, Y+1	; 0x01
    2ce4:	97 fd       	sbrc	r25, 7
    2ce6:	f8 cf       	rjmp	.-16     	; 0x2cd8 <conv_int+0x42>
    2ce8:	32 2f       	mov	r19, r18
    2cea:	3d 7f       	andi	r19, 0xFD	; 253
    2cec:	d3 2e       	mov	r13, r19
    2cee:	32 2f       	mov	r19, r18
    2cf0:	30 73       	andi	r19, 0x30	; 48
    2cf2:	39 f5       	brne	.+78     	; 0x2d42 <conv_int+0xac>
    2cf4:	80 33       	cpi	r24, 0x30	; 48
    2cf6:	29 f5       	brne	.+74     	; 0x2d42 <conv_int+0xac>
    2cf8:	bb 24       	eor	r11, r11
    2cfa:	ba 94       	dec	r11
    2cfc:	bc 0c       	add	r11, r12
    2cfe:	09 f4       	brne	.+2      	; 0x2d02 <conv_int+0x6c>
    2d00:	49 c0       	rjmp	.+146    	; 0x2d94 <conv_int+0xfe>
    2d02:	c8 01       	movw	r24, r16
    2d04:	29 83       	std	Y+1, r18	; 0x01
    2d06:	75 d2       	rcall	.+1258   	; 0x31f2 <fgetc>
    2d08:	29 81       	ldd	r18, Y+1	; 0x01
    2d0a:	97 fd       	sbrc	r25, 7
    2d0c:	43 c0       	rjmp	.+134    	; 0x2d94 <conv_int+0xfe>
    2d0e:	38 2f       	mov	r19, r24
    2d10:	3f 7d       	andi	r19, 0xDF	; 223
    2d12:	38 35       	cpi	r19, 0x58	; 88
    2d14:	61 f4       	brne	.+24     	; 0x2d2e <conv_int+0x98>
    2d16:	8d 2d       	mov	r24, r13
    2d18:	82 64       	ori	r24, 0x42	; 66
    2d1a:	d8 2e       	mov	r13, r24
    2d1c:	ca 94       	dec	r12
    2d1e:	ca 94       	dec	r12
    2d20:	cc 20       	and	r12, r12
    2d22:	c1 f1       	breq	.+112    	; 0x2d94 <conv_int+0xfe>
    2d24:	c8 01       	movw	r24, r16
    2d26:	65 d2       	rcall	.+1226   	; 0x31f2 <fgetc>
    2d28:	97 ff       	sbrs	r25, 7
    2d2a:	0b c0       	rjmp	.+22     	; 0x2d42 <conv_int+0xac>
    2d2c:	33 c0       	rjmp	.+102    	; 0x2d94 <conv_int+0xfe>
    2d2e:	26 ff       	sbrs	r18, 6
    2d30:	04 c0       	rjmp	.+8      	; 0x2d3a <conv_int+0xa4>
    2d32:	2d 2d       	mov	r18, r13
    2d34:	22 60       	ori	r18, 0x02	; 2
    2d36:	d2 2e       	mov	r13, r18
    2d38:	03 c0       	rjmp	.+6      	; 0x2d40 <conv_int+0xaa>
    2d3a:	3d 2d       	mov	r19, r13
    2d3c:	32 61       	ori	r19, 0x12	; 18
    2d3e:	d3 2e       	mov	r13, r19
    2d40:	cb 2c       	mov	r12, r11
    2d42:	81 2c       	mov	r8, r1
    2d44:	91 2c       	mov	r9, r1
    2d46:	54 01       	movw	r10, r8
    2d48:	20 ed       	ldi	r18, 0xD0	; 208
    2d4a:	28 0f       	add	r18, r24
    2d4c:	28 30       	cpi	r18, 0x08	; 8
    2d4e:	78 f0       	brcs	.+30     	; 0x2d6e <conv_int+0xd8>
    2d50:	d4 fe       	sbrs	r13, 4
    2d52:	03 c0       	rjmp	.+6      	; 0x2d5a <conv_int+0xc4>
    2d54:	b8 01       	movw	r22, r16
    2d56:	c3 d2       	rcall	.+1414   	; 0x32de <ungetc>
    2d58:	1a c0       	rjmp	.+52     	; 0x2d8e <conv_int+0xf8>
    2d5a:	2a 30       	cpi	r18, 0x0A	; 10
    2d5c:	40 f0       	brcs	.+16     	; 0x2d6e <conv_int+0xd8>
    2d5e:	d6 fe       	sbrs	r13, 6
    2d60:	f9 cf       	rjmp	.-14     	; 0x2d54 <conv_int+0xbe>
    2d62:	2f 7d       	andi	r18, 0xDF	; 223
    2d64:	3f ee       	ldi	r19, 0xEF	; 239
    2d66:	32 0f       	add	r19, r18
    2d68:	36 30       	cpi	r19, 0x06	; 6
    2d6a:	a0 f7       	brcc	.-24     	; 0x2d54 <conv_int+0xbe>
    2d6c:	27 50       	subi	r18, 0x07	; 7
    2d6e:	4d 2d       	mov	r20, r13
    2d70:	c5 01       	movw	r24, r10
    2d72:	b4 01       	movw	r22, r8
    2d74:	5a df       	rcall	.-332    	; 0x2c2a <mulacc>
    2d76:	4b 01       	movw	r8, r22
    2d78:	5c 01       	movw	r10, r24
    2d7a:	8d 2d       	mov	r24, r13
    2d7c:	82 60       	ori	r24, 0x02	; 2
    2d7e:	d8 2e       	mov	r13, r24
    2d80:	ca 94       	dec	r12
    2d82:	cc 20       	and	r12, r12
    2d84:	51 f0       	breq	.+20     	; 0x2d9a <conv_int+0x104>
    2d86:	c8 01       	movw	r24, r16
    2d88:	34 d2       	rcall	.+1128   	; 0x31f2 <fgetc>
    2d8a:	97 ff       	sbrs	r25, 7
    2d8c:	dd cf       	rjmp	.-70     	; 0x2d48 <conv_int+0xb2>
    2d8e:	d1 fc       	sbrc	r13, 1
    2d90:	04 c0       	rjmp	.+8      	; 0x2d9a <conv_int+0x104>
    2d92:	a2 cf       	rjmp	.-188    	; 0x2cd8 <conv_int+0x42>
    2d94:	81 2c       	mov	r8, r1
    2d96:	91 2c       	mov	r9, r1
    2d98:	54 01       	movw	r10, r8
    2d9a:	d7 fe       	sbrs	r13, 7
    2d9c:	08 c0       	rjmp	.+16     	; 0x2dae <conv_int+0x118>
    2d9e:	b0 94       	com	r11
    2da0:	a0 94       	com	r10
    2da2:	90 94       	com	r9
    2da4:	80 94       	com	r8
    2da6:	81 1c       	adc	r8, r1
    2da8:	91 1c       	adc	r9, r1
    2daa:	a1 1c       	adc	r10, r1
    2dac:	b1 1c       	adc	r11, r1
    2dae:	2d 2d       	mov	r18, r13
    2db0:	b5 01       	movw	r22, r10
    2db2:	a4 01       	movw	r20, r8
    2db4:	c7 01       	movw	r24, r14
    2db6:	2d df       	rcall	.-422    	; 0x2c12 <putval>
    2db8:	81 e0       	ldi	r24, 0x01	; 1
    2dba:	0f 90       	pop	r0
    2dbc:	df 91       	pop	r29
    2dbe:	cf 91       	pop	r28
    2dc0:	1f 91       	pop	r17
    2dc2:	0f 91       	pop	r16
    2dc4:	ff 90       	pop	r15
    2dc6:	ef 90       	pop	r14
    2dc8:	df 90       	pop	r13
    2dca:	cf 90       	pop	r12
    2dcc:	bf 90       	pop	r11
    2dce:	af 90       	pop	r10
    2dd0:	9f 90       	pop	r9
    2dd2:	8f 90       	pop	r8
    2dd4:	08 95       	ret

00002dd6 <conv_brk>:
    2dd6:	6f 92       	push	r6
    2dd8:	7f 92       	push	r7
    2dda:	8f 92       	push	r8
    2ddc:	9f 92       	push	r9
    2dde:	af 92       	push	r10
    2de0:	bf 92       	push	r11
    2de2:	cf 92       	push	r12
    2de4:	df 92       	push	r13
    2de6:	ef 92       	push	r14
    2de8:	ff 92       	push	r15
    2dea:	0f 93       	push	r16
    2dec:	1f 93       	push	r17
    2dee:	cf 93       	push	r28
    2df0:	df 93       	push	r29
    2df2:	cd b7       	in	r28, 0x3d	; 61
    2df4:	de b7       	in	r29, 0x3e	; 62
    2df6:	a1 97       	sbiw	r28, 0x21	; 33
    2df8:	0f b6       	in	r0, 0x3f	; 63
    2dfa:	f8 94       	cli
    2dfc:	de bf       	out	0x3e, r29	; 62
    2dfe:	0f be       	out	0x3f, r0	; 63
    2e00:	cd bf       	out	0x3d, r28	; 61
    2e02:	5c 01       	movw	r10, r24
    2e04:	7a 01       	movw	r14, r20
    2e06:	ce 01       	movw	r24, r28
    2e08:	01 96       	adiw	r24, 0x01	; 1
    2e0a:	6c 01       	movw	r12, r24
    2e0c:	80 e2       	ldi	r24, 0x20	; 32
    2e0e:	f6 01       	movw	r30, r12
    2e10:	11 92       	st	Z+, r1
    2e12:	8a 95       	dec	r24
    2e14:	e9 f7       	brne	.-6      	; 0x2e10 <conv_brk+0x3a>
    2e16:	f5 01       	movw	r30, r10
    2e18:	83 80       	ldd	r8, Z+3	; 0x03
    2e1a:	40 e0       	ldi	r20, 0x00	; 0
    2e1c:	50 e0       	ldi	r21, 0x00	; 0
    2e1e:	91 2c       	mov	r9, r1
    2e20:	71 2c       	mov	r7, r1
    2e22:	70 e0       	ldi	r23, 0x00	; 0
    2e24:	a1 e0       	ldi	r26, 0x01	; 1
    2e26:	b0 e0       	ldi	r27, 0x00	; 0
    2e28:	f9 01       	movw	r30, r18
    2e2a:	83 fc       	sbrc	r8, 3
    2e2c:	85 91       	lpm	r24, Z+
    2e2e:	83 fe       	sbrs	r8, 3
    2e30:	81 91       	ld	r24, Z+
    2e32:	8f 01       	movw	r16, r30
    2e34:	98 2f       	mov	r25, r24
    2e36:	9f 01       	movw	r18, r30
    2e38:	81 11       	cpse	r24, r1
    2e3a:	03 c0       	rjmp	.+6      	; 0x2e42 <conv_brk+0x6c>
    2e3c:	80 e0       	ldi	r24, 0x00	; 0
    2e3e:	90 e0       	ldi	r25, 0x00	; 0
    2e40:	7a c0       	rjmp	.+244    	; 0x2f36 <conv_brk+0x160>
    2e42:	8e 35       	cpi	r24, 0x5E	; 94
    2e44:	19 f4       	brne	.+6      	; 0x2e4c <conv_brk+0x76>
    2e46:	41 15       	cp	r20, r1
    2e48:	51 05       	cpc	r21, r1
    2e4a:	49 f1       	breq	.+82     	; 0x2e9e <conv_brk+0xc8>
    2e4c:	e7 2f       	mov	r30, r23
    2e4e:	f0 e0       	ldi	r31, 0x00	; 0
    2e50:	e4 17       	cp	r30, r20
    2e52:	f5 07       	cpc	r31, r21
    2e54:	3c f4       	brge	.+14     	; 0x2e64 <conv_brk+0x8e>
    2e56:	8d 35       	cpi	r24, 0x5D	; 93
    2e58:	59 f1       	breq	.+86     	; 0x2eb0 <conv_brk+0xda>
    2e5a:	8d 32       	cpi	r24, 0x2D	; 45
    2e5c:	19 f4       	brne	.+6      	; 0x2e64 <conv_brk+0x8e>
    2e5e:	77 20       	and	r7, r7
    2e60:	01 f1       	breq	.+64     	; 0x2ea2 <conv_brk+0xcc>
    2e62:	03 c0       	rjmp	.+6      	; 0x2e6a <conv_brk+0x94>
    2e64:	71 10       	cpse	r7, r1
    2e66:	01 c0       	rjmp	.+2      	; 0x2e6a <conv_brk+0x94>
    2e68:	98 2e       	mov	r9, r24
    2e6a:	89 2f       	mov	r24, r25
    2e6c:	86 95       	lsr	r24
    2e6e:	86 95       	lsr	r24
    2e70:	86 95       	lsr	r24
    2e72:	86 01       	movw	r16, r12
    2e74:	08 0f       	add	r16, r24
    2e76:	11 1d       	adc	r17, r1
    2e78:	89 2f       	mov	r24, r25
    2e7a:	87 70       	andi	r24, 0x07	; 7
    2e7c:	3d 01       	movw	r6, r26
    2e7e:	01 c0       	rjmp	.+2      	; 0x2e82 <conv_brk+0xac>
    2e80:	66 0c       	add	r6, r6
    2e82:	8a 95       	dec	r24
    2e84:	ea f7       	brpl	.-6      	; 0x2e80 <conv_brk+0xaa>
    2e86:	f8 01       	movw	r30, r16
    2e88:	80 81       	ld	r24, Z
    2e8a:	86 29       	or	r24, r6
    2e8c:	80 83       	st	Z, r24
    2e8e:	99 15       	cp	r25, r9
    2e90:	59 f0       	breq	.+22     	; 0x2ea8 <conv_brk+0xd2>
    2e92:	99 15       	cp	r25, r9
    2e94:	10 f4       	brcc	.+4      	; 0x2e9a <conv_brk+0xc4>
    2e96:	9f 5f       	subi	r25, 0xFF	; 255
    2e98:	e8 cf       	rjmp	.-48     	; 0x2e6a <conv_brk+0x94>
    2e9a:	91 50       	subi	r25, 0x01	; 1
    2e9c:	e6 cf       	rjmp	.-52     	; 0x2e6a <conv_brk+0x94>
    2e9e:	71 e0       	ldi	r23, 0x01	; 1
    2ea0:	04 c0       	rjmp	.+8      	; 0x2eaa <conv_brk+0xd4>
    2ea2:	77 24       	eor	r7, r7
    2ea4:	73 94       	inc	r7
    2ea6:	01 c0       	rjmp	.+2      	; 0x2eaa <conv_brk+0xd4>
    2ea8:	71 2c       	mov	r7, r1
    2eaa:	4f 5f       	subi	r20, 0xFF	; 255
    2eac:	5f 4f       	sbci	r21, 0xFF	; 255
    2eae:	bc cf       	rjmp	.-136    	; 0x2e28 <conv_brk+0x52>
    2eb0:	77 20       	and	r7, r7
    2eb2:	19 f0       	breq	.+6      	; 0x2eba <conv_brk+0xe4>
    2eb4:	8e 81       	ldd	r24, Y+6	; 0x06
    2eb6:	80 62       	ori	r24, 0x20	; 32
    2eb8:	8e 83       	std	Y+6, r24	; 0x06
    2eba:	71 11       	cpse	r23, r1
    2ebc:	03 c0       	rjmp	.+6      	; 0x2ec4 <conv_brk+0xee>
    2ebe:	99 24       	eor	r9, r9
    2ec0:	93 94       	inc	r9
    2ec2:	16 c0       	rjmp	.+44     	; 0x2ef0 <conv_brk+0x11a>
    2ec4:	f6 01       	movw	r30, r12
    2ec6:	9e 01       	movw	r18, r28
    2ec8:	2f 5d       	subi	r18, 0xDF	; 223
    2eca:	3f 4f       	sbci	r19, 0xFF	; 255
    2ecc:	80 81       	ld	r24, Z
    2ece:	80 95       	com	r24
    2ed0:	81 93       	st	Z+, r24
    2ed2:	e2 17       	cp	r30, r18
    2ed4:	f3 07       	cpc	r31, r19
    2ed6:	d1 f7       	brne	.-12     	; 0x2ecc <conv_brk+0xf6>
    2ed8:	f2 cf       	rjmp	.-28     	; 0x2ebe <conv_brk+0xe8>
    2eda:	e1 14       	cp	r14, r1
    2edc:	f1 04       	cpc	r15, r1
    2ede:	29 f0       	breq	.+10     	; 0x2eea <conv_brk+0x114>
    2ee0:	f7 01       	movw	r30, r14
    2ee2:	80 83       	st	Z, r24
    2ee4:	c7 01       	movw	r24, r14
    2ee6:	01 96       	adiw	r24, 0x01	; 1
    2ee8:	7c 01       	movw	r14, r24
    2eea:	61 50       	subi	r22, 0x01	; 1
    2eec:	91 2c       	mov	r9, r1
    2eee:	e9 f0       	breq	.+58     	; 0x2f2a <conv_brk+0x154>
    2ef0:	c5 01       	movw	r24, r10
    2ef2:	69 a3       	std	Y+33, r22	; 0x21
    2ef4:	7e d1       	rcall	.+764    	; 0x31f2 <fgetc>
    2ef6:	69 a1       	ldd	r22, Y+33	; 0x21
    2ef8:	97 fd       	sbrc	r25, 7
    2efa:	15 c0       	rjmp	.+42     	; 0x2f26 <conv_brk+0x150>
    2efc:	28 2f       	mov	r18, r24
    2efe:	26 95       	lsr	r18
    2f00:	26 95       	lsr	r18
    2f02:	26 95       	lsr	r18
    2f04:	f6 01       	movw	r30, r12
    2f06:	e2 0f       	add	r30, r18
    2f08:	f1 1d       	adc	r31, r1
    2f0a:	20 81       	ld	r18, Z
    2f0c:	30 e0       	ldi	r19, 0x00	; 0
    2f0e:	ac 01       	movw	r20, r24
    2f10:	47 70       	andi	r20, 0x07	; 7
    2f12:	55 27       	eor	r21, r21
    2f14:	02 c0       	rjmp	.+4      	; 0x2f1a <conv_brk+0x144>
    2f16:	35 95       	asr	r19
    2f18:	27 95       	ror	r18
    2f1a:	4a 95       	dec	r20
    2f1c:	e2 f7       	brpl	.-8      	; 0x2f16 <conv_brk+0x140>
    2f1e:	20 fd       	sbrc	r18, 0
    2f20:	dc cf       	rjmp	.-72     	; 0x2eda <conv_brk+0x104>
    2f22:	b5 01       	movw	r22, r10
    2f24:	dc d1       	rcall	.+952    	; 0x32de <ungetc>
    2f26:	91 10       	cpse	r9, r1
    2f28:	89 cf       	rjmp	.-238    	; 0x2e3c <conv_brk+0x66>
    2f2a:	e1 14       	cp	r14, r1
    2f2c:	f1 04       	cpc	r15, r1
    2f2e:	11 f0       	breq	.+4      	; 0x2f34 <conv_brk+0x15e>
    2f30:	f7 01       	movw	r30, r14
    2f32:	10 82       	st	Z, r1
    2f34:	c8 01       	movw	r24, r16
    2f36:	a1 96       	adiw	r28, 0x21	; 33
    2f38:	0f b6       	in	r0, 0x3f	; 63
    2f3a:	f8 94       	cli
    2f3c:	de bf       	out	0x3e, r29	; 62
    2f3e:	0f be       	out	0x3f, r0	; 63
    2f40:	cd bf       	out	0x3d, r28	; 61
    2f42:	df 91       	pop	r29
    2f44:	cf 91       	pop	r28
    2f46:	1f 91       	pop	r17
    2f48:	0f 91       	pop	r16
    2f4a:	ff 90       	pop	r15
    2f4c:	ef 90       	pop	r14
    2f4e:	df 90       	pop	r13
    2f50:	cf 90       	pop	r12
    2f52:	bf 90       	pop	r11
    2f54:	af 90       	pop	r10
    2f56:	9f 90       	pop	r9
    2f58:	8f 90       	pop	r8
    2f5a:	7f 90       	pop	r7
    2f5c:	6f 90       	pop	r6
    2f5e:	08 95       	ret

00002f60 <vfscanf>:
    2f60:	4f 92       	push	r4
    2f62:	5f 92       	push	r5
    2f64:	7f 92       	push	r7
    2f66:	8f 92       	push	r8
    2f68:	9f 92       	push	r9
    2f6a:	af 92       	push	r10
    2f6c:	bf 92       	push	r11
    2f6e:	cf 92       	push	r12
    2f70:	df 92       	push	r13
    2f72:	ef 92       	push	r14
    2f74:	ff 92       	push	r15
    2f76:	0f 93       	push	r16
    2f78:	1f 93       	push	r17
    2f7a:	cf 93       	push	r28
    2f7c:	df 93       	push	r29
    2f7e:	1f 92       	push	r1
    2f80:	cd b7       	in	r28, 0x3d	; 61
    2f82:	de b7       	in	r29, 0x3e	; 62
    2f84:	6c 01       	movw	r12, r24
    2f86:	2b 01       	movw	r4, r22
    2f88:	5a 01       	movw	r10, r20
    2f8a:	fc 01       	movw	r30, r24
    2f8c:	17 82       	std	Z+7, r1	; 0x07
    2f8e:	16 82       	std	Z+6, r1	; 0x06
    2f90:	71 2c       	mov	r7, r1
    2f92:	f6 01       	movw	r30, r12
    2f94:	f3 80       	ldd	r15, Z+3	; 0x03
    2f96:	f2 01       	movw	r30, r4
    2f98:	f3 fc       	sbrc	r15, 3
    2f9a:	85 91       	lpm	r24, Z+
    2f9c:	f3 fe       	sbrs	r15, 3
    2f9e:	81 91       	ld	r24, Z+
    2fa0:	38 2f       	mov	r19, r24
    2fa2:	2f 01       	movw	r4, r30
    2fa4:	88 23       	and	r24, r24
    2fa6:	09 f4       	brne	.+2      	; 0x2faa <vfscanf+0x4a>
    2fa8:	e5 c0       	rjmp	.+458    	; 0x3174 <vfscanf+0x214>
    2faa:	90 e0       	ldi	r25, 0x00	; 0
    2fac:	39 83       	std	Y+1, r19	; 0x01
    2fae:	f8 d0       	rcall	.+496    	; 0x31a0 <isspace>
    2fb0:	39 81       	ldd	r19, Y+1	; 0x01
    2fb2:	89 2b       	or	r24, r25
    2fb4:	19 f0       	breq	.+6      	; 0x2fbc <vfscanf+0x5c>
    2fb6:	c6 01       	movw	r24, r12
    2fb8:	58 de       	rcall	.-848    	; 0x2c6a <skip_spaces>
    2fba:	eb cf       	rjmp	.-42     	; 0x2f92 <vfscanf+0x32>
    2fbc:	35 32       	cpi	r19, 0x25	; 37
    2fbe:	41 f4       	brne	.+16     	; 0x2fd0 <vfscanf+0x70>
    2fc0:	f2 01       	movw	r30, r4
    2fc2:	f3 fc       	sbrc	r15, 3
    2fc4:	35 91       	lpm	r19, Z+
    2fc6:	f3 fe       	sbrs	r15, 3
    2fc8:	31 91       	ld	r19, Z+
    2fca:	2f 01       	movw	r4, r30
    2fcc:	35 32       	cpi	r19, 0x25	; 37
    2fce:	59 f4       	brne	.+22     	; 0x2fe6 <vfscanf+0x86>
    2fd0:	c6 01       	movw	r24, r12
    2fd2:	39 83       	std	Y+1, r19	; 0x01
    2fd4:	0e d1       	rcall	.+540    	; 0x31f2 <fgetc>
    2fd6:	39 81       	ldd	r19, Y+1	; 0x01
    2fd8:	97 fd       	sbrc	r25, 7
    2fda:	ca c0       	rjmp	.+404    	; 0x3170 <vfscanf+0x210>
    2fdc:	38 17       	cp	r19, r24
    2fde:	c9 f2       	breq	.-78     	; 0x2f92 <vfscanf+0x32>
    2fe0:	b6 01       	movw	r22, r12
    2fe2:	7d d1       	rcall	.+762    	; 0x32de <ungetc>
    2fe4:	c7 c0       	rjmp	.+398    	; 0x3174 <vfscanf+0x214>
    2fe6:	3a 32       	cpi	r19, 0x2A	; 42
    2fe8:	39 f4       	brne	.+14     	; 0x2ff8 <vfscanf+0x98>
    2fea:	f3 fc       	sbrc	r15, 3
    2fec:	35 91       	lpm	r19, Z+
    2fee:	f3 fe       	sbrs	r15, 3
    2ff0:	31 91       	ld	r19, Z+
    2ff2:	2f 01       	movw	r4, r30
    2ff4:	51 e0       	ldi	r21, 0x01	; 1
    2ff6:	01 c0       	rjmp	.+2      	; 0x2ffa <vfscanf+0x9a>
    2ff8:	50 e0       	ldi	r21, 0x00	; 0
    2ffa:	42 01       	movw	r8, r4
    2ffc:	10 e0       	ldi	r17, 0x00	; 0
    2ffe:	20 ed       	ldi	r18, 0xD0	; 208
    3000:	23 0f       	add	r18, r19
    3002:	2a 30       	cpi	r18, 0x0A	; 10
    3004:	88 f4       	brcc	.+34     	; 0x3028 <vfscanf+0xc8>
    3006:	52 60       	ori	r21, 0x02	; 2
    3008:	61 2f       	mov	r22, r17
    300a:	70 e0       	ldi	r23, 0x00	; 0
    300c:	80 e0       	ldi	r24, 0x00	; 0
    300e:	90 e0       	ldi	r25, 0x00	; 0
    3010:	40 e2       	ldi	r20, 0x20	; 32
    3012:	59 83       	std	Y+1, r21	; 0x01
    3014:	0a de       	rcall	.-1004   	; 0x2c2a <mulacc>
    3016:	16 2f       	mov	r17, r22
    3018:	f4 01       	movw	r30, r8
    301a:	f3 fc       	sbrc	r15, 3
    301c:	35 91       	lpm	r19, Z+
    301e:	f3 fe       	sbrs	r15, 3
    3020:	31 91       	ld	r19, Z+
    3022:	4f 01       	movw	r8, r30
    3024:	59 81       	ldd	r21, Y+1	; 0x01
    3026:	eb cf       	rjmp	.-42     	; 0x2ffe <vfscanf+0x9e>
    3028:	05 2f       	mov	r16, r21
    302a:	23 2f       	mov	r18, r19
    302c:	24 01       	movw	r4, r8
    302e:	51 ff       	sbrs	r21, 1
    3030:	03 c0       	rjmp	.+6      	; 0x3038 <vfscanf+0xd8>
    3032:	11 11       	cpse	r17, r1
    3034:	02 c0       	rjmp	.+4      	; 0x303a <vfscanf+0xda>
    3036:	9e c0       	rjmp	.+316    	; 0x3174 <vfscanf+0x214>
    3038:	1f ef       	ldi	r17, 0xFF	; 255
    303a:	38 36       	cpi	r19, 0x68	; 104
    303c:	19 f0       	breq	.+6      	; 0x3044 <vfscanf+0xe4>
    303e:	3c 36       	cpi	r19, 0x6C	; 108
    3040:	59 f0       	breq	.+22     	; 0x3058 <vfscanf+0xf8>
    3042:	11 c0       	rjmp	.+34     	; 0x3066 <vfscanf+0x106>
    3044:	f4 01       	movw	r30, r8
    3046:	f3 fc       	sbrc	r15, 3
    3048:	25 91       	lpm	r18, Z+
    304a:	f3 fe       	sbrs	r15, 3
    304c:	21 91       	ld	r18, Z+
    304e:	2f 01       	movw	r4, r30
    3050:	28 36       	cpi	r18, 0x68	; 104
    3052:	49 f4       	brne	.+18     	; 0x3066 <vfscanf+0x106>
    3054:	05 2f       	mov	r16, r21
    3056:	08 60       	ori	r16, 0x08	; 8
    3058:	04 60       	ori	r16, 0x04	; 4
    305a:	f2 01       	movw	r30, r4
    305c:	f3 fc       	sbrc	r15, 3
    305e:	25 91       	lpm	r18, Z+
    3060:	f3 fe       	sbrs	r15, 3
    3062:	21 91       	ld	r18, Z+
    3064:	2f 01       	movw	r4, r30
    3066:	22 23       	and	r18, r18
    3068:	09 f4       	brne	.+2      	; 0x306c <vfscanf+0x10c>
    306a:	84 c0       	rjmp	.+264    	; 0x3174 <vfscanf+0x214>
    306c:	62 2f       	mov	r22, r18
    306e:	70 e0       	ldi	r23, 0x00	; 0
    3070:	80 e3       	ldi	r24, 0x30	; 48
    3072:	99 e0       	ldi	r25, 0x09	; 9
    3074:	29 83       	std	Y+1, r18	; 0x01
    3076:	9c d0       	rcall	.+312    	; 0x31b0 <strchr_P>
    3078:	29 81       	ldd	r18, Y+1	; 0x01
    307a:	89 2b       	or	r24, r25
    307c:	09 f4       	brne	.+2      	; 0x3080 <vfscanf+0x120>
    307e:	7a c0       	rjmp	.+244    	; 0x3174 <vfscanf+0x214>
    3080:	00 fd       	sbrc	r16, 0
    3082:	07 c0       	rjmp	.+14     	; 0x3092 <vfscanf+0x132>
    3084:	f5 01       	movw	r30, r10
    3086:	e0 80       	ld	r14, Z
    3088:	f1 80       	ldd	r15, Z+1	; 0x01
    308a:	c5 01       	movw	r24, r10
    308c:	02 96       	adiw	r24, 0x02	; 2
    308e:	5c 01       	movw	r10, r24
    3090:	02 c0       	rjmp	.+4      	; 0x3096 <vfscanf+0x136>
    3092:	e1 2c       	mov	r14, r1
    3094:	f1 2c       	mov	r15, r1
    3096:	2e 36       	cpi	r18, 0x6E	; 110
    3098:	49 f4       	brne	.+18     	; 0x30ac <vfscanf+0x14c>
    309a:	f6 01       	movw	r30, r12
    309c:	46 81       	ldd	r20, Z+6	; 0x06
    309e:	57 81       	ldd	r21, Z+7	; 0x07
    30a0:	60 e0       	ldi	r22, 0x00	; 0
    30a2:	70 e0       	ldi	r23, 0x00	; 0
    30a4:	20 2f       	mov	r18, r16
    30a6:	c7 01       	movw	r24, r14
    30a8:	b4 dd       	rcall	.-1176   	; 0x2c12 <putval>
    30aa:	73 cf       	rjmp	.-282    	; 0x2f92 <vfscanf+0x32>
    30ac:	23 36       	cpi	r18, 0x63	; 99
    30ae:	89 f4       	brne	.+34     	; 0x30d2 <vfscanf+0x172>
    30b0:	01 ff       	sbrs	r16, 1
    30b2:	11 e0       	ldi	r17, 0x01	; 1
    30b4:	c6 01       	movw	r24, r12
    30b6:	9d d0       	rcall	.+314    	; 0x31f2 <fgetc>
    30b8:	97 fd       	sbrc	r25, 7
    30ba:	5a c0       	rjmp	.+180    	; 0x3170 <vfscanf+0x210>
    30bc:	e1 14       	cp	r14, r1
    30be:	f1 04       	cpc	r15, r1
    30c0:	29 f0       	breq	.+10     	; 0x30cc <vfscanf+0x16c>
    30c2:	f7 01       	movw	r30, r14
    30c4:	80 83       	st	Z, r24
    30c6:	c7 01       	movw	r24, r14
    30c8:	01 96       	adiw	r24, 0x01	; 1
    30ca:	7c 01       	movw	r14, r24
    30cc:	11 50       	subi	r17, 0x01	; 1
    30ce:	91 f7       	brne	.-28     	; 0x30b4 <vfscanf+0x154>
    30d0:	4b c0       	rjmp	.+150    	; 0x3168 <vfscanf+0x208>
    30d2:	2b 35       	cpi	r18, 0x5B	; 91
    30d4:	51 f4       	brne	.+20     	; 0x30ea <vfscanf+0x18a>
    30d6:	92 01       	movw	r18, r4
    30d8:	a7 01       	movw	r20, r14
    30da:	61 2f       	mov	r22, r17
    30dc:	c6 01       	movw	r24, r12
    30de:	7b de       	rcall	.-778    	; 0x2dd6 <conv_brk>
    30e0:	2c 01       	movw	r4, r24
    30e2:	89 2b       	or	r24, r25
    30e4:	09 f0       	breq	.+2      	; 0x30e8 <vfscanf+0x188>
    30e6:	40 c0       	rjmp	.+128    	; 0x3168 <vfscanf+0x208>
    30e8:	3a c0       	rjmp	.+116    	; 0x315e <vfscanf+0x1fe>
    30ea:	c6 01       	movw	r24, r12
    30ec:	29 83       	std	Y+1, r18	; 0x01
    30ee:	bd dd       	rcall	.-1158   	; 0x2c6a <skip_spaces>
    30f0:	29 81       	ldd	r18, Y+1	; 0x01
    30f2:	97 fd       	sbrc	r25, 7
    30f4:	3d c0       	rjmp	.+122    	; 0x3170 <vfscanf+0x210>
    30f6:	2f 36       	cpi	r18, 0x6F	; 111
    30f8:	41 f1       	breq	.+80     	; 0x314a <vfscanf+0x1ea>
    30fa:	28 f4       	brcc	.+10     	; 0x3106 <vfscanf+0x1a6>
    30fc:	24 36       	cpi	r18, 0x64	; 100
    30fe:	19 f1       	breq	.+70     	; 0x3146 <vfscanf+0x1e6>
    3100:	29 36       	cpi	r18, 0x69	; 105
    3102:	31 f1       	breq	.+76     	; 0x3150 <vfscanf+0x1f0>
    3104:	24 c0       	rjmp	.+72     	; 0x314e <vfscanf+0x1ee>
    3106:	23 37       	cpi	r18, 0x73	; 115
    3108:	69 f0       	breq	.+26     	; 0x3124 <vfscanf+0x1c4>
    310a:	25 37       	cpi	r18, 0x75	; 117
    310c:	e1 f0       	breq	.+56     	; 0x3146 <vfscanf+0x1e6>
    310e:	1f c0       	rjmp	.+62     	; 0x314e <vfscanf+0x1ee>
    3110:	e1 14       	cp	r14, r1
    3112:	f1 04       	cpc	r15, r1
    3114:	29 f0       	breq	.+10     	; 0x3120 <vfscanf+0x1c0>
    3116:	f7 01       	movw	r30, r14
    3118:	80 82       	st	Z, r8
    311a:	c7 01       	movw	r24, r14
    311c:	01 96       	adiw	r24, 0x01	; 1
    311e:	7c 01       	movw	r14, r24
    3120:	11 50       	subi	r17, 0x01	; 1
    3122:	59 f0       	breq	.+22     	; 0x313a <vfscanf+0x1da>
    3124:	c6 01       	movw	r24, r12
    3126:	65 d0       	rcall	.+202    	; 0x31f2 <fgetc>
    3128:	4c 01       	movw	r8, r24
    312a:	97 fd       	sbrc	r25, 7
    312c:	06 c0       	rjmp	.+12     	; 0x313a <vfscanf+0x1da>
    312e:	38 d0       	rcall	.+112    	; 0x31a0 <isspace>
    3130:	89 2b       	or	r24, r25
    3132:	71 f3       	breq	.-36     	; 0x3110 <vfscanf+0x1b0>
    3134:	b6 01       	movw	r22, r12
    3136:	c4 01       	movw	r24, r8
    3138:	d2 d0       	rcall	.+420    	; 0x32de <ungetc>
    313a:	e1 14       	cp	r14, r1
    313c:	f1 04       	cpc	r15, r1
    313e:	a1 f0       	breq	.+40     	; 0x3168 <vfscanf+0x208>
    3140:	f7 01       	movw	r30, r14
    3142:	10 82       	st	Z, r1
    3144:	11 c0       	rjmp	.+34     	; 0x3168 <vfscanf+0x208>
    3146:	00 62       	ori	r16, 0x20	; 32
    3148:	03 c0       	rjmp	.+6      	; 0x3150 <vfscanf+0x1f0>
    314a:	00 61       	ori	r16, 0x10	; 16
    314c:	01 c0       	rjmp	.+2      	; 0x3150 <vfscanf+0x1f0>
    314e:	00 64       	ori	r16, 0x40	; 64
    3150:	20 2f       	mov	r18, r16
    3152:	a7 01       	movw	r20, r14
    3154:	61 2f       	mov	r22, r17
    3156:	c6 01       	movw	r24, r12
    3158:	9e dd       	rcall	.-1220   	; 0x2c96 <conv_int>
    315a:	81 11       	cpse	r24, r1
    315c:	05 c0       	rjmp	.+10     	; 0x3168 <vfscanf+0x208>
    315e:	f6 01       	movw	r30, r12
    3160:	83 81       	ldd	r24, Z+3	; 0x03
    3162:	80 73       	andi	r24, 0x30	; 48
    3164:	29 f4       	brne	.+10     	; 0x3170 <vfscanf+0x210>
    3166:	06 c0       	rjmp	.+12     	; 0x3174 <vfscanf+0x214>
    3168:	00 fd       	sbrc	r16, 0
    316a:	13 cf       	rjmp	.-474    	; 0x2f92 <vfscanf+0x32>
    316c:	73 94       	inc	r7
    316e:	11 cf       	rjmp	.-478    	; 0x2f92 <vfscanf+0x32>
    3170:	77 20       	and	r7, r7
    3172:	19 f0       	breq	.+6      	; 0x317a <vfscanf+0x21a>
    3174:	87 2d       	mov	r24, r7
    3176:	90 e0       	ldi	r25, 0x00	; 0
    3178:	02 c0       	rjmp	.+4      	; 0x317e <vfscanf+0x21e>
    317a:	8f ef       	ldi	r24, 0xFF	; 255
    317c:	9f ef       	ldi	r25, 0xFF	; 255
    317e:	0f 90       	pop	r0
    3180:	df 91       	pop	r29
    3182:	cf 91       	pop	r28
    3184:	1f 91       	pop	r17
    3186:	0f 91       	pop	r16
    3188:	ff 90       	pop	r15
    318a:	ef 90       	pop	r14
    318c:	df 90       	pop	r13
    318e:	cf 90       	pop	r12
    3190:	bf 90       	pop	r11
    3192:	af 90       	pop	r10
    3194:	9f 90       	pop	r9
    3196:	8f 90       	pop	r8
    3198:	7f 90       	pop	r7
    319a:	5f 90       	pop	r5
    319c:	4f 90       	pop	r4
    319e:	08 95       	ret

000031a0 <isspace>:
    31a0:	91 11       	cpse	r25, r1
    31a2:	14 c1       	rjmp	.+552    	; 0x33cc <__ctype_isfalse>
    31a4:	80 32       	cpi	r24, 0x20	; 32
    31a6:	19 f0       	breq	.+6      	; 0x31ae <isspace+0xe>
    31a8:	89 50       	subi	r24, 0x09	; 9
    31aa:	85 50       	subi	r24, 0x05	; 5
    31ac:	d0 f7       	brcc	.-12     	; 0x31a2 <isspace+0x2>
    31ae:	08 95       	ret

000031b0 <strchr_P>:
    31b0:	fc 01       	movw	r30, r24
    31b2:	05 90       	lpm	r0, Z+
    31b4:	06 16       	cp	r0, r22
    31b6:	21 f0       	breq	.+8      	; 0x31c0 <strchr_P+0x10>
    31b8:	00 20       	and	r0, r0
    31ba:	d9 f7       	brne	.-10     	; 0x31b2 <strchr_P+0x2>
    31bc:	c0 01       	movw	r24, r0
    31be:	08 95       	ret
    31c0:	31 97       	sbiw	r30, 0x01	; 1
    31c2:	cf 01       	movw	r24, r30
    31c4:	08 95       	ret

000031c6 <strnlen_P>:
    31c6:	fc 01       	movw	r30, r24
    31c8:	05 90       	lpm	r0, Z+
    31ca:	61 50       	subi	r22, 0x01	; 1
    31cc:	70 40       	sbci	r23, 0x00	; 0
    31ce:	01 10       	cpse	r0, r1
    31d0:	d8 f7       	brcc	.-10     	; 0x31c8 <strnlen_P+0x2>
    31d2:	80 95       	com	r24
    31d4:	90 95       	com	r25
    31d6:	8e 0f       	add	r24, r30
    31d8:	9f 1f       	adc	r25, r31
    31da:	08 95       	ret

000031dc <strnlen>:
    31dc:	fc 01       	movw	r30, r24
    31de:	61 50       	subi	r22, 0x01	; 1
    31e0:	70 40       	sbci	r23, 0x00	; 0
    31e2:	01 90       	ld	r0, Z+
    31e4:	01 10       	cpse	r0, r1
    31e6:	d8 f7       	brcc	.-10     	; 0x31de <strnlen+0x2>
    31e8:	80 95       	com	r24
    31ea:	90 95       	com	r25
    31ec:	8e 0f       	add	r24, r30
    31ee:	9f 1f       	adc	r25, r31
    31f0:	08 95       	ret

000031f2 <fgetc>:
    31f2:	cf 93       	push	r28
    31f4:	df 93       	push	r29
    31f6:	ec 01       	movw	r28, r24
    31f8:	2b 81       	ldd	r18, Y+3	; 0x03
    31fa:	20 ff       	sbrs	r18, 0
    31fc:	33 c0       	rjmp	.+102    	; 0x3264 <fgetc+0x72>
    31fe:	26 ff       	sbrs	r18, 6
    3200:	0a c0       	rjmp	.+20     	; 0x3216 <fgetc+0x24>
    3202:	2f 7b       	andi	r18, 0xBF	; 191
    3204:	2b 83       	std	Y+3, r18	; 0x03
    3206:	8e 81       	ldd	r24, Y+6	; 0x06
    3208:	9f 81       	ldd	r25, Y+7	; 0x07
    320a:	01 96       	adiw	r24, 0x01	; 1
    320c:	9f 83       	std	Y+7, r25	; 0x07
    320e:	8e 83       	std	Y+6, r24	; 0x06
    3210:	8a 81       	ldd	r24, Y+2	; 0x02
    3212:	90 e0       	ldi	r25, 0x00	; 0
    3214:	29 c0       	rjmp	.+82     	; 0x3268 <fgetc+0x76>
    3216:	22 ff       	sbrs	r18, 2
    3218:	0f c0       	rjmp	.+30     	; 0x3238 <fgetc+0x46>
    321a:	e8 81       	ld	r30, Y
    321c:	f9 81       	ldd	r31, Y+1	; 0x01
    321e:	80 81       	ld	r24, Z
    3220:	08 2e       	mov	r0, r24
    3222:	00 0c       	add	r0, r0
    3224:	99 0b       	sbc	r25, r25
    3226:	00 97       	sbiw	r24, 0x00	; 0
    3228:	19 f4       	brne	.+6      	; 0x3230 <fgetc+0x3e>
    322a:	20 62       	ori	r18, 0x20	; 32
    322c:	2b 83       	std	Y+3, r18	; 0x03
    322e:	1a c0       	rjmp	.+52     	; 0x3264 <fgetc+0x72>
    3230:	31 96       	adiw	r30, 0x01	; 1
    3232:	f9 83       	std	Y+1, r31	; 0x01
    3234:	e8 83       	st	Y, r30
    3236:	0e c0       	rjmp	.+28     	; 0x3254 <fgetc+0x62>
    3238:	ea 85       	ldd	r30, Y+10	; 0x0a
    323a:	fb 85       	ldd	r31, Y+11	; 0x0b
    323c:	19 95       	eicall
    323e:	97 ff       	sbrs	r25, 7
    3240:	09 c0       	rjmp	.+18     	; 0x3254 <fgetc+0x62>
    3242:	2b 81       	ldd	r18, Y+3	; 0x03
    3244:	01 96       	adiw	r24, 0x01	; 1
    3246:	11 f0       	breq	.+4      	; 0x324c <fgetc+0x5a>
    3248:	80 e2       	ldi	r24, 0x20	; 32
    324a:	01 c0       	rjmp	.+2      	; 0x324e <fgetc+0x5c>
    324c:	80 e1       	ldi	r24, 0x10	; 16
    324e:	82 2b       	or	r24, r18
    3250:	8b 83       	std	Y+3, r24	; 0x03
    3252:	08 c0       	rjmp	.+16     	; 0x3264 <fgetc+0x72>
    3254:	2e 81       	ldd	r18, Y+6	; 0x06
    3256:	3f 81       	ldd	r19, Y+7	; 0x07
    3258:	2f 5f       	subi	r18, 0xFF	; 255
    325a:	3f 4f       	sbci	r19, 0xFF	; 255
    325c:	3f 83       	std	Y+7, r19	; 0x07
    325e:	2e 83       	std	Y+6, r18	; 0x06
    3260:	99 27       	eor	r25, r25
    3262:	02 c0       	rjmp	.+4      	; 0x3268 <fgetc+0x76>
    3264:	8f ef       	ldi	r24, 0xFF	; 255
    3266:	9f ef       	ldi	r25, 0xFF	; 255
    3268:	df 91       	pop	r29
    326a:	cf 91       	pop	r28
    326c:	08 95       	ret

0000326e <fputc>:
    326e:	0f 93       	push	r16
    3270:	1f 93       	push	r17
    3272:	cf 93       	push	r28
    3274:	df 93       	push	r29
    3276:	fb 01       	movw	r30, r22
    3278:	23 81       	ldd	r18, Z+3	; 0x03
    327a:	21 fd       	sbrc	r18, 1
    327c:	03 c0       	rjmp	.+6      	; 0x3284 <fputc+0x16>
    327e:	8f ef       	ldi	r24, 0xFF	; 255
    3280:	9f ef       	ldi	r25, 0xFF	; 255
    3282:	28 c0       	rjmp	.+80     	; 0x32d4 <fputc+0x66>
    3284:	22 ff       	sbrs	r18, 2
    3286:	16 c0       	rjmp	.+44     	; 0x32b4 <fputc+0x46>
    3288:	46 81       	ldd	r20, Z+6	; 0x06
    328a:	57 81       	ldd	r21, Z+7	; 0x07
    328c:	24 81       	ldd	r18, Z+4	; 0x04
    328e:	35 81       	ldd	r19, Z+5	; 0x05
    3290:	42 17       	cp	r20, r18
    3292:	53 07       	cpc	r21, r19
    3294:	44 f4       	brge	.+16     	; 0x32a6 <fputc+0x38>
    3296:	a0 81       	ld	r26, Z
    3298:	b1 81       	ldd	r27, Z+1	; 0x01
    329a:	9d 01       	movw	r18, r26
    329c:	2f 5f       	subi	r18, 0xFF	; 255
    329e:	3f 4f       	sbci	r19, 0xFF	; 255
    32a0:	31 83       	std	Z+1, r19	; 0x01
    32a2:	20 83       	st	Z, r18
    32a4:	8c 93       	st	X, r24
    32a6:	26 81       	ldd	r18, Z+6	; 0x06
    32a8:	37 81       	ldd	r19, Z+7	; 0x07
    32aa:	2f 5f       	subi	r18, 0xFF	; 255
    32ac:	3f 4f       	sbci	r19, 0xFF	; 255
    32ae:	37 83       	std	Z+7, r19	; 0x07
    32b0:	26 83       	std	Z+6, r18	; 0x06
    32b2:	10 c0       	rjmp	.+32     	; 0x32d4 <fputc+0x66>
    32b4:	eb 01       	movw	r28, r22
    32b6:	09 2f       	mov	r16, r25
    32b8:	18 2f       	mov	r17, r24
    32ba:	00 84       	ldd	r0, Z+8	; 0x08
    32bc:	f1 85       	ldd	r31, Z+9	; 0x09
    32be:	e0 2d       	mov	r30, r0
    32c0:	19 95       	eicall
    32c2:	89 2b       	or	r24, r25
    32c4:	e1 f6       	brne	.-72     	; 0x327e <fputc+0x10>
    32c6:	8e 81       	ldd	r24, Y+6	; 0x06
    32c8:	9f 81       	ldd	r25, Y+7	; 0x07
    32ca:	01 96       	adiw	r24, 0x01	; 1
    32cc:	9f 83       	std	Y+7, r25	; 0x07
    32ce:	8e 83       	std	Y+6, r24	; 0x06
    32d0:	81 2f       	mov	r24, r17
    32d2:	90 2f       	mov	r25, r16
    32d4:	df 91       	pop	r29
    32d6:	cf 91       	pop	r28
    32d8:	1f 91       	pop	r17
    32da:	0f 91       	pop	r16
    32dc:	08 95       	ret

000032de <ungetc>:
    32de:	fb 01       	movw	r30, r22
    32e0:	23 81       	ldd	r18, Z+3	; 0x03
    32e2:	20 ff       	sbrs	r18, 0
    32e4:	12 c0       	rjmp	.+36     	; 0x330a <ungetc+0x2c>
    32e6:	26 fd       	sbrc	r18, 6
    32e8:	10 c0       	rjmp	.+32     	; 0x330a <ungetc+0x2c>
    32ea:	8f 3f       	cpi	r24, 0xFF	; 255
    32ec:	3f ef       	ldi	r19, 0xFF	; 255
    32ee:	93 07       	cpc	r25, r19
    32f0:	61 f0       	breq	.+24     	; 0x330a <ungetc+0x2c>
    32f2:	82 83       	std	Z+2, r24	; 0x02
    32f4:	2f 7d       	andi	r18, 0xDF	; 223
    32f6:	20 64       	ori	r18, 0x40	; 64
    32f8:	23 83       	std	Z+3, r18	; 0x03
    32fa:	26 81       	ldd	r18, Z+6	; 0x06
    32fc:	37 81       	ldd	r19, Z+7	; 0x07
    32fe:	21 50       	subi	r18, 0x01	; 1
    3300:	31 09       	sbc	r19, r1
    3302:	37 83       	std	Z+7, r19	; 0x07
    3304:	26 83       	std	Z+6, r18	; 0x06
    3306:	99 27       	eor	r25, r25
    3308:	08 95       	ret
    330a:	8f ef       	ldi	r24, 0xFF	; 255
    330c:	9f ef       	ldi	r25, 0xFF	; 255
    330e:	08 95       	ret

00003310 <__ultoa_invert>:
    3310:	fa 01       	movw	r30, r20
    3312:	aa 27       	eor	r26, r26
    3314:	28 30       	cpi	r18, 0x08	; 8
    3316:	51 f1       	breq	.+84     	; 0x336c <__ultoa_invert+0x5c>
    3318:	20 31       	cpi	r18, 0x10	; 16
    331a:	81 f1       	breq	.+96     	; 0x337c <__ultoa_invert+0x6c>
    331c:	e8 94       	clt
    331e:	6f 93       	push	r22
    3320:	6e 7f       	andi	r22, 0xFE	; 254
    3322:	6e 5f       	subi	r22, 0xFE	; 254
    3324:	7f 4f       	sbci	r23, 0xFF	; 255
    3326:	8f 4f       	sbci	r24, 0xFF	; 255
    3328:	9f 4f       	sbci	r25, 0xFF	; 255
    332a:	af 4f       	sbci	r26, 0xFF	; 255
    332c:	b1 e0       	ldi	r27, 0x01	; 1
    332e:	3e d0       	rcall	.+124    	; 0x33ac <__ultoa_invert+0x9c>
    3330:	b4 e0       	ldi	r27, 0x04	; 4
    3332:	3c d0       	rcall	.+120    	; 0x33ac <__ultoa_invert+0x9c>
    3334:	67 0f       	add	r22, r23
    3336:	78 1f       	adc	r23, r24
    3338:	89 1f       	adc	r24, r25
    333a:	9a 1f       	adc	r25, r26
    333c:	a1 1d       	adc	r26, r1
    333e:	68 0f       	add	r22, r24
    3340:	79 1f       	adc	r23, r25
    3342:	8a 1f       	adc	r24, r26
    3344:	91 1d       	adc	r25, r1
    3346:	a1 1d       	adc	r26, r1
    3348:	6a 0f       	add	r22, r26
    334a:	71 1d       	adc	r23, r1
    334c:	81 1d       	adc	r24, r1
    334e:	91 1d       	adc	r25, r1
    3350:	a1 1d       	adc	r26, r1
    3352:	20 d0       	rcall	.+64     	; 0x3394 <__ultoa_invert+0x84>
    3354:	09 f4       	brne	.+2      	; 0x3358 <__ultoa_invert+0x48>
    3356:	68 94       	set
    3358:	3f 91       	pop	r19
    335a:	2a e0       	ldi	r18, 0x0A	; 10
    335c:	26 9f       	mul	r18, r22
    335e:	11 24       	eor	r1, r1
    3360:	30 19       	sub	r19, r0
    3362:	30 5d       	subi	r19, 0xD0	; 208
    3364:	31 93       	st	Z+, r19
    3366:	de f6       	brtc	.-74     	; 0x331e <__ultoa_invert+0xe>
    3368:	cf 01       	movw	r24, r30
    336a:	08 95       	ret
    336c:	46 2f       	mov	r20, r22
    336e:	47 70       	andi	r20, 0x07	; 7
    3370:	40 5d       	subi	r20, 0xD0	; 208
    3372:	41 93       	st	Z+, r20
    3374:	b3 e0       	ldi	r27, 0x03	; 3
    3376:	0f d0       	rcall	.+30     	; 0x3396 <__ultoa_invert+0x86>
    3378:	c9 f7       	brne	.-14     	; 0x336c <__ultoa_invert+0x5c>
    337a:	f6 cf       	rjmp	.-20     	; 0x3368 <__ultoa_invert+0x58>
    337c:	46 2f       	mov	r20, r22
    337e:	4f 70       	andi	r20, 0x0F	; 15
    3380:	40 5d       	subi	r20, 0xD0	; 208
    3382:	4a 33       	cpi	r20, 0x3A	; 58
    3384:	18 f0       	brcs	.+6      	; 0x338c <__ultoa_invert+0x7c>
    3386:	49 5d       	subi	r20, 0xD9	; 217
    3388:	31 fd       	sbrc	r19, 1
    338a:	40 52       	subi	r20, 0x20	; 32
    338c:	41 93       	st	Z+, r20
    338e:	02 d0       	rcall	.+4      	; 0x3394 <__ultoa_invert+0x84>
    3390:	a9 f7       	brne	.-22     	; 0x337c <__ultoa_invert+0x6c>
    3392:	ea cf       	rjmp	.-44     	; 0x3368 <__ultoa_invert+0x58>
    3394:	b4 e0       	ldi	r27, 0x04	; 4
    3396:	a6 95       	lsr	r26
    3398:	97 95       	ror	r25
    339a:	87 95       	ror	r24
    339c:	77 95       	ror	r23
    339e:	67 95       	ror	r22
    33a0:	ba 95       	dec	r27
    33a2:	c9 f7       	brne	.-14     	; 0x3396 <__ultoa_invert+0x86>
    33a4:	00 97       	sbiw	r24, 0x00	; 0
    33a6:	61 05       	cpc	r22, r1
    33a8:	71 05       	cpc	r23, r1
    33aa:	08 95       	ret
    33ac:	9b 01       	movw	r18, r22
    33ae:	ac 01       	movw	r20, r24
    33b0:	0a 2e       	mov	r0, r26
    33b2:	06 94       	lsr	r0
    33b4:	57 95       	ror	r21
    33b6:	47 95       	ror	r20
    33b8:	37 95       	ror	r19
    33ba:	27 95       	ror	r18
    33bc:	ba 95       	dec	r27
    33be:	c9 f7       	brne	.-14     	; 0x33b2 <__ultoa_invert+0xa2>
    33c0:	62 0f       	add	r22, r18
    33c2:	73 1f       	adc	r23, r19
    33c4:	84 1f       	adc	r24, r20
    33c6:	95 1f       	adc	r25, r21
    33c8:	a0 1d       	adc	r26, r0
    33ca:	08 95       	ret

000033cc <__ctype_isfalse>:
    33cc:	99 27       	eor	r25, r25
    33ce:	88 27       	eor	r24, r24

000033d0 <__ctype_istrue>:
    33d0:	08 95       	ret

000033d2 <_exit>:
    33d2:	f8 94       	cli

000033d4 <__stop_program>:
    33d4:	ff cf       	rjmp	.-2      	; 0x33d4 <__stop_program>
