
SeniorDesign.elf:     file format elf32-avr

Sections:
Idx Name          Size      VMA       LMA       File off  Algn
  0 .data         00000376  00800200  0000794e  000079e2  2**0
                  CONTENTS, ALLOC, LOAD, DATA
  1 .text         0000794e  00000000  00000000  00000094  2**1
                  CONTENTS, ALLOC, LOAD, READONLY, CODE
  2 .bss          000002d3  00800576  00800576  00007d58  2**0
                  ALLOC
  3 .comment      0000008c  00000000  00000000  00007d58  2**0
                  CONTENTS, READONLY
  4 .note.gnu.avr.deviceinfo 00000040  00000000  00000000  00007de4  2**2
                  CONTENTS, READONLY
  5 .debug_aranges 00000228  00000000  00000000  00007e24  2**0
                  CONTENTS, READONLY, DEBUGGING
  6 .debug_info   000049fd  00000000  00000000  0000804c  2**0
                  CONTENTS, READONLY, DEBUGGING
  7 .debug_abbrev 0000081b  00000000  00000000  0000ca49  2**0
                  CONTENTS, READONLY, DEBUGGING
  8 .debug_line   00003da8  00000000  00000000  0000d264  2**0
                  CONTENTS, READONLY, DEBUGGING
  9 .debug_frame  00000c7c  00000000  00000000  0001100c  2**2
                  CONTENTS, READONLY, DEBUGGING
 10 .debug_str    00000911  00000000  00000000  00011c88  2**0
                  CONTENTS, READONLY, DEBUGGING
 11 .debug_loc    000071e9  00000000  00000000  00012599  2**0
                  CONTENTS, READONLY, DEBUGGING
 12 .debug_ranges 00000328  00000000  00000000  00019782  2**0
                  CONTENTS, READONLY, DEBUGGING

Disassembly of section .text:

00000000 <__vectors>:
       0:	77 c0       	rjmp	.+238    	; 0xf0 <__ctors_end>
       2:	00 00       	nop
       4:	96 c0       	rjmp	.+300    	; 0x132 <__bad_interrupt>
       6:	00 00       	nop
       8:	94 c0       	rjmp	.+296    	; 0x132 <__bad_interrupt>
       a:	00 00       	nop
       c:	92 c0       	rjmp	.+292    	; 0x132 <__bad_interrupt>
       e:	00 00       	nop
      10:	90 c0       	rjmp	.+288    	; 0x132 <__bad_interrupt>
      12:	00 00       	nop
      14:	8e c0       	rjmp	.+284    	; 0x132 <__bad_interrupt>
      16:	00 00       	nop
      18:	8c c0       	rjmp	.+280    	; 0x132 <__bad_interrupt>
      1a:	00 00       	nop
      1c:	8a c0       	rjmp	.+276    	; 0x132 <__bad_interrupt>
      1e:	00 00       	nop
      20:	88 c0       	rjmp	.+272    	; 0x132 <__bad_interrupt>
      22:	00 00       	nop
      24:	86 c0       	rjmp	.+268    	; 0x132 <__bad_interrupt>
      26:	00 00       	nop
      28:	84 c0       	rjmp	.+264    	; 0x132 <__bad_interrupt>
      2a:	00 00       	nop
      2c:	82 c0       	rjmp	.+260    	; 0x132 <__bad_interrupt>
      2e:	00 00       	nop
      30:	80 c0       	rjmp	.+256    	; 0x132 <__bad_interrupt>
      32:	00 00       	nop
      34:	7e c0       	rjmp	.+252    	; 0x132 <__bad_interrupt>
      36:	00 00       	nop
      38:	7c c0       	rjmp	.+248    	; 0x132 <__bad_interrupt>
      3a:	00 00       	nop
      3c:	7a c0       	rjmp	.+244    	; 0x132 <__bad_interrupt>
      3e:	00 00       	nop
      40:	78 c0       	rjmp	.+240    	; 0x132 <__bad_interrupt>
      42:	00 00       	nop
      44:	76 c0       	rjmp	.+236    	; 0x132 <__bad_interrupt>
      46:	00 00       	nop
      48:	74 c0       	rjmp	.+232    	; 0x132 <__bad_interrupt>
      4a:	00 00       	nop
      4c:	72 c0       	rjmp	.+228    	; 0x132 <__bad_interrupt>
      4e:	00 00       	nop
      50:	0c 94 5b 12 	jmp	0x24b6	; 0x24b6 <__vector_20>
      54:	6e c0       	rjmp	.+220    	; 0x132 <__bad_interrupt>
      56:	00 00       	nop
      58:	6c c0       	rjmp	.+216    	; 0x132 <__bad_interrupt>
      5a:	00 00       	nop
      5c:	6a c0       	rjmp	.+212    	; 0x132 <__bad_interrupt>
      5e:	00 00       	nop
      60:	68 c0       	rjmp	.+208    	; 0x132 <__bad_interrupt>
      62:	00 00       	nop
      64:	0c 94 11 12 	jmp	0x2422	; 0x2422 <__vector_25>
      68:	64 c0       	rjmp	.+200    	; 0x132 <__bad_interrupt>
      6a:	00 00       	nop
      6c:	62 c0       	rjmp	.+196    	; 0x132 <__bad_interrupt>
      6e:	00 00       	nop
      70:	60 c0       	rjmp	.+192    	; 0x132 <__bad_interrupt>
      72:	00 00       	nop
      74:	5e c0       	rjmp	.+188    	; 0x132 <__bad_interrupt>
      76:	00 00       	nop
      78:	5c c0       	rjmp	.+184    	; 0x132 <__bad_interrupt>
      7a:	00 00       	nop
      7c:	5a c0       	rjmp	.+180    	; 0x132 <__bad_interrupt>
      7e:	00 00       	nop
      80:	58 c0       	rjmp	.+176    	; 0x132 <__bad_interrupt>
      82:	00 00       	nop
      84:	56 c0       	rjmp	.+172    	; 0x132 <__bad_interrupt>
      86:	00 00       	nop
      88:	54 c0       	rjmp	.+168    	; 0x132 <__bad_interrupt>
      8a:	00 00       	nop
      8c:	52 c0       	rjmp	.+164    	; 0x132 <__bad_interrupt>
      8e:	00 00       	nop
      90:	0c 94 31 12 	jmp	0x2462	; 0x2462 <__vector_36>
      94:	4e c0       	rjmp	.+156    	; 0x132 <__bad_interrupt>
      96:	00 00       	nop
      98:	4c c0       	rjmp	.+152    	; 0x132 <__bad_interrupt>
      9a:	00 00       	nop
      9c:	4a c0       	rjmp	.+148    	; 0x132 <__bad_interrupt>
      9e:	00 00       	nop
      a0:	48 c0       	rjmp	.+144    	; 0x132 <__bad_interrupt>
      a2:	00 00       	nop
      a4:	46 c0       	rjmp	.+140    	; 0x132 <__bad_interrupt>
      a6:	00 00       	nop
      a8:	44 c0       	rjmp	.+136    	; 0x132 <__bad_interrupt>
      aa:	00 00       	nop
      ac:	42 c0       	rjmp	.+132    	; 0x132 <__bad_interrupt>
      ae:	00 00       	nop
      b0:	40 c0       	rjmp	.+128    	; 0x132 <__bad_interrupt>
      b2:	00 00       	nop
      b4:	3e c0       	rjmp	.+124    	; 0x132 <__bad_interrupt>
      b6:	00 00       	nop
      b8:	3c c0       	rjmp	.+120    	; 0x132 <__bad_interrupt>
      ba:	00 00       	nop
      bc:	3a c0       	rjmp	.+116    	; 0x132 <__bad_interrupt>
      be:	00 00       	nop
      c0:	38 c0       	rjmp	.+112    	; 0x132 <__bad_interrupt>
      c2:	00 00       	nop
      c4:	36 c0       	rjmp	.+108    	; 0x132 <__bad_interrupt>
      c6:	00 00       	nop
      c8:	34 c0       	rjmp	.+104    	; 0x132 <__bad_interrupt>
      ca:	00 00       	nop
      cc:	32 c0       	rjmp	.+100    	; 0x132 <__bad_interrupt>
      ce:	00 00       	nop
      d0:	30 c0       	rjmp	.+96     	; 0x132 <__bad_interrupt>
      d2:	00 00       	nop
      d4:	2e c0       	rjmp	.+92     	; 0x132 <__bad_interrupt>
      d6:	00 00       	nop
      d8:	0c 94 51 12 	jmp	0x24a2	; 0x24a2 <__vector_54>
      dc:	2a c0       	rjmp	.+84     	; 0x132 <__bad_interrupt>
      de:	00 00       	nop
      e0:	28 c0       	rjmp	.+80     	; 0x132 <__bad_interrupt>
	...

000000e4 <__trampolines_end>:
      e4:	63 64       	ori	r22, 0x43	; 67
      e6:	69 6e       	ori	r22, 0xE9	; 233
      e8:	6f 70       	andi	r22, 0x0F	; 15
      ea:	73 75       	andi	r23, 0x53	; 83
      ec:	78 58       	subi	r23, 0x88	; 136
      ee:	5b 00       	.word	0x005b	; ????

000000f0 <__ctors_end>:
      f0:	11 24       	eor	r1, r1
      f2:	1f be       	out	0x3f, r1	; 63
      f4:	cf ef       	ldi	r28, 0xFF	; 255
      f6:	d1 e2       	ldi	r29, 0x21	; 33
      f8:	de bf       	out	0x3e, r29	; 62
      fa:	cd bf       	out	0x3d, r28	; 61
      fc:	00 e0       	ldi	r16, 0x00	; 0
      fe:	0c bf       	out	0x3c, r16	; 60

00000100 <__do_copy_data>:
     100:	15 e0       	ldi	r17, 0x05	; 5
     102:	a0 e0       	ldi	r26, 0x00	; 0
     104:	b2 e0       	ldi	r27, 0x02	; 2
     106:	ee e4       	ldi	r30, 0x4E	; 78
     108:	f9 e7       	ldi	r31, 0x79	; 121
     10a:	00 e0       	ldi	r16, 0x00	; 0
     10c:	0b bf       	out	0x3b, r16	; 59
     10e:	02 c0       	rjmp	.+4      	; 0x114 <__do_copy_data+0x14>
     110:	07 90       	elpm	r0, Z+
     112:	0d 92       	st	X+, r0
     114:	a6 37       	cpi	r26, 0x76	; 118
     116:	b1 07       	cpc	r27, r17
     118:	d9 f7       	brne	.-10     	; 0x110 <__do_copy_data+0x10>

0000011a <__do_clear_bss>:
     11a:	28 e0       	ldi	r18, 0x08	; 8
     11c:	a6 e7       	ldi	r26, 0x76	; 118
     11e:	b5 e0       	ldi	r27, 0x05	; 5
     120:	01 c0       	rjmp	.+2      	; 0x124 <.do_clear_bss_start>

00000122 <.do_clear_bss_loop>:
     122:	1d 92       	st	X+, r1

00000124 <.do_clear_bss_start>:
     124:	a9 34       	cpi	r26, 0x49	; 73
     126:	b2 07       	cpc	r27, r18
     128:	e1 f7       	brne	.-8      	; 0x122 <.do_clear_bss_loop>
     12a:	0e 94 b4 17 	call	0x2f68	; 0x2f68 <main>
     12e:	0c 94 a5 3c 	jmp	0x794a	; 0x794a <_exit>

00000132 <__bad_interrupt>:
     132:	66 cf       	rjmp	.-308    	; 0x0 <__vectors>

00000134 <mem_cpy>:
     134:	cf 93       	push	r28
     136:	df 93       	push	r29
     138:	42 30       	cpi	r20, 0x02	; 2
     13a:	51 05       	cpc	r21, r1
     13c:	c0 f0       	brcs	.+48     	; 0x16e <mem_cpy+0x3a>
     13e:	db 01       	movw	r26, r22
     140:	fc 01       	movw	r30, r24
     142:	9a 01       	movw	r18, r20
     144:	cd 91       	ld	r28, X+
     146:	dd 91       	ld	r29, X+
     148:	c1 93       	st	Z+, r28
     14a:	d1 93       	st	Z+, r29
     14c:	22 50       	subi	r18, 0x02	; 2
     14e:	31 09       	sbc	r19, r1
     150:	22 30       	cpi	r18, 0x02	; 2
     152:	31 05       	cpc	r19, r1
     154:	b8 f7       	brcc	.-18     	; 0x144 <mem_cpy+0x10>
     156:	9a 01       	movw	r18, r20
     158:	22 50       	subi	r18, 0x02	; 2
     15a:	31 09       	sbc	r19, r1
     15c:	2e 7f       	andi	r18, 0xFE	; 254
     15e:	2e 5f       	subi	r18, 0xFE	; 254
     160:	3f 4f       	sbci	r19, 0xFF	; 255
     162:	82 0f       	add	r24, r18
     164:	93 1f       	adc	r25, r19
     166:	62 0f       	add	r22, r18
     168:	73 1f       	adc	r23, r19
     16a:	41 70       	andi	r20, 0x01	; 1
     16c:	55 27       	eor	r21, r21
     16e:	41 15       	cp	r20, r1
     170:	51 05       	cpc	r21, r1
     172:	49 f0       	breq	.+18     	; 0x186 <mem_cpy+0x52>
     174:	db 01       	movw	r26, r22
     176:	fc 01       	movw	r30, r24
     178:	48 0f       	add	r20, r24
     17a:	59 1f       	adc	r21, r25
     17c:	9d 91       	ld	r25, X+
     17e:	91 93       	st	Z+, r25
     180:	e4 17       	cp	r30, r20
     182:	f5 07       	cpc	r31, r21
     184:	d9 f7       	brne	.-10     	; 0x17c <mem_cpy+0x48>
     186:	df 91       	pop	r29
     188:	cf 91       	pop	r28
     18a:	08 95       	ret

0000018c <get_ldnumber>:
     18c:	cf 93       	push	r28
     18e:	df 93       	push	r29
     190:	ec 01       	movw	r28, r24
     192:	a8 81       	ld	r26, Y
     194:	b9 81       	ldd	r27, Y+1	; 0x01
     196:	10 97       	sbiw	r26, 0x00	; 0
     198:	f9 f0       	breq	.+62     	; 0x1d8 <get_ldnumber+0x4c>
     19a:	4c 91       	ld	r20, X
     19c:	41 32       	cpi	r20, 0x21	; 33
     19e:	58 f0       	brcs	.+22     	; 0x1b6 <get_ldnumber+0x2a>
     1a0:	4a 33       	cpi	r20, 0x3A	; 58
     1a2:	31 f1       	breq	.+76     	; 0x1f0 <get_ldnumber+0x64>
     1a4:	fd 01       	movw	r30, r26
     1a6:	31 96       	adiw	r30, 0x01	; 1
     1a8:	9f 01       	movw	r18, r30
     1aa:	91 91       	ld	r25, Z+
     1ac:	91 32       	cpi	r25, 0x21	; 33
     1ae:	28 f0       	brcs	.+10     	; 0x1ba <get_ldnumber+0x2e>
     1b0:	9a 33       	cpi	r25, 0x3A	; 58
     1b2:	d1 f7       	brne	.-12     	; 0x1a8 <get_ldnumber+0x1c>
     1b4:	04 c0       	rjmp	.+8      	; 0x1be <get_ldnumber+0x32>
     1b6:	94 2f       	mov	r25, r20
     1b8:	9d 01       	movw	r18, r26
     1ba:	9a 33       	cpi	r25, 0x3A	; 58
     1bc:	81 f4       	brne	.+32     	; 0x1de <get_ldnumber+0x52>
     1be:	cd 01       	movw	r24, r26
     1c0:	01 96       	adiw	r24, 0x01	; 1
     1c2:	28 17       	cp	r18, r24
     1c4:	39 07       	cpc	r19, r25
     1c6:	71 f4       	brne	.+28     	; 0x1e4 <get_ldnumber+0x58>
     1c8:	40 33       	cpi	r20, 0x30	; 48
     1ca:	79 f4       	brne	.+30     	; 0x1ea <get_ldnumber+0x5e>
     1cc:	12 96       	adiw	r26, 0x02	; 2
     1ce:	b9 83       	std	Y+1, r27	; 0x01
     1d0:	a8 83       	st	Y, r26
     1d2:	80 e0       	ldi	r24, 0x00	; 0
     1d4:	90 e0       	ldi	r25, 0x00	; 0
     1d6:	0e c0       	rjmp	.+28     	; 0x1f4 <get_ldnumber+0x68>
     1d8:	8f ef       	ldi	r24, 0xFF	; 255
     1da:	9f ef       	ldi	r25, 0xFF	; 255
     1dc:	0b c0       	rjmp	.+22     	; 0x1f4 <get_ldnumber+0x68>
     1de:	80 e0       	ldi	r24, 0x00	; 0
     1e0:	90 e0       	ldi	r25, 0x00	; 0
     1e2:	08 c0       	rjmp	.+16     	; 0x1f4 <get_ldnumber+0x68>
     1e4:	8f ef       	ldi	r24, 0xFF	; 255
     1e6:	9f ef       	ldi	r25, 0xFF	; 255
     1e8:	05 c0       	rjmp	.+10     	; 0x1f4 <get_ldnumber+0x68>
     1ea:	8f ef       	ldi	r24, 0xFF	; 255
     1ec:	9f ef       	ldi	r25, 0xFF	; 255
     1ee:	02 c0       	rjmp	.+4      	; 0x1f4 <get_ldnumber+0x68>
     1f0:	9d 01       	movw	r18, r26
     1f2:	e5 cf       	rjmp	.-54     	; 0x1be <get_ldnumber+0x32>
     1f4:	df 91       	pop	r29
     1f6:	cf 91       	pop	r28
     1f8:	08 95       	ret

000001fa <sync_window>:
     1fa:	8f 92       	push	r8
     1fc:	9f 92       	push	r9
     1fe:	af 92       	push	r10
     200:	bf 92       	push	r11
     202:	cf 92       	push	r12
     204:	df 92       	push	r13
     206:	ef 92       	push	r14
     208:	ff 92       	push	r15
     20a:	0f 93       	push	r16
     20c:	1f 93       	push	r17
     20e:	cf 93       	push	r28
     210:	df 93       	push	r29
     212:	fc 01       	movw	r30, r24
     214:	24 81       	ldd	r18, Z+4	; 0x04
     216:	22 23       	and	r18, r18
     218:	09 f4       	brne	.+2      	; 0x21c <sync_window+0x22>
     21a:	46 c0       	rjmp	.+140    	; 0x2a8 <sync_window+0xae>
     21c:	ec 01       	movw	r28, r24
     21e:	c2 a4       	ldd	r12, Z+42	; 0x2a
     220:	d3 a4       	ldd	r13, Z+43	; 0x2b
     222:	e4 a4       	ldd	r14, Z+44	; 0x2c
     224:	f5 a4       	ldd	r15, Z+45	; 0x2d
     226:	5c 01       	movw	r10, r24
     228:	fe e2       	ldi	r31, 0x2E	; 46
     22a:	af 0e       	add	r10, r31
     22c:	b1 1c       	adc	r11, r1
     22e:	01 e0       	ldi	r16, 0x01	; 1
     230:	10 e0       	ldi	r17, 0x00	; 0
     232:	a7 01       	movw	r20, r14
     234:	96 01       	movw	r18, r12
     236:	b5 01       	movw	r22, r10
     238:	89 81       	ldd	r24, Y+1	; 0x01
     23a:	0e 94 c9 32 	call	0x6592	; 0x6592 <disk_write>
     23e:	81 11       	cpse	r24, r1
     240:	35 c0       	rjmp	.+106    	; 0x2ac <sync_window+0xb2>
     242:	1c 82       	std	Y+4, r1	; 0x04
     244:	8e 8d       	ldd	r24, Y+30	; 0x1e
     246:	9f 8d       	ldd	r25, Y+31	; 0x1f
     248:	a8 a1       	ldd	r26, Y+32	; 0x20
     24a:	b9 a1       	ldd	r27, Y+33	; 0x21
     24c:	b7 01       	movw	r22, r14
     24e:	a6 01       	movw	r20, r12
     250:	48 1b       	sub	r20, r24
     252:	59 0b       	sbc	r21, r25
     254:	6a 0b       	sbc	r22, r26
     256:	7b 0b       	sbc	r23, r27
     258:	8e 89       	ldd	r24, Y+22	; 0x16
     25a:	9f 89       	ldd	r25, Y+23	; 0x17
     25c:	a8 8d       	ldd	r26, Y+24	; 0x18
     25e:	b9 8d       	ldd	r27, Y+25	; 0x19
     260:	48 17       	cp	r20, r24
     262:	59 07       	cpc	r21, r25
     264:	6a 07       	cpc	r22, r26
     266:	7b 07       	cpc	r23, r27
     268:	18 f5       	brcc	.+70     	; 0x2b0 <sync_window+0xb6>
     26a:	8b 80       	ldd	r8, Y+3	; 0x03
     26c:	91 2c       	mov	r9, r1
     26e:	82 e0       	ldi	r24, 0x02	; 2
     270:	88 16       	cp	r8, r24
     272:	91 04       	cpc	r9, r1
     274:	f8 f0       	brcs	.+62     	; 0x2b4 <sync_window+0xba>
     276:	8e 89       	ldd	r24, Y+22	; 0x16
     278:	9f 89       	ldd	r25, Y+23	; 0x17
     27a:	a8 8d       	ldd	r26, Y+24	; 0x18
     27c:	b9 8d       	ldd	r27, Y+25	; 0x19
     27e:	c8 0e       	add	r12, r24
     280:	d9 1e       	adc	r13, r25
     282:	ea 1e       	adc	r14, r26
     284:	fb 1e       	adc	r15, r27
     286:	01 e0       	ldi	r16, 0x01	; 1
     288:	10 e0       	ldi	r17, 0x00	; 0
     28a:	a7 01       	movw	r20, r14
     28c:	96 01       	movw	r18, r12
     28e:	b5 01       	movw	r22, r10
     290:	89 81       	ldd	r24, Y+1	; 0x01
     292:	0e 94 c9 32 	call	0x6592	; 0x6592 <disk_write>
     296:	e1 e0       	ldi	r30, 0x01	; 1
     298:	8e 1a       	sub	r8, r30
     29a:	91 08       	sbc	r9, r1
     29c:	f1 e0       	ldi	r31, 0x01	; 1
     29e:	8f 16       	cp	r8, r31
     2a0:	91 04       	cpc	r9, r1
     2a2:	49 f7       	brne	.-46     	; 0x276 <sync_window+0x7c>
     2a4:	80 e0       	ldi	r24, 0x00	; 0
     2a6:	07 c0       	rjmp	.+14     	; 0x2b6 <sync_window+0xbc>
     2a8:	80 e0       	ldi	r24, 0x00	; 0
     2aa:	05 c0       	rjmp	.+10     	; 0x2b6 <sync_window+0xbc>
     2ac:	81 e0       	ldi	r24, 0x01	; 1
     2ae:	03 c0       	rjmp	.+6      	; 0x2b6 <sync_window+0xbc>
     2b0:	80 e0       	ldi	r24, 0x00	; 0
     2b2:	01 c0       	rjmp	.+2      	; 0x2b6 <sync_window+0xbc>
     2b4:	80 e0       	ldi	r24, 0x00	; 0
     2b6:	df 91       	pop	r29
     2b8:	cf 91       	pop	r28
     2ba:	1f 91       	pop	r17
     2bc:	0f 91       	pop	r16
     2be:	ff 90       	pop	r15
     2c0:	ef 90       	pop	r14
     2c2:	df 90       	pop	r13
     2c4:	cf 90       	pop	r12
     2c6:	bf 90       	pop	r11
     2c8:	af 90       	pop	r10
     2ca:	9f 90       	pop	r9
     2cc:	8f 90       	pop	r8
     2ce:	08 95       	ret

000002d0 <move_window>:
     2d0:	8f 92       	push	r8
     2d2:	9f 92       	push	r9
     2d4:	af 92       	push	r10
     2d6:	bf 92       	push	r11
     2d8:	ff 92       	push	r15
     2da:	0f 93       	push	r16
     2dc:	1f 93       	push	r17
     2de:	cf 93       	push	r28
     2e0:	df 93       	push	r29
     2e2:	ec 01       	movw	r28, r24
     2e4:	4a 01       	movw	r8, r20
     2e6:	5b 01       	movw	r10, r22
     2e8:	8a a5       	ldd	r24, Y+42	; 0x2a
     2ea:	9b a5       	ldd	r25, Y+43	; 0x2b
     2ec:	ac a5       	ldd	r26, Y+44	; 0x2c
     2ee:	bd a5       	ldd	r27, Y+45	; 0x2d
     2f0:	84 17       	cp	r24, r20
     2f2:	95 07       	cpc	r25, r21
     2f4:	a6 07       	cpc	r26, r22
     2f6:	b7 07       	cpc	r27, r23
     2f8:	e1 f0       	breq	.+56     	; 0x332 <move_window+0x62>
     2fa:	ce 01       	movw	r24, r28
     2fc:	7e df       	rcall	.-260    	; 0x1fa <sync_window>
     2fe:	f8 2e       	mov	r15, r24
     300:	81 11       	cpse	r24, r1
     302:	18 c0       	rjmp	.+48     	; 0x334 <move_window+0x64>
     304:	01 e0       	ldi	r16, 0x01	; 1
     306:	10 e0       	ldi	r17, 0x00	; 0
     308:	a5 01       	movw	r20, r10
     30a:	94 01       	movw	r18, r8
     30c:	be 01       	movw	r22, r28
     30e:	62 5d       	subi	r22, 0xD2	; 210
     310:	7f 4f       	sbci	r23, 0xFF	; 255
     312:	89 81       	ldd	r24, Y+1	; 0x01
     314:	0e 94 7d 32 	call	0x64fa	; 0x64fa <disk_read>
     318:	88 23       	and	r24, r24
     31a:	31 f0       	breq	.+12     	; 0x328 <move_window+0x58>
     31c:	ff 24       	eor	r15, r15
     31e:	f3 94       	inc	r15
     320:	88 24       	eor	r8, r8
     322:	8a 94       	dec	r8
     324:	98 2c       	mov	r9, r8
     326:	54 01       	movw	r10, r8
     328:	8a a6       	std	Y+42, r8	; 0x2a
     32a:	9b a6       	std	Y+43, r9	; 0x2b
     32c:	ac a6       	std	Y+44, r10	; 0x2c
     32e:	bd a6       	std	Y+45, r11	; 0x2d
     330:	01 c0       	rjmp	.+2      	; 0x334 <move_window+0x64>
     332:	f1 2c       	mov	r15, r1
     334:	8f 2d       	mov	r24, r15
     336:	df 91       	pop	r29
     338:	cf 91       	pop	r28
     33a:	1f 91       	pop	r17
     33c:	0f 91       	pop	r16
     33e:	ff 90       	pop	r15
     340:	bf 90       	pop	r11
     342:	af 90       	pop	r10
     344:	9f 90       	pop	r9
     346:	8f 90       	pop	r8
     348:	08 95       	ret

0000034a <check_fs>:
     34a:	cf 93       	push	r28
     34c:	df 93       	push	r29
     34e:	ec 01       	movw	r28, r24
     350:	1c 82       	std	Y+4, r1	; 0x04
     352:	8f ef       	ldi	r24, 0xFF	; 255
     354:	9f ef       	ldi	r25, 0xFF	; 255
     356:	dc 01       	movw	r26, r24
     358:	8a a7       	std	Y+42, r24	; 0x2a
     35a:	9b a7       	std	Y+43, r25	; 0x2b
     35c:	ac a7       	std	Y+44, r26	; 0x2c
     35e:	bd a7       	std	Y+45, r27	; 0x2d
     360:	ce 01       	movw	r24, r28
     362:	b6 df       	rcall	.-148    	; 0x2d0 <move_window>
     364:	81 11       	cpse	r24, r1
     366:	23 c0       	rjmp	.+70     	; 0x3ae <check_fs+0x64>
     368:	fe 01       	movw	r30, r28
     36a:	e4 5d       	subi	r30, 0xD4	; 212
     36c:	fd 4f       	sbci	r31, 0xFD	; 253
     36e:	80 81       	ld	r24, Z
     370:	91 81       	ldd	r25, Z+1	; 0x01
     372:	85 35       	cpi	r24, 0x55	; 85
     374:	9a 4a       	sbci	r25, 0xAA	; 170
     376:	e9 f4       	brne	.+58     	; 0x3b2 <check_fs+0x68>
     378:	e8 5c       	subi	r30, 0xC8	; 200
     37a:	f1 40       	sbci	r31, 0x01	; 1
     37c:	80 81       	ld	r24, Z
     37e:	91 81       	ldd	r25, Z+1	; 0x01
     380:	a2 81       	ldd	r26, Z+2	; 0x02
     382:	b3 81       	ldd	r27, Z+3	; 0x03
     384:	bb 27       	eor	r27, r27
     386:	86 34       	cpi	r24, 0x46	; 70
     388:	91 44       	sbci	r25, 0x41	; 65
     38a:	a4 45       	sbci	r26, 0x54	; 84
     38c:	b1 05       	cpc	r27, r1
     38e:	99 f0       	breq	.+38     	; 0x3b6 <check_fs+0x6c>
     390:	c0 58       	subi	r28, 0x80	; 128
     392:	df 4f       	sbci	r29, 0xFF	; 255
     394:	48 81       	ld	r20, Y
     396:	59 81       	ldd	r21, Y+1	; 0x01
     398:	6a 81       	ldd	r22, Y+2	; 0x02
     39a:	7b 81       	ldd	r23, Y+3	; 0x03
     39c:	77 27       	eor	r23, r23
     39e:	81 e0       	ldi	r24, 0x01	; 1
     3a0:	46 34       	cpi	r20, 0x46	; 70
     3a2:	51 44       	sbci	r21, 0x41	; 65
     3a4:	64 45       	sbci	r22, 0x54	; 84
     3a6:	71 05       	cpc	r23, r1
     3a8:	39 f4       	brne	.+14     	; 0x3b8 <check_fs+0x6e>
     3aa:	80 e0       	ldi	r24, 0x00	; 0
     3ac:	05 c0       	rjmp	.+10     	; 0x3b8 <check_fs+0x6e>
     3ae:	83 e0       	ldi	r24, 0x03	; 3
     3b0:	03 c0       	rjmp	.+6      	; 0x3b8 <check_fs+0x6e>
     3b2:	82 e0       	ldi	r24, 0x02	; 2
     3b4:	01 c0       	rjmp	.+2      	; 0x3b8 <check_fs+0x6e>
     3b6:	80 e0       	ldi	r24, 0x00	; 0
     3b8:	df 91       	pop	r29
     3ba:	cf 91       	pop	r28
     3bc:	08 95       	ret

000003be <validate>:
     3be:	00 97       	sbiw	r24, 0x00	; 0
     3c0:	c9 f0       	breq	.+50     	; 0x3f4 <validate+0x36>
     3c2:	dc 01       	movw	r26, r24
     3c4:	ed 91       	ld	r30, X+
     3c6:	fc 91       	ld	r31, X
     3c8:	11 97       	sbiw	r26, 0x01	; 1
     3ca:	30 97       	sbiw	r30, 0x00	; 0
     3cc:	a9 f0       	breq	.+42     	; 0x3f8 <validate+0x3a>
     3ce:	20 81       	ld	r18, Z
     3d0:	22 23       	and	r18, r18
     3d2:	a1 f0       	breq	.+40     	; 0x3fc <validate+0x3e>
     3d4:	26 81       	ldd	r18, Z+6	; 0x06
     3d6:	37 81       	ldd	r19, Z+7	; 0x07
     3d8:	12 96       	adiw	r26, 0x02	; 2
     3da:	8d 91       	ld	r24, X+
     3dc:	9c 91       	ld	r25, X
     3de:	13 97       	sbiw	r26, 0x03	; 3
     3e0:	28 17       	cp	r18, r24
     3e2:	39 07       	cpc	r19, r25
     3e4:	69 f4       	brne	.+26     	; 0x400 <validate+0x42>
     3e6:	81 81       	ldd	r24, Z+1	; 0x01
     3e8:	0e 94 b9 31 	call	0x6372	; 0x6372 <disk_status>
     3ec:	80 ff       	sbrs	r24, 0
     3ee:	0a c0       	rjmp	.+20     	; 0x404 <validate+0x46>
     3f0:	89 e0       	ldi	r24, 0x09	; 9
     3f2:	08 95       	ret
     3f4:	89 e0       	ldi	r24, 0x09	; 9
     3f6:	08 95       	ret
     3f8:	89 e0       	ldi	r24, 0x09	; 9
     3fa:	08 95       	ret
     3fc:	89 e0       	ldi	r24, 0x09	; 9
     3fe:	08 95       	ret
     400:	89 e0       	ldi	r24, 0x09	; 9
     402:	08 95       	ret
     404:	80 e0       	ldi	r24, 0x00	; 0
     406:	08 95       	ret

00000408 <find_volume>:
     408:	2f 92       	push	r2
     40a:	3f 92       	push	r3
     40c:	4f 92       	push	r4
     40e:	5f 92       	push	r5
     410:	6f 92       	push	r6
     412:	7f 92       	push	r7
     414:	8f 92       	push	r8
     416:	9f 92       	push	r9
     418:	af 92       	push	r10
     41a:	bf 92       	push	r11
     41c:	cf 92       	push	r12
     41e:	df 92       	push	r13
     420:	ef 92       	push	r14
     422:	ff 92       	push	r15
     424:	0f 93       	push	r16
     426:	1f 93       	push	r17
     428:	cf 93       	push	r28
     42a:	df 93       	push	r29
     42c:	cd b7       	in	r28, 0x3d	; 61
     42e:	de b7       	in	r29, 0x3e	; 62
     430:	6d 97       	sbiw	r28, 0x1d	; 29
     432:	0f b6       	in	r0, 0x3f	; 63
     434:	f8 94       	cli
     436:	de bf       	out	0x3e, r29	; 62
     438:	0f be       	out	0x3f, r0	; 63
     43a:	cd bf       	out	0x3d, r28	; 61
     43c:	6c 01       	movw	r12, r24
     43e:	cb 01       	movw	r24, r22
     440:	b4 2e       	mov	r11, r20
     442:	d6 01       	movw	r26, r12
     444:	1d 92       	st	X+, r1
     446:	1c 92       	st	X, r1
     448:	a1 de       	rcall	.-702    	; 0x18c <get_ldnumber>
     44a:	7c 01       	movw	r14, r24
     44c:	99 23       	and	r25, r25
     44e:	0c f4       	brge	.+2      	; 0x452 <find_volume+0x4a>
     450:	02 c2       	rjmp	.+1028   	; 0x856 <find_volume+0x44e>
     452:	fc 01       	movw	r30, r24
     454:	ee 0f       	add	r30, r30
     456:	ff 1f       	adc	r31, r31
     458:	e8 58       	subi	r30, 0x88	; 136
     45a:	fa 4f       	sbci	r31, 0xFA	; 250
     45c:	00 81       	ld	r16, Z
     45e:	11 81       	ldd	r17, Z+1	; 0x01
     460:	01 15       	cp	r16, r1
     462:	11 05       	cpc	r17, r1
     464:	09 f4       	brne	.+2      	; 0x468 <find_volume+0x60>
     466:	f9 c1       	rjmp	.+1010   	; 0x85a <find_volume+0x452>
     468:	f6 01       	movw	r30, r12
     46a:	11 83       	std	Z+1, r17	; 0x01
     46c:	00 83       	st	Z, r16
     46e:	d8 01       	movw	r26, r16
     470:	8c 91       	ld	r24, X
     472:	88 23       	and	r24, r24
     474:	69 f0       	breq	.+26     	; 0x490 <find_volume+0x88>
     476:	11 96       	adiw	r26, 0x01	; 1
     478:	8c 91       	ld	r24, X
     47a:	0e 94 b9 31 	call	0x6372	; 0x6372 <disk_status>
     47e:	80 fd       	sbrc	r24, 0
     480:	07 c0       	rjmp	.+14     	; 0x490 <find_volume+0x88>
     482:	bb 20       	and	r11, r11
     484:	09 f4       	brne	.+2      	; 0x488 <find_volume+0x80>
     486:	eb c1       	rjmp	.+982    	; 0x85e <find_volume+0x456>
     488:	82 ff       	sbrs	r24, 2
     48a:	eb c1       	rjmp	.+982    	; 0x862 <find_volume+0x45a>
     48c:	8a e0       	ldi	r24, 0x0A	; 10
     48e:	8b c2       	rjmp	.+1302   	; 0x9a6 <find_volume+0x59e>
     490:	f8 01       	movw	r30, r16
     492:	10 82       	st	Z, r1
     494:	e1 82       	std	Z+1, r14	; 0x01
     496:	8e 2d       	mov	r24, r14
     498:	0e 94 c0 31 	call	0x6380	; 0x6380 <disk_initialize>
     49c:	80 fd       	sbrc	r24, 0
     49e:	e3 c1       	rjmp	.+966    	; 0x866 <find_volume+0x45e>
     4a0:	bb 20       	and	r11, r11
     4a2:	09 f4       	brne	.+2      	; 0x4a6 <find_volume+0x9e>
     4a4:	00 c2       	rjmp	.+1024   	; 0x8a6 <find_volume+0x49e>
     4a6:	82 fd       	sbrc	r24, 2
     4a8:	e0 c1       	rjmp	.+960    	; 0x86a <find_volume+0x462>
     4aa:	fd c1       	rjmp	.+1018   	; 0x8a6 <find_volume+0x49e>
     4ac:	80 81       	ld	r24, Z
     4ae:	88 23       	and	r24, r24
     4b0:	29 f0       	breq	.+10     	; 0x4bc <find_volume+0xb4>
     4b2:	44 80       	ldd	r4, Z+4	; 0x04
     4b4:	55 80       	ldd	r5, Z+5	; 0x05
     4b6:	66 80       	ldd	r6, Z+6	; 0x06
     4b8:	77 80       	ldd	r7, Z+7	; 0x07
     4ba:	04 c0       	rjmp	.+8      	; 0x4c4 <find_volume+0xbc>
     4bc:	4e 2c       	mov	r4, r14
     4be:	5f 2c       	mov	r5, r15
     4c0:	67 2e       	mov	r6, r23
     4c2:	76 2e       	mov	r7, r22
     4c4:	d9 01       	movw	r26, r18
     4c6:	4d 92       	st	X+, r4
     4c8:	5d 92       	st	X+, r5
     4ca:	6d 92       	st	X+, r6
     4cc:	7d 92       	st	X+, r7
     4ce:	9d 01       	movw	r18, r26
     4d0:	70 96       	adiw	r30, 0x10	; 16
     4d2:	e4 17       	cp	r30, r20
     4d4:	f5 07       	cpc	r31, r21
     4d6:	51 f7       	brne	.-44     	; 0x4ac <find_volume+0xa4>
     4d8:	4e 01       	movw	r8, r28
     4da:	b1 e1       	ldi	r27, 0x11	; 17
     4dc:	8b 0e       	add	r8, r27
     4de:	91 1c       	adc	r9, r1
     4e0:	68 94       	set
     4e2:	77 24       	eor	r7, r7
     4e4:	71 f8       	bld	r7, 1
     4e6:	f5 01       	movw	r30, r10
     4e8:	c1 90       	ld	r12, Z+
     4ea:	d1 90       	ld	r13, Z+
     4ec:	e1 90       	ld	r14, Z+
     4ee:	f1 90       	ld	r15, Z+
     4f0:	5f 01       	movw	r10, r30
     4f2:	c1 14       	cp	r12, r1
     4f4:	d1 04       	cpc	r13, r1
     4f6:	e1 04       	cpc	r14, r1
     4f8:	f1 04       	cpc	r15, r1
     4fa:	39 f0       	breq	.+14     	; 0x50a <find_volume+0x102>
     4fc:	b7 01       	movw	r22, r14
     4fe:	a6 01       	movw	r20, r12
     500:	c8 01       	movw	r24, r16
     502:	23 df       	rcall	.-442    	; 0x34a <check_fs>
     504:	81 11       	cpse	r24, r1
     506:	02 c0       	rjmp	.+4      	; 0x50c <find_volume+0x104>
     508:	0d c0       	rjmp	.+26     	; 0x524 <find_volume+0x11c>
     50a:	87 2d       	mov	r24, r7
     50c:	a8 14       	cp	r10, r8
     50e:	b9 04       	cpc	r11, r9
     510:	51 f7       	brne	.-44     	; 0x4e6 <find_volume+0xde>
     512:	03 c0       	rjmp	.+6      	; 0x51a <find_volume+0x112>
     514:	c1 2c       	mov	r12, r1
     516:	d1 2c       	mov	r13, r1
     518:	76 01       	movw	r14, r12
     51a:	83 30       	cpi	r24, 0x03	; 3
     51c:	09 f4       	brne	.+2      	; 0x520 <find_volume+0x118>
     51e:	a7 c1       	rjmp	.+846    	; 0x86e <find_volume+0x466>
     520:	81 11       	cpse	r24, r1
     522:	a7 c1       	rjmp	.+846    	; 0x872 <find_volume+0x46a>
     524:	d8 01       	movw	r26, r16
     526:	d9 96       	adiw	r26, 0x39	; 57
     528:	8d 91       	ld	r24, X+
     52a:	9c 91       	ld	r25, X
     52c:	da 97       	sbiw	r26, 0x3a	; 58
     52e:	81 15       	cp	r24, r1
     530:	92 40       	sbci	r25, 0x02	; 2
     532:	09 f0       	breq	.+2      	; 0x536 <find_volume+0x12e>
     534:	a0 c1       	rjmp	.+832    	; 0x876 <find_volume+0x46e>
     536:	f8 01       	movw	r30, r16
     538:	ec 5b       	subi	r30, 0xBC	; 188
     53a:	ff 4f       	sbci	r31, 0xFF	; 255
     53c:	40 80       	ld	r4, Z
     53e:	51 80       	ldd	r5, Z+1	; 0x01
     540:	61 2c       	mov	r6, r1
     542:	71 2c       	mov	r7, r1
     544:	41 14       	cp	r4, r1
     546:	51 04       	cpc	r5, r1
     548:	61 04       	cpc	r6, r1
     54a:	71 04       	cpc	r7, r1
     54c:	29 f4       	brne	.+10     	; 0x558 <find_volume+0x150>
     54e:	3e 96       	adiw	r30, 0x0e	; 14
     550:	40 80       	ld	r4, Z
     552:	51 80       	ldd	r5, Z+1	; 0x01
     554:	62 80       	ldd	r6, Z+2	; 0x02
     556:	73 80       	ldd	r7, Z+3	; 0x03
     558:	f8 01       	movw	r30, r16
     55a:	46 8a       	std	Z+22, r4	; 0x16
     55c:	57 8a       	std	Z+23, r5	; 0x17
     55e:	60 8e       	std	Z+24, r6	; 0x18
     560:	71 8e       	std	Z+25, r7	; 0x19
     562:	a6 ad       	ldd	r26, Z+62	; 0x3e
     564:	a3 83       	std	Z+3, r26	; 0x03
     566:	8f ef       	ldi	r24, 0xFF	; 255
     568:	8a 0f       	add	r24, r26
     56a:	82 30       	cpi	r24, 0x02	; 2
     56c:	08 f0       	brcs	.+2      	; 0x570 <find_volume+0x168>
     56e:	85 c1       	rjmp	.+778    	; 0x87a <find_volume+0x472>
     570:	f3 ad       	ldd	r31, Z+59	; 0x3b
     572:	f9 8b       	std	Y+17, r31	; 0x11
     574:	2f 2f       	mov	r18, r31
     576:	f8 01       	movw	r30, r16
     578:	22 83       	std	Z+2, r18	; 0x02
     57a:	22 23       	and	r18, r18
     57c:	09 f4       	brne	.+2      	; 0x580 <find_volume+0x178>
     57e:	7f c1       	rjmp	.+766    	; 0x87e <find_volume+0x476>
     580:	82 2f       	mov	r24, r18
     582:	90 e0       	ldi	r25, 0x00	; 0
     584:	9c 01       	movw	r18, r24
     586:	21 50       	subi	r18, 0x01	; 1
     588:	31 09       	sbc	r19, r1
     58a:	82 23       	and	r24, r18
     58c:	93 23       	and	r25, r19
     58e:	89 2b       	or	r24, r25
     590:	09 f0       	breq	.+2      	; 0x594 <find_volume+0x18c>
     592:	77 c1       	rjmp	.+750    	; 0x882 <find_volume+0x47a>
     594:	ff 96       	adiw	r30, 0x3f	; 63
     596:	20 80       	ld	r2, Z
     598:	31 80       	ldd	r3, Z+1	; 0x01
     59a:	f8 01       	movw	r30, r16
     59c:	31 86       	std	Z+9, r3	; 0x09
     59e:	20 86       	std	Z+8, r2	; 0x08
     5a0:	c1 01       	movw	r24, r2
     5a2:	8f 70       	andi	r24, 0x0F	; 15
     5a4:	99 27       	eor	r25, r25
     5a6:	89 2b       	or	r24, r25
     5a8:	09 f0       	breq	.+2      	; 0x5ac <find_volume+0x1a4>
     5aa:	6d c1       	rjmp	.+730    	; 0x886 <find_volume+0x47e>
     5ac:	ef 5b       	subi	r30, 0xBF	; 191
     5ae:	ff 4f       	sbci	r31, 0xFF	; 255
     5b0:	80 80       	ld	r8, Z
     5b2:	91 80       	ldd	r9, Z+1	; 0x01
     5b4:	a1 2c       	mov	r10, r1
     5b6:	b1 2c       	mov	r11, r1
     5b8:	81 14       	cp	r8, r1
     5ba:	91 04       	cpc	r9, r1
     5bc:	a1 04       	cpc	r10, r1
     5be:	b1 04       	cpc	r11, r1
     5c0:	29 f4       	brne	.+10     	; 0x5cc <find_volume+0x1c4>
     5c2:	3d 96       	adiw	r30, 0x0d	; 13
     5c4:	80 80       	ld	r8, Z
     5c6:	91 80       	ldd	r9, Z+1	; 0x01
     5c8:	a2 80       	ldd	r10, Z+2	; 0x02
     5ca:	b3 80       	ldd	r11, Z+3	; 0x03
     5cc:	f8 01       	movw	r30, r16
     5ce:	04 ac       	ldd	r0, Z+60	; 0x3c
     5d0:	f5 ad       	ldd	r31, Z+61	; 0x3d
     5d2:	e0 2d       	mov	r30, r0
     5d4:	30 97       	sbiw	r30, 0x00	; 0
     5d6:	09 f4       	brne	.+2      	; 0x5da <find_volume+0x1d2>
     5d8:	58 c1       	rjmp	.+688    	; 0x88a <find_volume+0x482>
     5da:	b0 e0       	ldi	r27, 0x00	; 0
     5dc:	a3 01       	movw	r20, r6
     5de:	92 01       	movw	r18, r4
     5e0:	0e 94 4b 36 	call	0x6c96	; 0x6c96 <__muluhisi3>
     5e4:	6a 8f       	std	Y+26, r22	; 0x1a
     5e6:	7b 8f       	std	Y+27, r23	; 0x1b
     5e8:	8c 8f       	std	Y+28, r24	; 0x1c
     5ea:	9d 8f       	std	Y+29, r25	; 0x1d
     5ec:	9f 01       	movw	r18, r30
     5ee:	40 e0       	ldi	r20, 0x00	; 0
     5f0:	50 e0       	ldi	r21, 0x00	; 0
     5f2:	2e 8b       	std	Y+22, r18	; 0x16
     5f4:	3f 8b       	std	Y+23, r19	; 0x17
     5f6:	48 8f       	std	Y+24, r20	; 0x18
     5f8:	59 8f       	std	Y+25, r21	; 0x19
     5fa:	c1 01       	movw	r24, r2
     5fc:	92 95       	swap	r25
     5fe:	82 95       	swap	r24
     600:	8f 70       	andi	r24, 0x0F	; 15
     602:	89 27       	eor	r24, r25
     604:	9f 70       	andi	r25, 0x0F	; 15
     606:	89 27       	eor	r24, r25
     608:	28 0f       	add	r18, r24
     60a:	39 1f       	adc	r19, r25
     60c:	41 1d       	adc	r20, r1
     60e:	51 1d       	adc	r21, r1
     610:	da 01       	movw	r26, r20
     612:	c9 01       	movw	r24, r18
     614:	2a 8d       	ldd	r18, Y+26	; 0x1a
     616:	3b 8d       	ldd	r19, Y+27	; 0x1b
     618:	4c 8d       	ldd	r20, Y+28	; 0x1c
     61a:	5d 8d       	ldd	r21, Y+29	; 0x1d
     61c:	28 0f       	add	r18, r24
     61e:	39 1f       	adc	r19, r25
     620:	4a 1f       	adc	r20, r26
     622:	5b 1f       	adc	r21, r27
     624:	2a 8b       	std	Y+18, r18	; 0x12
     626:	3b 8b       	std	Y+19, r19	; 0x13
     628:	4c 8b       	std	Y+20, r20	; 0x14
     62a:	5d 8b       	std	Y+21, r21	; 0x15
     62c:	82 16       	cp	r8, r18
     62e:	93 06       	cpc	r9, r19
     630:	a4 06       	cpc	r10, r20
     632:	b5 06       	cpc	r11, r21
     634:	08 f4       	brcc	.+2      	; 0x638 <find_volume+0x230>
     636:	2b c1       	rjmp	.+598    	; 0x88e <find_volume+0x486>
     638:	c5 01       	movw	r24, r10
     63a:	b4 01       	movw	r22, r8
     63c:	62 1b       	sub	r22, r18
     63e:	73 0b       	sbc	r23, r19
     640:	84 0b       	sbc	r24, r20
     642:	95 0b       	sbc	r25, r21
     644:	e9 89       	ldd	r30, Y+17	; 0x11
     646:	2e 2f       	mov	r18, r30
     648:	30 e0       	ldi	r19, 0x00	; 0
     64a:	40 e0       	ldi	r20, 0x00	; 0
     64c:	50 e0       	ldi	r21, 0x00	; 0
     64e:	0e 94 0d 36 	call	0x6c1a	; 0x6c1a <__udivmodsi4>
     652:	da 01       	movw	r26, r20
     654:	c9 01       	movw	r24, r18
     656:	21 15       	cp	r18, r1
     658:	31 05       	cpc	r19, r1
     65a:	41 05       	cpc	r20, r1
     65c:	51 05       	cpc	r21, r1
     65e:	09 f4       	brne	.+2      	; 0x662 <find_volume+0x25a>
     660:	18 c1       	rjmp	.+560    	; 0x892 <find_volume+0x48a>
     662:	26 3f       	cpi	r18, 0xF6	; 246
     664:	ff e0       	ldi	r31, 0x0F	; 15
     666:	3f 07       	cpc	r19, r31
     668:	41 05       	cpc	r20, r1
     66a:	51 05       	cpc	r21, r1
     66c:	18 f0       	brcs	.+6      	; 0x674 <find_volume+0x26c>
     66e:	e2 e0       	ldi	r30, 0x02	; 2
     670:	e9 8b       	std	Y+17, r30	; 0x11
     672:	02 c0       	rjmp	.+4      	; 0x678 <find_volume+0x270>
     674:	f1 e0       	ldi	r31, 0x01	; 1
     676:	f9 8b       	std	Y+17, r31	; 0x11
     678:	86 3f       	cpi	r24, 0xF6	; 246
     67a:	9f 4f       	sbci	r25, 0xFF	; 255
     67c:	a1 05       	cpc	r26, r1
     67e:	b1 05       	cpc	r27, r1
     680:	08 f0       	brcs	.+2      	; 0x684 <find_volume+0x27c>
     682:	28 c1       	rjmp	.+592    	; 0x8d4 <find_volume+0x4cc>
     684:	49 01       	movw	r8, r18
     686:	5a 01       	movw	r10, r20
     688:	82 e0       	ldi	r24, 0x02	; 2
     68a:	88 0e       	add	r8, r24
     68c:	91 1c       	adc	r9, r1
     68e:	a1 1c       	adc	r10, r1
     690:	b1 1c       	adc	r11, r1
     692:	d8 01       	movw	r26, r16
     694:	52 96       	adiw	r26, 0x12	; 18
     696:	8d 92       	st	X+, r8
     698:	9d 92       	st	X+, r9
     69a:	ad 92       	st	X+, r10
     69c:	bc 92       	st	X, r11
     69e:	55 97       	sbiw	r26, 0x15	; 21
     6a0:	f8 01       	movw	r30, r16
     6a2:	c2 8e       	std	Z+26, r12	; 0x1a
     6a4:	d3 8e       	std	Z+27, r13	; 0x1b
     6a6:	e4 8e       	std	Z+28, r14	; 0x1c
     6a8:	f5 8e       	std	Z+29, r15	; 0x1d
     6aa:	8e 89       	ldd	r24, Y+22	; 0x16
     6ac:	9f 89       	ldd	r25, Y+23	; 0x17
     6ae:	a8 8d       	ldd	r26, Y+24	; 0x18
     6b0:	b9 8d       	ldd	r27, Y+25	; 0x19
     6b2:	8c 0d       	add	r24, r12
     6b4:	9d 1d       	adc	r25, r13
     6b6:	ae 1d       	adc	r26, r14
     6b8:	bf 1d       	adc	r27, r15
     6ba:	86 8f       	std	Z+30, r24	; 0x1e
     6bc:	97 8f       	std	Z+31, r25	; 0x1f
     6be:	a0 a3       	std	Z+32, r26	; 0x20
     6c0:	b1 a3       	std	Z+33, r27	; 0x21
     6c2:	4a 89       	ldd	r20, Y+18	; 0x12
     6c4:	5b 89       	ldd	r21, Y+19	; 0x13
     6c6:	6c 89       	ldd	r22, Y+20	; 0x14
     6c8:	7d 89       	ldd	r23, Y+21	; 0x15
     6ca:	4c 0d       	add	r20, r12
     6cc:	5d 1d       	adc	r21, r13
     6ce:	6e 1d       	adc	r22, r14
     6d0:	7f 1d       	adc	r23, r15
     6d2:	46 a3       	std	Z+38, r20	; 0x26
     6d4:	57 a3       	std	Z+39, r21	; 0x27
     6d6:	60 a7       	std	Z+40, r22	; 0x28
     6d8:	71 a7       	std	Z+41, r23	; 0x29
     6da:	f9 89       	ldd	r31, Y+17	; 0x11
     6dc:	f3 30       	cpi	r31, 0x03	; 3
     6de:	69 f5       	brne	.+90     	; 0x73a <find_volume+0x332>
     6e0:	23 28       	or	r2, r3
     6e2:	09 f0       	breq	.+2      	; 0x6e6 <find_volume+0x2de>
     6e4:	d8 c0       	rjmp	.+432    	; 0x896 <find_volume+0x48e>
     6e6:	f8 01       	movw	r30, r16
     6e8:	e6 5a       	subi	r30, 0xA6	; 166
     6ea:	ff 4f       	sbci	r31, 0xFF	; 255
     6ec:	80 81       	ld	r24, Z
     6ee:	91 81       	ldd	r25, Z+1	; 0x01
     6f0:	a2 81       	ldd	r26, Z+2	; 0x02
     6f2:	b3 81       	ldd	r27, Z+3	; 0x03
     6f4:	f8 01       	movw	r30, r16
     6f6:	82 a3       	std	Z+34, r24	; 0x22
     6f8:	93 a3       	std	Z+35, r25	; 0x23
     6fa:	a4 a3       	std	Z+36, r26	; 0x24
     6fc:	b5 a3       	std	Z+37, r27	; 0x25
     6fe:	88 0c       	add	r8, r8
     700:	99 1c       	adc	r9, r9
     702:	aa 1c       	adc	r10, r10
     704:	bb 1c       	adc	r11, r11
     706:	88 0c       	add	r8, r8
     708:	99 1c       	adc	r9, r9
     70a:	aa 1c       	adc	r10, r10
     70c:	bb 1c       	adc	r11, r11
     70e:	ff ef       	ldi	r31, 0xFF	; 255
     710:	8f 0e       	add	r8, r31
     712:	f1 e0       	ldi	r31, 0x01	; 1
     714:	9f 1e       	adc	r9, r31
     716:	a1 1c       	adc	r10, r1
     718:	b1 1c       	adc	r11, r1
     71a:	07 2e       	mov	r0, r23
     71c:	79 e0       	ldi	r23, 0x09	; 9
     71e:	b6 94       	lsr	r11
     720:	a7 94       	ror	r10
     722:	97 94       	ror	r9
     724:	87 94       	ror	r8
     726:	7a 95       	dec	r23
     728:	d1 f7       	brne	.-12     	; 0x71e <find_volume+0x316>
     72a:	70 2d       	mov	r23, r0
     72c:	48 14       	cp	r4, r8
     72e:	59 04       	cpc	r5, r9
     730:	6a 04       	cpc	r6, r10
     732:	7b 04       	cpc	r7, r11
     734:	08 f4       	brcc	.+2      	; 0x738 <find_volume+0x330>
     736:	b1 c0       	rjmp	.+354    	; 0x89a <find_volume+0x492>
     738:	f9 c0       	rjmp	.+498    	; 0x92c <find_volume+0x524>
     73a:	23 28       	or	r2, r3
     73c:	09 f4       	brne	.+2      	; 0x740 <find_volume+0x338>
     73e:	af c0       	rjmp	.+350    	; 0x89e <find_volume+0x496>
     740:	2a 8d       	ldd	r18, Y+26	; 0x1a
     742:	3b 8d       	ldd	r19, Y+27	; 0x1b
     744:	4c 8d       	ldd	r20, Y+28	; 0x1c
     746:	5d 8d       	ldd	r21, Y+29	; 0x1d
     748:	82 0f       	add	r24, r18
     74a:	93 1f       	adc	r25, r19
     74c:	a4 1f       	adc	r26, r20
     74e:	b5 1f       	adc	r27, r21
     750:	f8 01       	movw	r30, r16
     752:	82 a3       	std	Z+34, r24	; 0x22
     754:	93 a3       	std	Z+35, r25	; 0x23
     756:	a4 a3       	std	Z+36, r26	; 0x24
     758:	b5 a3       	std	Z+37, r27	; 0x25
     75a:	f9 89       	ldd	r31, Y+17	; 0x11
     75c:	f2 30       	cpi	r31, 0x02	; 2
     75e:	29 f4       	brne	.+10     	; 0x76a <find_volume+0x362>
     760:	88 0c       	add	r8, r8
     762:	99 1c       	adc	r9, r9
     764:	aa 1c       	adc	r10, r10
     766:	bb 1c       	adc	r11, r11
     768:	08 c1       	rjmp	.+528    	; 0x97a <find_volume+0x572>
     76a:	a3 e0       	ldi	r26, 0x03	; 3
     76c:	b0 e0       	ldi	r27, 0x00	; 0
     76e:	a5 01       	movw	r20, r10
     770:	94 01       	movw	r18, r8
     772:	0e 94 4b 36 	call	0x6c96	; 0x6c96 <__muluhisi3>
     776:	dc 01       	movw	r26, r24
     778:	cb 01       	movw	r24, r22
     77a:	b6 95       	lsr	r27
     77c:	a7 95       	ror	r26
     77e:	97 95       	ror	r25
     780:	87 95       	ror	r24
     782:	21 e0       	ldi	r18, 0x01	; 1
     784:	82 22       	and	r8, r18
     786:	99 24       	eor	r9, r9
     788:	aa 24       	eor	r10, r10
     78a:	bb 24       	eor	r11, r11
     78c:	88 0e       	add	r8, r24
     78e:	99 1e       	adc	r9, r25
     790:	aa 1e       	adc	r10, r26
     792:	bb 1e       	adc	r11, r27
     794:	f2 c0       	rjmp	.+484    	; 0x97a <find_volume+0x572>
     796:	b7 01       	movw	r22, r14
     798:	a6 01       	movw	r20, r12
     79a:	4f 5f       	subi	r20, 0xFF	; 255
     79c:	5f 4f       	sbci	r21, 0xFF	; 255
     79e:	6f 4f       	sbci	r22, 0xFF	; 255
     7a0:	7f 4f       	sbci	r23, 0xFF	; 255
     7a2:	c8 01       	movw	r24, r16
     7a4:	95 dd       	rcall	.-1238   	; 0x2d0 <move_window>
     7a6:	81 11       	cpse	r24, r1
     7a8:	39 c0       	rjmp	.+114    	; 0x81c <find_volume+0x414>
     7aa:	d8 01       	movw	r26, r16
     7ac:	15 96       	adiw	r26, 0x05	; 5
     7ae:	1c 92       	st	X, r1
     7b0:	f8 01       	movw	r30, r16
     7b2:	e4 5d       	subi	r30, 0xD4	; 212
     7b4:	fd 4f       	sbci	r31, 0xFD	; 253
     7b6:	80 81       	ld	r24, Z
     7b8:	91 81       	ldd	r25, Z+1	; 0x01
     7ba:	85 35       	cpi	r24, 0x55	; 85
     7bc:	9a 4a       	sbci	r25, 0xAA	; 170
     7be:	89 f5       	brne	.+98     	; 0x822 <find_volume+0x41a>
     7c0:	f8 01       	movw	r30, r16
     7c2:	86 a5       	ldd	r24, Z+46	; 0x2e
     7c4:	97 a5       	ldd	r25, Z+47	; 0x2f
     7c6:	a0 a9       	ldd	r26, Z+48	; 0x30
     7c8:	b1 a9       	ldd	r27, Z+49	; 0x31
     7ca:	82 35       	cpi	r24, 0x52	; 82
     7cc:	92 45       	sbci	r25, 0x52	; 82
     7ce:	a1 46       	sbci	r26, 0x61	; 97
     7d0:	b1 44       	sbci	r27, 0x41	; 65
     7d2:	51 f5       	brne	.+84     	; 0x828 <find_volume+0x420>
     7d4:	f8 01       	movw	r30, r16
     7d6:	ee 5e       	subi	r30, 0xEE	; 238
     7d8:	fd 4f       	sbci	r31, 0xFD	; 253
     7da:	80 81       	ld	r24, Z
     7dc:	91 81       	ldd	r25, Z+1	; 0x01
     7de:	a2 81       	ldd	r26, Z+2	; 0x02
     7e0:	b3 81       	ldd	r27, Z+3	; 0x03
     7e2:	82 37       	cpi	r24, 0x72	; 114
     7e4:	92 47       	sbci	r25, 0x72	; 114
     7e6:	a1 44       	sbci	r26, 0x41	; 65
     7e8:	b1 46       	sbci	r27, 0x61	; 97
     7ea:	09 f5       	brne	.+66     	; 0x82e <find_volume+0x426>
     7ec:	34 96       	adiw	r30, 0x04	; 4
     7ee:	80 81       	ld	r24, Z
     7f0:	91 81       	ldd	r25, Z+1	; 0x01
     7f2:	a2 81       	ldd	r26, Z+2	; 0x02
     7f4:	b3 81       	ldd	r27, Z+3	; 0x03
     7f6:	f8 01       	movw	r30, r16
     7f8:	86 87       	std	Z+14, r24	; 0x0e
     7fa:	97 87       	std	Z+15, r25	; 0x0f
     7fc:	a0 8b       	std	Z+16, r26	; 0x10
     7fe:	b1 8b       	std	Z+17, r27	; 0x11
     800:	e6 5e       	subi	r30, 0xE6	; 230
     802:	fd 4f       	sbci	r31, 0xFD	; 253
     804:	80 81       	ld	r24, Z
     806:	91 81       	ldd	r25, Z+1	; 0x01
     808:	a2 81       	ldd	r26, Z+2	; 0x02
     80a:	b3 81       	ldd	r27, Z+3	; 0x03
     80c:	f8 01       	movw	r30, r16
     80e:	82 87       	std	Z+10, r24	; 0x0a
     810:	93 87       	std	Z+11, r25	; 0x0b
     812:	a4 87       	std	Z+12, r26	; 0x0c
     814:	b5 87       	std	Z+13, r27	; 0x0d
     816:	f3 e0       	ldi	r31, 0x03	; 3
     818:	f9 8b       	std	Y+17, r31	; 0x11
     81a:	0b c0       	rjmp	.+22     	; 0x832 <find_volume+0x42a>
     81c:	e3 e0       	ldi	r30, 0x03	; 3
     81e:	e9 8b       	std	Y+17, r30	; 0x11
     820:	08 c0       	rjmp	.+16     	; 0x832 <find_volume+0x42a>
     822:	f3 e0       	ldi	r31, 0x03	; 3
     824:	f9 8b       	std	Y+17, r31	; 0x11
     826:	05 c0       	rjmp	.+10     	; 0x832 <find_volume+0x42a>
     828:	e3 e0       	ldi	r30, 0x03	; 3
     82a:	e9 8b       	std	Y+17, r30	; 0x11
     82c:	02 c0       	rjmp	.+4      	; 0x832 <find_volume+0x42a>
     82e:	f3 e0       	ldi	r31, 0x03	; 3
     830:	f9 8b       	std	Y+17, r31	; 0x11
     832:	e9 89       	ldd	r30, Y+17	; 0x11
     834:	d8 01       	movw	r26, r16
     836:	ec 93       	st	X, r30
     838:	80 91 76 05 	lds	r24, 0x0576
     83c:	90 91 77 05 	lds	r25, 0x0577
     840:	01 96       	adiw	r24, 0x01	; 1
     842:	90 93 77 05 	sts	0x0577, r25
     846:	80 93 76 05 	sts	0x0576, r24
     84a:	17 96       	adiw	r26, 0x07	; 7
     84c:	9c 93       	st	X, r25
     84e:	8e 93       	st	-X, r24
     850:	16 97       	sbiw	r26, 0x06	; 6
     852:	80 e0       	ldi	r24, 0x00	; 0
     854:	a8 c0       	rjmp	.+336    	; 0x9a6 <find_volume+0x59e>
     856:	8b e0       	ldi	r24, 0x0B	; 11
     858:	a6 c0       	rjmp	.+332    	; 0x9a6 <find_volume+0x59e>
     85a:	8c e0       	ldi	r24, 0x0C	; 12
     85c:	a4 c0       	rjmp	.+328    	; 0x9a6 <find_volume+0x59e>
     85e:	80 e0       	ldi	r24, 0x00	; 0
     860:	a2 c0       	rjmp	.+324    	; 0x9a6 <find_volume+0x59e>
     862:	80 e0       	ldi	r24, 0x00	; 0
     864:	a0 c0       	rjmp	.+320    	; 0x9a6 <find_volume+0x59e>
     866:	83 e0       	ldi	r24, 0x03	; 3
     868:	9e c0       	rjmp	.+316    	; 0x9a6 <find_volume+0x59e>
     86a:	8a e0       	ldi	r24, 0x0A	; 10
     86c:	9c c0       	rjmp	.+312    	; 0x9a6 <find_volume+0x59e>
     86e:	81 e0       	ldi	r24, 0x01	; 1
     870:	9a c0       	rjmp	.+308    	; 0x9a6 <find_volume+0x59e>
     872:	8d e0       	ldi	r24, 0x0D	; 13
     874:	98 c0       	rjmp	.+304    	; 0x9a6 <find_volume+0x59e>
     876:	8d e0       	ldi	r24, 0x0D	; 13
     878:	96 c0       	rjmp	.+300    	; 0x9a6 <find_volume+0x59e>
     87a:	8d e0       	ldi	r24, 0x0D	; 13
     87c:	94 c0       	rjmp	.+296    	; 0x9a6 <find_volume+0x59e>
     87e:	8d e0       	ldi	r24, 0x0D	; 13
     880:	92 c0       	rjmp	.+292    	; 0x9a6 <find_volume+0x59e>
     882:	8d e0       	ldi	r24, 0x0D	; 13
     884:	90 c0       	rjmp	.+288    	; 0x9a6 <find_volume+0x59e>
     886:	8d e0       	ldi	r24, 0x0D	; 13
     888:	8e c0       	rjmp	.+284    	; 0x9a6 <find_volume+0x59e>
     88a:	8d e0       	ldi	r24, 0x0D	; 13
     88c:	8c c0       	rjmp	.+280    	; 0x9a6 <find_volume+0x59e>
     88e:	8d e0       	ldi	r24, 0x0D	; 13
     890:	8a c0       	rjmp	.+276    	; 0x9a6 <find_volume+0x59e>
     892:	8d e0       	ldi	r24, 0x0D	; 13
     894:	88 c0       	rjmp	.+272    	; 0x9a6 <find_volume+0x59e>
     896:	8d e0       	ldi	r24, 0x0D	; 13
     898:	86 c0       	rjmp	.+268    	; 0x9a6 <find_volume+0x59e>
     89a:	8d e0       	ldi	r24, 0x0D	; 13
     89c:	84 c0       	rjmp	.+264    	; 0x9a6 <find_volume+0x59e>
     89e:	8d e0       	ldi	r24, 0x0D	; 13
     8a0:	82 c0       	rjmp	.+260    	; 0x9a6 <find_volume+0x59e>
     8a2:	8d e0       	ldi	r24, 0x0D	; 13
     8a4:	80 c0       	rjmp	.+256    	; 0x9a6 <find_volume+0x59e>
     8a6:	40 e0       	ldi	r20, 0x00	; 0
     8a8:	50 e0       	ldi	r21, 0x00	; 0
     8aa:	ba 01       	movw	r22, r20
     8ac:	c8 01       	movw	r24, r16
     8ae:	4d dd       	rcall	.-1382   	; 0x34a <check_fs>
     8b0:	81 30       	cpi	r24, 0x01	; 1
     8b2:	09 f0       	breq	.+2      	; 0x8b6 <find_volume+0x4ae>
     8b4:	2f ce       	rjmp	.-930    	; 0x514 <find_volume+0x10c>
     8b6:	f8 01       	movw	r30, r16
     8b8:	e0 51       	subi	r30, 0x10	; 16
     8ba:	fe 4f       	sbci	r31, 0xFE	; 254
     8bc:	9e 01       	movw	r18, r28
     8be:	2f 5f       	subi	r18, 0xFF	; 255
     8c0:	3f 4f       	sbci	r19, 0xFF	; 255
     8c2:	59 01       	movw	r10, r18
     8c4:	a8 01       	movw	r20, r16
     8c6:	40 5d       	subi	r20, 0xD0	; 208
     8c8:	5d 4f       	sbci	r21, 0xFD	; 253
     8ca:	e1 2c       	mov	r14, r1
     8cc:	f1 2c       	mov	r15, r1
     8ce:	70 e0       	ldi	r23, 0x00	; 0
     8d0:	60 e0       	ldi	r22, 0x00	; 0
     8d2:	ec cd       	rjmp	.-1064   	; 0x4ac <find_volume+0xa4>
     8d4:	49 01       	movw	r8, r18
     8d6:	5a 01       	movw	r10, r20
     8d8:	62 e0       	ldi	r22, 0x02	; 2
     8da:	86 0e       	add	r8, r22
     8dc:	91 1c       	adc	r9, r1
     8de:	a1 1c       	adc	r10, r1
     8e0:	b1 1c       	adc	r11, r1
     8e2:	d8 01       	movw	r26, r16
     8e4:	52 96       	adiw	r26, 0x12	; 18
     8e6:	8d 92       	st	X+, r8
     8e8:	9d 92       	st	X+, r9
     8ea:	ad 92       	st	X+, r10
     8ec:	bc 92       	st	X, r11
     8ee:	55 97       	sbiw	r26, 0x15	; 21
     8f0:	f8 01       	movw	r30, r16
     8f2:	c2 8e       	std	Z+26, r12	; 0x1a
     8f4:	d3 8e       	std	Z+27, r13	; 0x1b
     8f6:	e4 8e       	std	Z+28, r14	; 0x1c
     8f8:	f5 8e       	std	Z+29, r15	; 0x1d
     8fa:	8e 89       	ldd	r24, Y+22	; 0x16
     8fc:	9f 89       	ldd	r25, Y+23	; 0x17
     8fe:	a8 8d       	ldd	r26, Y+24	; 0x18
     900:	b9 8d       	ldd	r27, Y+25	; 0x19
     902:	8c 0d       	add	r24, r12
     904:	9d 1d       	adc	r25, r13
     906:	ae 1d       	adc	r26, r14
     908:	bf 1d       	adc	r27, r15
     90a:	86 8f       	std	Z+30, r24	; 0x1e
     90c:	97 8f       	std	Z+31, r25	; 0x1f
     90e:	a0 a3       	std	Z+32, r26	; 0x20
     910:	b1 a3       	std	Z+33, r27	; 0x21
     912:	8a 89       	ldd	r24, Y+18	; 0x12
     914:	9b 89       	ldd	r25, Y+19	; 0x13
     916:	ac 89       	ldd	r26, Y+20	; 0x14
     918:	bd 89       	ldd	r27, Y+21	; 0x15
     91a:	8c 0d       	add	r24, r12
     91c:	9d 1d       	adc	r25, r13
     91e:	ae 1d       	adc	r26, r14
     920:	bf 1d       	adc	r27, r15
     922:	86 a3       	std	Z+38, r24	; 0x26
     924:	97 a3       	std	Z+39, r25	; 0x27
     926:	a0 a7       	std	Z+40, r26	; 0x28
     928:	b1 a7       	std	Z+41, r27	; 0x29
     92a:	da ce       	rjmp	.-588    	; 0x6e0 <find_volume+0x2d8>
     92c:	8f ef       	ldi	r24, 0xFF	; 255
     92e:	9f ef       	ldi	r25, 0xFF	; 255
     930:	dc 01       	movw	r26, r24
     932:	f8 01       	movw	r30, r16
     934:	86 87       	std	Z+14, r24	; 0x0e
     936:	97 87       	std	Z+15, r25	; 0x0f
     938:	a0 8b       	std	Z+16, r26	; 0x10
     93a:	b1 8b       	std	Z+17, r27	; 0x11
     93c:	82 87       	std	Z+10, r24	; 0x0a
     93e:	93 87       	std	Z+11, r25	; 0x0b
     940:	a4 87       	std	Z+12, r26	; 0x0c
     942:	b5 87       	std	Z+13, r27	; 0x0d
     944:	80 e8       	ldi	r24, 0x80	; 128
     946:	85 83       	std	Z+5, r24	; 0x05
     948:	e2 5a       	subi	r30, 0xA2	; 162
     94a:	ff 4f       	sbci	r31, 0xFF	; 255
     94c:	80 81       	ld	r24, Z
     94e:	91 81       	ldd	r25, Z+1	; 0x01
     950:	01 97       	sbiw	r24, 0x01	; 1
     952:	09 f4       	brne	.+2      	; 0x956 <find_volume+0x54e>
     954:	20 cf       	rjmp	.-448    	; 0x796 <find_volume+0x38e>
     956:	f3 e0       	ldi	r31, 0x03	; 3
     958:	f9 8b       	std	Y+17, r31	; 0x11
     95a:	6b cf       	rjmp	.-298    	; 0x832 <find_volume+0x42a>
     95c:	8f ef       	ldi	r24, 0xFF	; 255
     95e:	9f ef       	ldi	r25, 0xFF	; 255
     960:	dc 01       	movw	r26, r24
     962:	f8 01       	movw	r30, r16
     964:	86 87       	std	Z+14, r24	; 0x0e
     966:	97 87       	std	Z+15, r25	; 0x0f
     968:	a0 8b       	std	Z+16, r26	; 0x10
     96a:	b1 8b       	std	Z+17, r27	; 0x11
     96c:	82 87       	std	Z+10, r24	; 0x0a
     96e:	93 87       	std	Z+11, r25	; 0x0b
     970:	a4 87       	std	Z+12, r26	; 0x0c
     972:	b5 87       	std	Z+13, r27	; 0x0d
     974:	80 e8       	ldi	r24, 0x80	; 128
     976:	85 83       	std	Z+5, r24	; 0x05
     978:	5c cf       	rjmp	.-328    	; 0x832 <find_volume+0x42a>
     97a:	ff ef       	ldi	r31, 0xFF	; 255
     97c:	8f 0e       	add	r8, r31
     97e:	f1 e0       	ldi	r31, 0x01	; 1
     980:	9f 1e       	adc	r9, r31
     982:	a1 1c       	adc	r10, r1
     984:	b1 1c       	adc	r11, r1
     986:	07 2e       	mov	r0, r23
     988:	79 e0       	ldi	r23, 0x09	; 9
     98a:	b6 94       	lsr	r11
     98c:	a7 94       	ror	r10
     98e:	97 94       	ror	r9
     990:	87 94       	ror	r8
     992:	7a 95       	dec	r23
     994:	d1 f7       	brne	.-12     	; 0x98a <find_volume+0x582>
     996:	70 2d       	mov	r23, r0
     998:	48 14       	cp	r4, r8
     99a:	59 04       	cpc	r5, r9
     99c:	6a 04       	cpc	r6, r10
     99e:	7b 04       	cpc	r7, r11
     9a0:	08 f4       	brcc	.+2      	; 0x9a4 <find_volume+0x59c>
     9a2:	7f cf       	rjmp	.-258    	; 0x8a2 <find_volume+0x49a>
     9a4:	db cf       	rjmp	.-74     	; 0x95c <find_volume+0x554>
     9a6:	6d 96       	adiw	r28, 0x1d	; 29
     9a8:	0f b6       	in	r0, 0x3f	; 63
     9aa:	f8 94       	cli
     9ac:	de bf       	out	0x3e, r29	; 62
     9ae:	0f be       	out	0x3f, r0	; 63
     9b0:	cd bf       	out	0x3d, r28	; 61
     9b2:	df 91       	pop	r29
     9b4:	cf 91       	pop	r28
     9b6:	1f 91       	pop	r17
     9b8:	0f 91       	pop	r16
     9ba:	ff 90       	pop	r15
     9bc:	ef 90       	pop	r14
     9be:	df 90       	pop	r13
     9c0:	cf 90       	pop	r12
     9c2:	bf 90       	pop	r11
     9c4:	af 90       	pop	r10
     9c6:	9f 90       	pop	r9
     9c8:	8f 90       	pop	r8
     9ca:	7f 90       	pop	r7
     9cc:	6f 90       	pop	r6
     9ce:	5f 90       	pop	r5
     9d0:	4f 90       	pop	r4
     9d2:	3f 90       	pop	r3
     9d4:	2f 90       	pop	r2
     9d6:	08 95       	ret

000009d8 <clust2sect>:
     9d8:	cf 92       	push	r12
     9da:	df 92       	push	r13
     9dc:	ef 92       	push	r14
     9de:	ff 92       	push	r15
     9e0:	fc 01       	movw	r30, r24
     9e2:	9a 01       	movw	r18, r20
     9e4:	ab 01       	movw	r20, r22
     9e6:	22 50       	subi	r18, 0x02	; 2
     9e8:	31 09       	sbc	r19, r1
     9ea:	41 09       	sbc	r20, r1
     9ec:	51 09       	sbc	r21, r1
     9ee:	c2 88       	ldd	r12, Z+18	; 0x12
     9f0:	d3 88       	ldd	r13, Z+19	; 0x13
     9f2:	e4 88       	ldd	r14, Z+20	; 0x14
     9f4:	f5 88       	ldd	r15, Z+21	; 0x15
     9f6:	82 e0       	ldi	r24, 0x02	; 2
     9f8:	c8 1a       	sub	r12, r24
     9fa:	d1 08       	sbc	r13, r1
     9fc:	e1 08       	sbc	r14, r1
     9fe:	f1 08       	sbc	r15, r1
     a00:	2c 15       	cp	r18, r12
     a02:	3d 05       	cpc	r19, r13
     a04:	4e 05       	cpc	r20, r14
     a06:	5f 05       	cpc	r21, r15
     a08:	68 f4       	brcc	.+26     	; 0xa24 <clust2sect+0x4c>
     a0a:	a2 81       	ldd	r26, Z+2	; 0x02
     a0c:	b0 e0       	ldi	r27, 0x00	; 0
     a0e:	0e 94 4b 36 	call	0x6c96	; 0x6c96 <__muluhisi3>
     a12:	c6 a0       	ldd	r12, Z+38	; 0x26
     a14:	d7 a0       	ldd	r13, Z+39	; 0x27
     a16:	e0 a4       	ldd	r14, Z+40	; 0x28
     a18:	f1 a4       	ldd	r15, Z+41	; 0x29
     a1a:	6c 0d       	add	r22, r12
     a1c:	7d 1d       	adc	r23, r13
     a1e:	8e 1d       	adc	r24, r14
     a20:	9f 1d       	adc	r25, r15
     a22:	03 c0       	rjmp	.+6      	; 0xa2a <clust2sect+0x52>
     a24:	60 e0       	ldi	r22, 0x00	; 0
     a26:	70 e0       	ldi	r23, 0x00	; 0
     a28:	cb 01       	movw	r24, r22
     a2a:	ff 90       	pop	r15
     a2c:	ef 90       	pop	r14
     a2e:	df 90       	pop	r13
     a30:	cf 90       	pop	r12
     a32:	08 95       	ret

00000a34 <get_fat>:
     a34:	af 92       	push	r10
     a36:	bf 92       	push	r11
     a38:	cf 92       	push	r12
     a3a:	df 92       	push	r13
     a3c:	ef 92       	push	r14
     a3e:	ff 92       	push	r15
     a40:	0f 93       	push	r16
     a42:	1f 93       	push	r17
     a44:	cf 93       	push	r28
     a46:	df 93       	push	r29
     a48:	ec 01       	movw	r28, r24
     a4a:	6a 01       	movw	r12, r20
     a4c:	7b 01       	movw	r14, r22
     a4e:	42 30       	cpi	r20, 0x02	; 2
     a50:	51 05       	cpc	r21, r1
     a52:	61 05       	cpc	r22, r1
     a54:	71 05       	cpc	r23, r1
     a56:	08 f4       	brcc	.+2      	; 0xa5a <get_fat+0x26>
     a58:	a7 c0       	rjmp	.+334    	; 0xba8 <get_fat+0x174>
     a5a:	8a 89       	ldd	r24, Y+18	; 0x12
     a5c:	9b 89       	ldd	r25, Y+19	; 0x13
     a5e:	ac 89       	ldd	r26, Y+20	; 0x14
     a60:	bd 89       	ldd	r27, Y+21	; 0x15
     a62:	48 17       	cp	r20, r24
     a64:	59 07       	cpc	r21, r25
     a66:	6a 07       	cpc	r22, r26
     a68:	7b 07       	cpc	r23, r27
     a6a:	08 f0       	brcs	.+2      	; 0xa6e <get_fat+0x3a>
     a6c:	a2 c0       	rjmp	.+324    	; 0xbb2 <get_fat+0x17e>
     a6e:	88 81       	ld	r24, Y
     a70:	82 30       	cpi	r24, 0x02	; 2
     a72:	09 f4       	brne	.+2      	; 0xa76 <get_fat+0x42>
     a74:	4b c0       	rjmp	.+150    	; 0xb0c <get_fat+0xd8>
     a76:	83 30       	cpi	r24, 0x03	; 3
     a78:	09 f4       	brne	.+2      	; 0xa7c <get_fat+0x48>
     a7a:	69 c0       	rjmp	.+210    	; 0xb4e <get_fat+0x11a>
     a7c:	81 30       	cpi	r24, 0x01	; 1
     a7e:	09 f0       	breq	.+2      	; 0xa82 <get_fat+0x4e>
     a80:	9d c0       	rjmp	.+314    	; 0xbbc <get_fat+0x188>
     a82:	8a 01       	movw	r16, r20
     a84:	16 95       	lsr	r17
     a86:	07 95       	ror	r16
     a88:	04 0f       	add	r16, r20
     a8a:	15 1f       	adc	r17, r21
     a8c:	c8 01       	movw	r24, r16
     a8e:	89 2f       	mov	r24, r25
     a90:	99 27       	eor	r25, r25
     a92:	86 95       	lsr	r24
     a94:	4e 8d       	ldd	r20, Y+30	; 0x1e
     a96:	5f 8d       	ldd	r21, Y+31	; 0x1f
     a98:	68 a1       	ldd	r22, Y+32	; 0x20
     a9a:	79 a1       	ldd	r23, Y+33	; 0x21
     a9c:	48 0f       	add	r20, r24
     a9e:	59 1f       	adc	r21, r25
     aa0:	61 1d       	adc	r22, r1
     aa2:	71 1d       	adc	r23, r1
     aa4:	ce 01       	movw	r24, r28
     aa6:	14 dc       	rcall	.-2008   	; 0x2d0 <move_window>
     aa8:	81 11       	cpse	r24, r1
     aaa:	8d c0       	rjmp	.+282    	; 0xbc6 <get_fat+0x192>
     aac:	58 01       	movw	r10, r16
     aae:	8f ef       	ldi	r24, 0xFF	; 255
     ab0:	a8 1a       	sub	r10, r24
     ab2:	b8 0a       	sbc	r11, r24
     ab4:	11 70       	andi	r17, 0x01	; 1
     ab6:	fe 01       	movw	r30, r28
     ab8:	e0 0f       	add	r30, r16
     aba:	f1 1f       	adc	r31, r17
     abc:	16 a5       	ldd	r17, Z+46	; 0x2e
     abe:	c5 01       	movw	r24, r10
     ac0:	89 2f       	mov	r24, r25
     ac2:	99 27       	eor	r25, r25
     ac4:	86 95       	lsr	r24
     ac6:	4e 8d       	ldd	r20, Y+30	; 0x1e
     ac8:	5f 8d       	ldd	r21, Y+31	; 0x1f
     aca:	68 a1       	ldd	r22, Y+32	; 0x20
     acc:	79 a1       	ldd	r23, Y+33	; 0x21
     ace:	48 0f       	add	r20, r24
     ad0:	59 1f       	adc	r21, r25
     ad2:	61 1d       	adc	r22, r1
     ad4:	71 1d       	adc	r23, r1
     ad6:	ce 01       	movw	r24, r28
     ad8:	fb db       	rcall	.-2058   	; 0x2d0 <move_window>
     ada:	81 11       	cpse	r24, r1
     adc:	78 c0       	rjmp	.+240    	; 0xbce <get_fat+0x19a>
     ade:	81 e0       	ldi	r24, 0x01	; 1
     ae0:	b8 22       	and	r11, r24
     ae2:	ca 0d       	add	r28, r10
     ae4:	db 1d       	adc	r29, r11
     ae6:	8e a5       	ldd	r24, Y+46	; 0x2e
     ae8:	61 2f       	mov	r22, r17
     aea:	70 e0       	ldi	r23, 0x00	; 0
     aec:	78 2b       	or	r23, r24
     aee:	c0 fe       	sbrs	r12, 0
     af0:	09 c0       	rjmp	.+18     	; 0xb04 <get_fat+0xd0>
     af2:	72 95       	swap	r23
     af4:	62 95       	swap	r22
     af6:	6f 70       	andi	r22, 0x0F	; 15
     af8:	67 27       	eor	r22, r23
     afa:	7f 70       	andi	r23, 0x0F	; 15
     afc:	67 27       	eor	r22, r23
     afe:	80 e0       	ldi	r24, 0x00	; 0
     b00:	90 e0       	ldi	r25, 0x00	; 0
     b02:	70 c0       	rjmp	.+224    	; 0xbe4 <get_fat+0x1b0>
     b04:	7f 70       	andi	r23, 0x0F	; 15
     b06:	80 e0       	ldi	r24, 0x00	; 0
     b08:	90 e0       	ldi	r25, 0x00	; 0
     b0a:	6c c0       	rjmp	.+216    	; 0xbe4 <get_fat+0x1b0>
     b0c:	45 2f       	mov	r20, r21
     b0e:	56 2f       	mov	r21, r22
     b10:	67 2f       	mov	r22, r23
     b12:	77 27       	eor	r23, r23
     b14:	8e 8d       	ldd	r24, Y+30	; 0x1e
     b16:	9f 8d       	ldd	r25, Y+31	; 0x1f
     b18:	a8 a1       	ldd	r26, Y+32	; 0x20
     b1a:	b9 a1       	ldd	r27, Y+33	; 0x21
     b1c:	48 0f       	add	r20, r24
     b1e:	59 1f       	adc	r21, r25
     b20:	6a 1f       	adc	r22, r26
     b22:	7b 1f       	adc	r23, r27
     b24:	ce 01       	movw	r24, r28
     b26:	d4 db       	rcall	.-2136   	; 0x2d0 <move_window>
     b28:	81 11       	cpse	r24, r1
     b2a:	55 c0       	rjmp	.+170    	; 0xbd6 <get_fat+0x1a2>
     b2c:	cc 0c       	add	r12, r12
     b2e:	dd 1c       	adc	r13, r13
     b30:	ee 1c       	adc	r14, r14
     b32:	ff 1c       	adc	r15, r15
     b34:	e8 94       	clt
     b36:	c0 f8       	bld	r12, 0
     b38:	81 e0       	ldi	r24, 0x01	; 1
     b3a:	d8 22       	and	r13, r24
     b3c:	ee 24       	eor	r14, r14
     b3e:	ff 24       	eor	r15, r15
     b40:	cc 0d       	add	r28, r12
     b42:	dd 1d       	adc	r29, r13
     b44:	6e a5       	ldd	r22, Y+46	; 0x2e
     b46:	7f a5       	ldd	r23, Y+47	; 0x2f
     b48:	80 e0       	ldi	r24, 0x00	; 0
     b4a:	90 e0       	ldi	r25, 0x00	; 0
     b4c:	4b c0       	rjmp	.+150    	; 0xbe4 <get_fat+0x1b0>
     b4e:	8e 8d       	ldd	r24, Y+30	; 0x1e
     b50:	9f 8d       	ldd	r25, Y+31	; 0x1f
     b52:	a8 a1       	ldd	r26, Y+32	; 0x20
     b54:	b9 a1       	ldd	r27, Y+33	; 0x21
     b56:	68 94       	set
     b58:	16 f8       	bld	r1, 6
     b5a:	76 95       	lsr	r23
     b5c:	67 95       	ror	r22
     b5e:	57 95       	ror	r21
     b60:	47 95       	ror	r20
     b62:	16 94       	lsr	r1
     b64:	d1 f7       	brne	.-12     	; 0xb5a <get_fat+0x126>
     b66:	48 0f       	add	r20, r24
     b68:	59 1f       	adc	r21, r25
     b6a:	6a 1f       	adc	r22, r26
     b6c:	7b 1f       	adc	r23, r27
     b6e:	ce 01       	movw	r24, r28
     b70:	af db       	rcall	.-2210   	; 0x2d0 <move_window>
     b72:	81 11       	cpse	r24, r1
     b74:	34 c0       	rjmp	.+104    	; 0xbde <get_fat+0x1aa>
     b76:	cc 0c       	add	r12, r12
     b78:	dd 1c       	adc	r13, r13
     b7a:	ee 1c       	adc	r14, r14
     b7c:	ff 1c       	adc	r15, r15
     b7e:	cc 0c       	add	r12, r12
     b80:	dd 1c       	adc	r13, r13
     b82:	ee 1c       	adc	r14, r14
     b84:	ff 1c       	adc	r15, r15
     b86:	8c ef       	ldi	r24, 0xFC	; 252
     b88:	c8 22       	and	r12, r24
     b8a:	81 e0       	ldi	r24, 0x01	; 1
     b8c:	d8 22       	and	r13, r24
     b8e:	ee 24       	eor	r14, r14
     b90:	ff 24       	eor	r15, r15
     b92:	fe 01       	movw	r30, r28
     b94:	ec 0d       	add	r30, r12
     b96:	fd 1d       	adc	r31, r13
     b98:	86 a5       	ldd	r24, Z+46	; 0x2e
     b9a:	97 a5       	ldd	r25, Z+47	; 0x2f
     b9c:	a0 a9       	ldd	r26, Z+48	; 0x30
     b9e:	b1 a9       	ldd	r27, Z+49	; 0x31
     ba0:	bc 01       	movw	r22, r24
     ba2:	cd 01       	movw	r24, r26
     ba4:	9f 70       	andi	r25, 0x0F	; 15
     ba6:	1e c0       	rjmp	.+60     	; 0xbe4 <get_fat+0x1b0>
     ba8:	61 e0       	ldi	r22, 0x01	; 1
     baa:	70 e0       	ldi	r23, 0x00	; 0
     bac:	80 e0       	ldi	r24, 0x00	; 0
     bae:	90 e0       	ldi	r25, 0x00	; 0
     bb0:	19 c0       	rjmp	.+50     	; 0xbe4 <get_fat+0x1b0>
     bb2:	61 e0       	ldi	r22, 0x01	; 1
     bb4:	70 e0       	ldi	r23, 0x00	; 0
     bb6:	80 e0       	ldi	r24, 0x00	; 0
     bb8:	90 e0       	ldi	r25, 0x00	; 0
     bba:	14 c0       	rjmp	.+40     	; 0xbe4 <get_fat+0x1b0>
     bbc:	61 e0       	ldi	r22, 0x01	; 1
     bbe:	70 e0       	ldi	r23, 0x00	; 0
     bc0:	80 e0       	ldi	r24, 0x00	; 0
     bc2:	90 e0       	ldi	r25, 0x00	; 0
     bc4:	0f c0       	rjmp	.+30     	; 0xbe4 <get_fat+0x1b0>
     bc6:	6f ef       	ldi	r22, 0xFF	; 255
     bc8:	7f ef       	ldi	r23, 0xFF	; 255
     bca:	cb 01       	movw	r24, r22
     bcc:	0b c0       	rjmp	.+22     	; 0xbe4 <get_fat+0x1b0>
     bce:	6f ef       	ldi	r22, 0xFF	; 255
     bd0:	7f ef       	ldi	r23, 0xFF	; 255
     bd2:	cb 01       	movw	r24, r22
     bd4:	07 c0       	rjmp	.+14     	; 0xbe4 <get_fat+0x1b0>
     bd6:	6f ef       	ldi	r22, 0xFF	; 255
     bd8:	7f ef       	ldi	r23, 0xFF	; 255
     bda:	cb 01       	movw	r24, r22
     bdc:	03 c0       	rjmp	.+6      	; 0xbe4 <get_fat+0x1b0>
     bde:	6f ef       	ldi	r22, 0xFF	; 255
     be0:	7f ef       	ldi	r23, 0xFF	; 255
     be2:	cb 01       	movw	r24, r22
     be4:	df 91       	pop	r29
     be6:	cf 91       	pop	r28
     be8:	1f 91       	pop	r17
     bea:	0f 91       	pop	r16
     bec:	ff 90       	pop	r15
     bee:	ef 90       	pop	r14
     bf0:	df 90       	pop	r13
     bf2:	cf 90       	pop	r12
     bf4:	bf 90       	pop	r11
     bf6:	af 90       	pop	r10
     bf8:	08 95       	ret

00000bfa <dir_sdi>:
     bfa:	af 92       	push	r10
     bfc:	bf 92       	push	r11
     bfe:	cf 92       	push	r12
     c00:	df 92       	push	r13
     c02:	ef 92       	push	r14
     c04:	ff 92       	push	r15
     c06:	0f 93       	push	r16
     c08:	1f 93       	push	r17
     c0a:	cf 93       	push	r28
     c0c:	df 93       	push	r29
     c0e:	ec 01       	movw	r28, r24
     c10:	8b 01       	movw	r16, r22
     c12:	7d 83       	std	Y+5, r23	; 0x05
     c14:	6c 83       	std	Y+4, r22	; 0x04
     c16:	ce 80       	ldd	r12, Y+6	; 0x06
     c18:	df 80       	ldd	r13, Y+7	; 0x07
     c1a:	e8 84       	ldd	r14, Y+8	; 0x08
     c1c:	f9 84       	ldd	r15, Y+9	; 0x09
     c1e:	81 e0       	ldi	r24, 0x01	; 1
     c20:	c8 16       	cp	r12, r24
     c22:	d1 04       	cpc	r13, r1
     c24:	e1 04       	cpc	r14, r1
     c26:	f1 04       	cpc	r15, r1
     c28:	09 f4       	brne	.+2      	; 0xc2c <dir_sdi+0x32>
     c2a:	8a c0       	rjmp	.+276    	; 0xd40 <dir_sdi+0x146>
     c2c:	e8 81       	ld	r30, Y
     c2e:	f9 81       	ldd	r31, Y+1	; 0x01
     c30:	82 89       	ldd	r24, Z+18	; 0x12
     c32:	93 89       	ldd	r25, Z+19	; 0x13
     c34:	a4 89       	ldd	r26, Z+20	; 0x14
     c36:	b5 89       	ldd	r27, Z+21	; 0x15
     c38:	c8 16       	cp	r12, r24
     c3a:	d9 06       	cpc	r13, r25
     c3c:	ea 06       	cpc	r14, r26
     c3e:	fb 06       	cpc	r15, r27
     c40:	08 f0       	brcs	.+2      	; 0xc44 <dir_sdi+0x4a>
     c42:	80 c0       	rjmp	.+256    	; 0xd44 <dir_sdi+0x14a>
     c44:	c1 14       	cp	r12, r1
     c46:	d1 04       	cpc	r13, r1
     c48:	e1 04       	cpc	r14, r1
     c4a:	f1 04       	cpc	r15, r1
     c4c:	c1 f4       	brne	.+48     	; 0xc7e <dir_sdi+0x84>
     c4e:	80 81       	ld	r24, Z
     c50:	83 30       	cpi	r24, 0x03	; 3
     c52:	41 f4       	brne	.+16     	; 0xc64 <dir_sdi+0x6a>
     c54:	82 a1       	ldd	r24, Z+34	; 0x22
     c56:	93 a1       	ldd	r25, Z+35	; 0x23
     c58:	a4 a1       	ldd	r26, Z+36	; 0x24
     c5a:	b5 a1       	ldd	r27, Z+37	; 0x25
     c5c:	00 97       	sbiw	r24, 0x00	; 0
     c5e:	a1 05       	cpc	r26, r1
     c60:	b1 05       	cpc	r27, r1
     c62:	59 f4       	brne	.+22     	; 0xc7a <dir_sdi+0x80>
     c64:	80 85       	ldd	r24, Z+8	; 0x08
     c66:	91 85       	ldd	r25, Z+9	; 0x09
     c68:	08 17       	cp	r16, r24
     c6a:	19 07       	cpc	r17, r25
     c6c:	08 f0       	brcs	.+2      	; 0xc70 <dir_sdi+0x76>
     c6e:	6c c0       	rjmp	.+216    	; 0xd48 <dir_sdi+0x14e>
     c70:	62 a1       	ldd	r22, Z+34	; 0x22
     c72:	73 a1       	ldd	r23, Z+35	; 0x23
     c74:	84 a1       	ldd	r24, Z+36	; 0x24
     c76:	95 a1       	ldd	r25, Z+37	; 0x25
     c78:	35 c0       	rjmp	.+106    	; 0xce4 <dir_sdi+0xea>
     c7a:	6c 01       	movw	r12, r24
     c7c:	7d 01       	movw	r14, r26
     c7e:	a2 80       	ldd	r10, Z+2	; 0x02
     c80:	80 e1       	ldi	r24, 0x10	; 16
     c82:	a8 9e       	mul	r10, r24
     c84:	50 01       	movw	r10, r0
     c86:	11 24       	eor	r1, r1
     c88:	0a 15       	cp	r16, r10
     c8a:	1b 05       	cpc	r17, r11
     c8c:	30 f1       	brcs	.+76     	; 0xcda <dir_sdi+0xe0>
     c8e:	b7 01       	movw	r22, r14
     c90:	a6 01       	movw	r20, r12
     c92:	88 81       	ld	r24, Y
     c94:	99 81       	ldd	r25, Y+1	; 0x01
     c96:	ce de       	rcall	.-612    	; 0xa34 <get_fat>
     c98:	6b 01       	movw	r12, r22
     c9a:	7c 01       	movw	r14, r24
     c9c:	8f ef       	ldi	r24, 0xFF	; 255
     c9e:	c8 16       	cp	r12, r24
     ca0:	d8 06       	cpc	r13, r24
     ca2:	e8 06       	cpc	r14, r24
     ca4:	f8 06       	cpc	r15, r24
     ca6:	09 f4       	brne	.+2      	; 0xcaa <dir_sdi+0xb0>
     ca8:	51 c0       	rjmp	.+162    	; 0xd4c <dir_sdi+0x152>
     caa:	82 e0       	ldi	r24, 0x02	; 2
     cac:	c8 16       	cp	r12, r24
     cae:	d1 04       	cpc	r13, r1
     cb0:	e1 04       	cpc	r14, r1
     cb2:	f1 04       	cpc	r15, r1
     cb4:	08 f4       	brcc	.+2      	; 0xcb8 <dir_sdi+0xbe>
     cb6:	4c c0       	rjmp	.+152    	; 0xd50 <dir_sdi+0x156>
     cb8:	e8 81       	ld	r30, Y
     cba:	f9 81       	ldd	r31, Y+1	; 0x01
     cbc:	82 89       	ldd	r24, Z+18	; 0x12
     cbe:	93 89       	ldd	r25, Z+19	; 0x13
     cc0:	a4 89       	ldd	r26, Z+20	; 0x14
     cc2:	b5 89       	ldd	r27, Z+21	; 0x15
     cc4:	c8 16       	cp	r12, r24
     cc6:	d9 06       	cpc	r13, r25
     cc8:	ea 06       	cpc	r14, r26
     cca:	fb 06       	cpc	r15, r27
     ccc:	08 f0       	brcs	.+2      	; 0xcd0 <dir_sdi+0xd6>
     cce:	42 c0       	rjmp	.+132    	; 0xd54 <dir_sdi+0x15a>
     cd0:	0a 19       	sub	r16, r10
     cd2:	1b 09       	sbc	r17, r11
     cd4:	0a 15       	cp	r16, r10
     cd6:	1b 05       	cpc	r17, r11
     cd8:	d0 f6       	brcc	.-76     	; 0xc8e <dir_sdi+0x94>
     cda:	b7 01       	movw	r22, r14
     cdc:	a6 01       	movw	r20, r12
     cde:	88 81       	ld	r24, Y
     ce0:	99 81       	ldd	r25, Y+1	; 0x01
     ce2:	7a de       	rcall	.-780    	; 0x9d8 <clust2sect>
     ce4:	ca 86       	std	Y+10, r12	; 0x0a
     ce6:	db 86       	std	Y+11, r13	; 0x0b
     ce8:	ec 86       	std	Y+12, r14	; 0x0c
     cea:	fd 86       	std	Y+13, r15	; 0x0d
     cec:	61 15       	cp	r22, r1
     cee:	71 05       	cpc	r23, r1
     cf0:	81 05       	cpc	r24, r1
     cf2:	91 05       	cpc	r25, r1
     cf4:	89 f1       	breq	.+98     	; 0xd58 <dir_sdi+0x15e>
     cf6:	98 01       	movw	r18, r16
     cf8:	32 95       	swap	r19
     cfa:	22 95       	swap	r18
     cfc:	2f 70       	andi	r18, 0x0F	; 15
     cfe:	23 27       	eor	r18, r19
     d00:	3f 70       	andi	r19, 0x0F	; 15
     d02:	23 27       	eor	r18, r19
     d04:	dc 01       	movw	r26, r24
     d06:	cb 01       	movw	r24, r22
     d08:	82 0f       	add	r24, r18
     d0a:	93 1f       	adc	r25, r19
     d0c:	a1 1d       	adc	r26, r1
     d0e:	b1 1d       	adc	r27, r1
     d10:	8e 87       	std	Y+14, r24	; 0x0e
     d12:	9f 87       	std	Y+15, r25	; 0x0f
     d14:	a8 8b       	std	Y+16, r26	; 0x10
     d16:	b9 8b       	std	Y+17, r27	; 0x11
     d18:	0f 70       	andi	r16, 0x0F	; 15
     d1a:	11 27       	eor	r17, r17
     d1c:	00 0f       	add	r16, r16
     d1e:	11 1f       	adc	r17, r17
     d20:	02 95       	swap	r16
     d22:	12 95       	swap	r17
     d24:	10 7f       	andi	r17, 0xF0	; 240
     d26:	10 27       	eor	r17, r16
     d28:	00 7f       	andi	r16, 0xF0	; 240
     d2a:	10 27       	eor	r17, r16
     d2c:	02 5d       	subi	r16, 0xD2	; 210
     d2e:	1f 4f       	sbci	r17, 0xFF	; 255
     d30:	88 81       	ld	r24, Y
     d32:	99 81       	ldd	r25, Y+1	; 0x01
     d34:	80 0f       	add	r24, r16
     d36:	91 1f       	adc	r25, r17
     d38:	9b 8b       	std	Y+19, r25	; 0x13
     d3a:	8a 8b       	std	Y+18, r24	; 0x12
     d3c:	80 e0       	ldi	r24, 0x00	; 0
     d3e:	0d c0       	rjmp	.+26     	; 0xd5a <dir_sdi+0x160>
     d40:	82 e0       	ldi	r24, 0x02	; 2
     d42:	0b c0       	rjmp	.+22     	; 0xd5a <dir_sdi+0x160>
     d44:	82 e0       	ldi	r24, 0x02	; 2
     d46:	09 c0       	rjmp	.+18     	; 0xd5a <dir_sdi+0x160>
     d48:	82 e0       	ldi	r24, 0x02	; 2
     d4a:	07 c0       	rjmp	.+14     	; 0xd5a <dir_sdi+0x160>
     d4c:	81 e0       	ldi	r24, 0x01	; 1
     d4e:	05 c0       	rjmp	.+10     	; 0xd5a <dir_sdi+0x160>
     d50:	82 e0       	ldi	r24, 0x02	; 2
     d52:	03 c0       	rjmp	.+6      	; 0xd5a <dir_sdi+0x160>
     d54:	82 e0       	ldi	r24, 0x02	; 2
     d56:	01 c0       	rjmp	.+2      	; 0xd5a <dir_sdi+0x160>
     d58:	82 e0       	ldi	r24, 0x02	; 2
     d5a:	df 91       	pop	r29
     d5c:	cf 91       	pop	r28
     d5e:	1f 91       	pop	r17
     d60:	0f 91       	pop	r16
     d62:	ff 90       	pop	r15
     d64:	ef 90       	pop	r14
     d66:	df 90       	pop	r13
     d68:	cf 90       	pop	r12
     d6a:	bf 90       	pop	r11
     d6c:	af 90       	pop	r10
     d6e:	08 95       	ret

00000d70 <put_fat>:
     d70:	4f 92       	push	r4
     d72:	5f 92       	push	r5
     d74:	6f 92       	push	r6
     d76:	7f 92       	push	r7
     d78:	8f 92       	push	r8
     d7a:	9f 92       	push	r9
     d7c:	af 92       	push	r10
     d7e:	bf 92       	push	r11
     d80:	cf 92       	push	r12
     d82:	df 92       	push	r13
     d84:	ef 92       	push	r14
     d86:	ff 92       	push	r15
     d88:	0f 93       	push	r16
     d8a:	1f 93       	push	r17
     d8c:	cf 93       	push	r28
     d8e:	df 93       	push	r29
     d90:	ec 01       	movw	r28, r24
     d92:	6a 01       	movw	r12, r20
     d94:	7b 01       	movw	r14, r22
     d96:	28 01       	movw	r4, r16
     d98:	39 01       	movw	r6, r18
     d9a:	42 30       	cpi	r20, 0x02	; 2
     d9c:	51 05       	cpc	r21, r1
     d9e:	61 05       	cpc	r22, r1
     da0:	71 05       	cpc	r23, r1
     da2:	08 f4       	brcc	.+2      	; 0xda6 <put_fat+0x36>
     da4:	d2 c0       	rjmp	.+420    	; 0xf4a <put_fat+0x1da>
     da6:	8a 89       	ldd	r24, Y+18	; 0x12
     da8:	9b 89       	ldd	r25, Y+19	; 0x13
     daa:	ac 89       	ldd	r26, Y+20	; 0x14
     dac:	bd 89       	ldd	r27, Y+21	; 0x15
     dae:	48 17       	cp	r20, r24
     db0:	59 07       	cpc	r21, r25
     db2:	6a 07       	cpc	r22, r26
     db4:	7b 07       	cpc	r23, r27
     db6:	08 f0       	brcs	.+2      	; 0xdba <put_fat+0x4a>
     db8:	ca c0       	rjmp	.+404    	; 0xf4e <put_fat+0x1de>
     dba:	88 81       	ld	r24, Y
     dbc:	82 30       	cpi	r24, 0x02	; 2
     dbe:	09 f4       	brne	.+2      	; 0xdc2 <put_fat+0x52>
     dc0:	62 c0       	rjmp	.+196    	; 0xe86 <put_fat+0x116>
     dc2:	83 30       	cpi	r24, 0x03	; 3
     dc4:	09 f4       	brne	.+2      	; 0xdc8 <put_fat+0x58>
     dc6:	85 c0       	rjmp	.+266    	; 0xed2 <put_fat+0x162>
     dc8:	81 30       	cpi	r24, 0x01	; 1
     dca:	09 f0       	breq	.+2      	; 0xdce <put_fat+0x5e>
     dcc:	c2 c0       	rjmp	.+388    	; 0xf52 <put_fat+0x1e2>
     dce:	5a 01       	movw	r10, r20
     dd0:	b6 94       	lsr	r11
     dd2:	a7 94       	ror	r10
     dd4:	a4 0e       	add	r10, r20
     dd6:	b5 1e       	adc	r11, r21
     dd8:	c5 01       	movw	r24, r10
     dda:	89 2f       	mov	r24, r25
     ddc:	99 27       	eor	r25, r25
     dde:	86 95       	lsr	r24
     de0:	4e 8d       	ldd	r20, Y+30	; 0x1e
     de2:	5f 8d       	ldd	r21, Y+31	; 0x1f
     de4:	68 a1       	ldd	r22, Y+32	; 0x20
     de6:	79 a1       	ldd	r23, Y+33	; 0x21
     de8:	48 0f       	add	r20, r24
     dea:	59 1f       	adc	r21, r25
     dec:	61 1d       	adc	r22, r1
     dee:	71 1d       	adc	r23, r1
     df0:	ce 01       	movw	r24, r28
     df2:	6e da       	rcall	.-2852   	; 0x2d0 <move_window>
     df4:	18 2f       	mov	r17, r24
     df6:	81 11       	cpse	r24, r1
     df8:	ca c0       	rjmp	.+404    	; 0xf8e <put_fat+0x21e>
     dfa:	45 01       	movw	r8, r10
     dfc:	8f ef       	ldi	r24, 0xFF	; 255
     dfe:	88 1a       	sub	r8, r24
     e00:	98 0a       	sbc	r9, r24
     e02:	31 e0       	ldi	r19, 0x01	; 1
     e04:	b3 22       	and	r11, r19
     e06:	c0 fe       	sbrs	r12, 0
     e08:	20 c0       	rjmp	.+64     	; 0xe4a <put_fat+0xda>
     e0a:	fe 01       	movw	r30, r28
     e0c:	ea 0d       	add	r30, r10
     e0e:	fb 1d       	adc	r31, r11
     e10:	86 a5       	ldd	r24, Z+46	; 0x2e
     e12:	28 2f       	mov	r18, r24
     e14:	2f 70       	andi	r18, 0x0F	; 15
     e16:	30 e1       	ldi	r19, 0x10	; 16
     e18:	43 9e       	mul	r4, r19
     e1a:	c0 01       	movw	r24, r0
     e1c:	11 24       	eor	r1, r1
     e1e:	82 2b       	or	r24, r18
     e20:	86 a7       	std	Z+46, r24	; 0x2e
     e22:	81 e0       	ldi	r24, 0x01	; 1
     e24:	8c 83       	std	Y+4, r24	; 0x04
     e26:	4e 8d       	ldd	r20, Y+30	; 0x1e
     e28:	5f 8d       	ldd	r21, Y+31	; 0x1f
     e2a:	68 a1       	ldd	r22, Y+32	; 0x20
     e2c:	79 a1       	ldd	r23, Y+33	; 0x21
     e2e:	c4 01       	movw	r24, r8
     e30:	89 2f       	mov	r24, r25
     e32:	99 27       	eor	r25, r25
     e34:	86 95       	lsr	r24
     e36:	48 0f       	add	r20, r24
     e38:	59 1f       	adc	r21, r25
     e3a:	61 1d       	adc	r22, r1
     e3c:	71 1d       	adc	r23, r1
     e3e:	ce 01       	movw	r24, r28
     e40:	47 da       	rcall	.-2930   	; 0x2d0 <move_window>
     e42:	88 23       	and	r24, r24
     e44:	09 f4       	brne	.+2      	; 0xe48 <put_fat+0xd8>
     e46:	8b c0       	rjmp	.+278    	; 0xf5e <put_fat+0x1ee>
     e48:	86 c0       	rjmp	.+268    	; 0xf56 <put_fat+0x1e6>
     e4a:	fe 01       	movw	r30, r28
     e4c:	ea 0d       	add	r30, r10
     e4e:	fb 1d       	adc	r31, r11
     e50:	46 a6       	std	Z+46, r4	; 0x2e
     e52:	81 e0       	ldi	r24, 0x01	; 1
     e54:	8c 83       	std	Y+4, r24	; 0x04
     e56:	4e 8d       	ldd	r20, Y+30	; 0x1e
     e58:	5f 8d       	ldd	r21, Y+31	; 0x1f
     e5a:	68 a1       	ldd	r22, Y+32	; 0x20
     e5c:	79 a1       	ldd	r23, Y+33	; 0x21
     e5e:	c4 01       	movw	r24, r8
     e60:	89 2f       	mov	r24, r25
     e62:	99 27       	eor	r25, r25
     e64:	86 95       	lsr	r24
     e66:	48 0f       	add	r20, r24
     e68:	59 1f       	adc	r21, r25
     e6a:	61 1d       	adc	r22, r1
     e6c:	71 1d       	adc	r23, r1
     e6e:	ce 01       	movw	r24, r28
     e70:	2f da       	rcall	.-2978   	; 0x2d0 <move_window>
     e72:	88 23       	and	r24, r24
     e74:	09 f4       	brne	.+2      	; 0xe78 <put_fat+0x108>
     e76:	7e c0       	rjmp	.+252    	; 0xf74 <put_fat+0x204>
     e78:	70 c0       	rjmp	.+224    	; 0xf5a <put_fat+0x1ea>
     e7a:	ec 0f       	add	r30, r28
     e7c:	fd 1f       	adc	r31, r29
     e7e:	46 a6       	std	Z+46, r4	; 0x2e
     e80:	81 e0       	ldi	r24, 0x01	; 1
     e82:	8c 83       	std	Y+4, r24	; 0x04
     e84:	84 c0       	rjmp	.+264    	; 0xf8e <put_fat+0x21e>
     e86:	45 2f       	mov	r20, r21
     e88:	56 2f       	mov	r21, r22
     e8a:	67 2f       	mov	r22, r23
     e8c:	77 27       	eor	r23, r23
     e8e:	8e 8d       	ldd	r24, Y+30	; 0x1e
     e90:	9f 8d       	ldd	r25, Y+31	; 0x1f
     e92:	a8 a1       	ldd	r26, Y+32	; 0x20
     e94:	b9 a1       	ldd	r27, Y+33	; 0x21
     e96:	48 0f       	add	r20, r24
     e98:	59 1f       	adc	r21, r25
     e9a:	6a 1f       	adc	r22, r26
     e9c:	7b 1f       	adc	r23, r27
     e9e:	ce 01       	movw	r24, r28
     ea0:	17 da       	rcall	.-3026   	; 0x2d0 <move_window>
     ea2:	18 2f       	mov	r17, r24
     ea4:	81 11       	cpse	r24, r1
     ea6:	73 c0       	rjmp	.+230    	; 0xf8e <put_fat+0x21e>
     ea8:	cc 0c       	add	r12, r12
     eaa:	dd 1c       	adc	r13, r13
     eac:	ee 1c       	adc	r14, r14
     eae:	ff 1c       	adc	r15, r15
     eb0:	e8 94       	clt
     eb2:	c0 f8       	bld	r12, 0
     eb4:	81 e0       	ldi	r24, 0x01	; 1
     eb6:	d8 22       	and	r13, r24
     eb8:	ee 24       	eor	r14, r14
     eba:	ff 24       	eor	r15, r15
     ebc:	3e e2       	ldi	r19, 0x2E	; 46
     ebe:	c3 0e       	add	r12, r19
     ec0:	d1 1c       	adc	r13, r1
     ec2:	fe 01       	movw	r30, r28
     ec4:	ec 0d       	add	r30, r12
     ec6:	fd 1d       	adc	r31, r13
     ec8:	51 82       	std	Z+1, r5	; 0x01
     eca:	40 82       	st	Z, r4
     ecc:	81 e0       	ldi	r24, 0x01	; 1
     ece:	8c 83       	std	Y+4, r24	; 0x04
     ed0:	5e c0       	rjmp	.+188    	; 0xf8e <put_fat+0x21e>
     ed2:	8e 8d       	ldd	r24, Y+30	; 0x1e
     ed4:	9f 8d       	ldd	r25, Y+31	; 0x1f
     ed6:	a8 a1       	ldd	r26, Y+32	; 0x20
     ed8:	b9 a1       	ldd	r27, Y+33	; 0x21
     eda:	68 94       	set
     edc:	16 f8       	bld	r1, 6
     ede:	76 95       	lsr	r23
     ee0:	67 95       	ror	r22
     ee2:	57 95       	ror	r21
     ee4:	47 95       	ror	r20
     ee6:	16 94       	lsr	r1
     ee8:	d1 f7       	brne	.-12     	; 0xede <put_fat+0x16e>
     eea:	48 0f       	add	r20, r24
     eec:	59 1f       	adc	r21, r25
     eee:	6a 1f       	adc	r22, r26
     ef0:	7b 1f       	adc	r23, r27
     ef2:	ce 01       	movw	r24, r28
     ef4:	ed d9       	rcall	.-3110   	; 0x2d0 <move_window>
     ef6:	18 2f       	mov	r17, r24
     ef8:	81 11       	cpse	r24, r1
     efa:	49 c0       	rjmp	.+146    	; 0xf8e <put_fat+0x21e>
     efc:	cc 0c       	add	r12, r12
     efe:	dd 1c       	adc	r13, r13
     f00:	ee 1c       	adc	r14, r14
     f02:	ff 1c       	adc	r15, r15
     f04:	cc 0c       	add	r12, r12
     f06:	dd 1c       	adc	r13, r13
     f08:	ee 1c       	adc	r14, r14
     f0a:	ff 1c       	adc	r15, r15
     f0c:	8c ef       	ldi	r24, 0xFC	; 252
     f0e:	c8 22       	and	r12, r24
     f10:	81 e0       	ldi	r24, 0x01	; 1
     f12:	d8 22       	and	r13, r24
     f14:	ee 24       	eor	r14, r14
     f16:	ff 24       	eor	r15, r15
     f18:	3e e2       	ldi	r19, 0x2E	; 46
     f1a:	c3 0e       	add	r12, r19
     f1c:	d1 1c       	adc	r13, r1
     f1e:	fe 01       	movw	r30, r28
     f20:	ec 0d       	add	r30, r12
     f22:	fd 1d       	adc	r31, r13
     f24:	80 81       	ld	r24, Z
     f26:	91 81       	ldd	r25, Z+1	; 0x01
     f28:	a2 81       	ldd	r26, Z+2	; 0x02
     f2a:	b3 81       	ldd	r27, Z+3	; 0x03
     f2c:	88 27       	eor	r24, r24
     f2e:	99 27       	eor	r25, r25
     f30:	aa 27       	eor	r26, r26
     f32:	b0 7f       	andi	r27, 0xF0	; 240
     f34:	48 2a       	or	r4, r24
     f36:	59 2a       	or	r5, r25
     f38:	6a 2a       	or	r6, r26
     f3a:	7b 2a       	or	r7, r27
     f3c:	40 82       	st	Z, r4
     f3e:	51 82       	std	Z+1, r5	; 0x01
     f40:	62 82       	std	Z+2, r6	; 0x02
     f42:	73 82       	std	Z+3, r7	; 0x03
     f44:	81 e0       	ldi	r24, 0x01	; 1
     f46:	8c 83       	std	Y+4, r24	; 0x04
     f48:	22 c0       	rjmp	.+68     	; 0xf8e <put_fat+0x21e>
     f4a:	12 e0       	ldi	r17, 0x02	; 2
     f4c:	20 c0       	rjmp	.+64     	; 0xf8e <put_fat+0x21e>
     f4e:	12 e0       	ldi	r17, 0x02	; 2
     f50:	1e c0       	rjmp	.+60     	; 0xf8e <put_fat+0x21e>
     f52:	12 e0       	ldi	r17, 0x02	; 2
     f54:	1c c0       	rjmp	.+56     	; 0xf8e <put_fat+0x21e>
     f56:	18 2f       	mov	r17, r24
     f58:	1a c0       	rjmp	.+52     	; 0xf8e <put_fat+0x21e>
     f5a:	18 2f       	mov	r17, r24
     f5c:	18 c0       	rjmp	.+48     	; 0xf8e <put_fat+0x21e>
     f5e:	f4 01       	movw	r30, r8
     f60:	f1 70       	andi	r31, 0x01	; 1
     f62:	68 94       	set
     f64:	13 f8       	bld	r1, 3
     f66:	76 94       	lsr	r7
     f68:	67 94       	ror	r6
     f6a:	57 94       	ror	r5
     f6c:	47 94       	ror	r4
     f6e:	16 94       	lsr	r1
     f70:	d1 f7       	brne	.-12     	; 0xf66 <put_fat+0x1f6>
     f72:	83 cf       	rjmp	.-250    	; 0xe7a <put_fat+0x10a>
     f74:	f4 01       	movw	r30, r8
     f76:	f1 70       	andi	r31, 0x01	; 1
     f78:	de 01       	movw	r26, r28
     f7a:	ae 0f       	add	r26, r30
     f7c:	bf 1f       	adc	r27, r31
     f7e:	9e 96       	adiw	r26, 0x2e	; 46
     f80:	9c 91       	ld	r25, X
     f82:	90 7f       	andi	r25, 0xF0	; 240
     f84:	85 2d       	mov	r24, r5
     f86:	8f 70       	andi	r24, 0x0F	; 15
     f88:	49 2e       	mov	r4, r25
     f8a:	48 2a       	or	r4, r24
     f8c:	76 cf       	rjmp	.-276    	; 0xe7a <put_fat+0x10a>
     f8e:	81 2f       	mov	r24, r17
     f90:	df 91       	pop	r29
     f92:	cf 91       	pop	r28
     f94:	1f 91       	pop	r17
     f96:	0f 91       	pop	r16
     f98:	ff 90       	pop	r15
     f9a:	ef 90       	pop	r14
     f9c:	df 90       	pop	r13
     f9e:	cf 90       	pop	r12
     fa0:	bf 90       	pop	r11
     fa2:	af 90       	pop	r10
     fa4:	9f 90       	pop	r9
     fa6:	8f 90       	pop	r8
     fa8:	7f 90       	pop	r7
     faa:	6f 90       	pop	r6
     fac:	5f 90       	pop	r5
     fae:	4f 90       	pop	r4
     fb0:	08 95       	ret

00000fb2 <create_chain>:
     fb2:	2f 92       	push	r2
     fb4:	3f 92       	push	r3
     fb6:	4f 92       	push	r4
     fb8:	5f 92       	push	r5
     fba:	6f 92       	push	r6
     fbc:	7f 92       	push	r7
     fbe:	8f 92       	push	r8
     fc0:	9f 92       	push	r9
     fc2:	af 92       	push	r10
     fc4:	bf 92       	push	r11
     fc6:	cf 92       	push	r12
     fc8:	df 92       	push	r13
     fca:	ef 92       	push	r14
     fcc:	ff 92       	push	r15
     fce:	0f 93       	push	r16
     fd0:	1f 93       	push	r17
     fd2:	cf 93       	push	r28
     fd4:	df 93       	push	r29
     fd6:	ec 01       	movw	r28, r24
     fd8:	2a 01       	movw	r4, r20
     fda:	3b 01       	movw	r6, r22
     fdc:	41 15       	cp	r20, r1
     fde:	51 05       	cpc	r21, r1
     fe0:	61 05       	cpc	r22, r1
     fe2:	71 05       	cpc	r23, r1
     fe4:	b9 f4       	brne	.+46     	; 0x1014 <create_chain+0x62>
     fe6:	8a 84       	ldd	r8, Y+10	; 0x0a
     fe8:	9b 84       	ldd	r9, Y+11	; 0x0b
     fea:	ac 84       	ldd	r10, Y+12	; 0x0c
     fec:	bd 84       	ldd	r11, Y+13	; 0x0d
     fee:	81 14       	cp	r8, r1
     ff0:	91 04       	cpc	r9, r1
     ff2:	a1 04       	cpc	r10, r1
     ff4:	b1 04       	cpc	r11, r1
     ff6:	59 f1       	breq	.+86     	; 0x104e <create_chain+0x9c>
     ff8:	8a 89       	ldd	r24, Y+18	; 0x12
     ffa:	9b 89       	ldd	r25, Y+19	; 0x13
     ffc:	ac 89       	ldd	r26, Y+20	; 0x14
     ffe:	bd 89       	ldd	r27, Y+21	; 0x15
    1000:	88 16       	cp	r8, r24
    1002:	99 06       	cpc	r9, r25
    1004:	aa 06       	cpc	r10, r26
    1006:	bb 06       	cpc	r11, r27
    1008:	30 f1       	brcs	.+76     	; 0x1056 <create_chain+0xa4>
    100a:	81 2c       	mov	r8, r1
    100c:	91 2c       	mov	r9, r1
    100e:	54 01       	movw	r10, r8
    1010:	83 94       	inc	r8
    1012:	21 c0       	rjmp	.+66     	; 0x1056 <create_chain+0xa4>
    1014:	0f dd       	rcall	.-1506   	; 0xa34 <get_fat>
    1016:	6b 01       	movw	r12, r22
    1018:	7c 01       	movw	r14, r24
    101a:	62 30       	cpi	r22, 0x02	; 2
    101c:	71 05       	cpc	r23, r1
    101e:	81 05       	cpc	r24, r1
    1020:	91 05       	cpc	r25, r1
    1022:	08 f4       	brcc	.+2      	; 0x1026 <create_chain+0x74>
    1024:	96 c0       	rjmp	.+300    	; 0x1152 <create_chain+0x1a0>
    1026:	8f ef       	ldi	r24, 0xFF	; 255
    1028:	c8 16       	cp	r12, r24
    102a:	d8 06       	cpc	r13, r24
    102c:	e8 06       	cpc	r14, r24
    102e:	f8 06       	cpc	r15, r24
    1030:	09 f4       	brne	.+2      	; 0x1034 <create_chain+0x82>
    1032:	94 c0       	rjmp	.+296    	; 0x115c <create_chain+0x1aa>
    1034:	8a 89       	ldd	r24, Y+18	; 0x12
    1036:	9b 89       	ldd	r25, Y+19	; 0x13
    1038:	ac 89       	ldd	r26, Y+20	; 0x14
    103a:	bd 89       	ldd	r27, Y+21	; 0x15
    103c:	c8 16       	cp	r12, r24
    103e:	d9 06       	cpc	r13, r25
    1040:	ea 06       	cpc	r14, r26
    1042:	fb 06       	cpc	r15, r27
    1044:	08 f4       	brcc	.+2      	; 0x1048 <create_chain+0x96>
    1046:	8f c0       	rjmp	.+286    	; 0x1166 <create_chain+0x1b4>
    1048:	53 01       	movw	r10, r6
    104a:	42 01       	movw	r8, r4
    104c:	04 c0       	rjmp	.+8      	; 0x1056 <create_chain+0xa4>
    104e:	81 2c       	mov	r8, r1
    1050:	91 2c       	mov	r9, r1
    1052:	54 01       	movw	r10, r8
    1054:	83 94       	inc	r8
    1056:	75 01       	movw	r14, r10
    1058:	64 01       	movw	r12, r8
    105a:	68 94       	set
    105c:	22 24       	eor	r2, r2
    105e:	21 f8       	bld	r2, 1
    1060:	31 2c       	mov	r3, r1
    1062:	00 e0       	ldi	r16, 0x00	; 0
    1064:	10 e0       	ldi	r17, 0x00	; 0
    1066:	2f ef       	ldi	r18, 0xFF	; 255
    1068:	c2 1a       	sub	r12, r18
    106a:	d2 0a       	sbc	r13, r18
    106c:	e2 0a       	sbc	r14, r18
    106e:	f2 0a       	sbc	r15, r18
    1070:	8a 89       	ldd	r24, Y+18	; 0x12
    1072:	9b 89       	ldd	r25, Y+19	; 0x13
    1074:	ac 89       	ldd	r26, Y+20	; 0x14
    1076:	bd 89       	ldd	r27, Y+21	; 0x15
    1078:	c8 16       	cp	r12, r24
    107a:	d9 06       	cpc	r13, r25
    107c:	ea 06       	cpc	r14, r26
    107e:	fb 06       	cpc	r15, r27
    1080:	58 f0       	brcs	.+22     	; 0x1098 <create_chain+0xe6>
    1082:	82 e0       	ldi	r24, 0x02	; 2
    1084:	88 16       	cp	r8, r24
    1086:	91 04       	cpc	r9, r1
    1088:	a1 04       	cpc	r10, r1
    108a:	b1 04       	cpc	r11, r1
    108c:	08 f4       	brcc	.+2      	; 0x1090 <create_chain+0xde>
    108e:	70 c0       	rjmp	.+224    	; 0x1170 <create_chain+0x1be>
    1090:	c2 2c       	mov	r12, r2
    1092:	d3 2c       	mov	r13, r3
    1094:	e0 2e       	mov	r14, r16
    1096:	f1 2e       	mov	r15, r17
    1098:	b7 01       	movw	r22, r14
    109a:	a6 01       	movw	r20, r12
    109c:	ce 01       	movw	r24, r28
    109e:	ca dc       	rcall	.-1644   	; 0xa34 <get_fat>
    10a0:	61 15       	cp	r22, r1
    10a2:	71 05       	cpc	r23, r1
    10a4:	81 05       	cpc	r24, r1
    10a6:	91 05       	cpc	r25, r1
    10a8:	99 f0       	breq	.+38     	; 0x10d0 <create_chain+0x11e>
    10aa:	6f 3f       	cpi	r22, 0xFF	; 255
    10ac:	2f ef       	ldi	r18, 0xFF	; 255
    10ae:	72 07       	cpc	r23, r18
    10b0:	82 07       	cpc	r24, r18
    10b2:	92 07       	cpc	r25, r18
    10b4:	09 f4       	brne	.+2      	; 0x10b8 <create_chain+0x106>
    10b6:	61 c0       	rjmp	.+194    	; 0x117a <create_chain+0x1c8>
    10b8:	61 30       	cpi	r22, 0x01	; 1
    10ba:	71 05       	cpc	r23, r1
    10bc:	81 05       	cpc	r24, r1
    10be:	91 05       	cpc	r25, r1
    10c0:	09 f4       	brne	.+2      	; 0x10c4 <create_chain+0x112>
    10c2:	60 c0       	rjmp	.+192    	; 0x1184 <create_chain+0x1d2>
    10c4:	c8 14       	cp	r12, r8
    10c6:	d9 04       	cpc	r13, r9
    10c8:	ea 04       	cpc	r14, r10
    10ca:	fb 04       	cpc	r15, r11
    10cc:	61 f6       	brne	.-104    	; 0x1066 <create_chain+0xb4>
    10ce:	5f c0       	rjmp	.+190    	; 0x118e <create_chain+0x1dc>
    10d0:	8c 2c       	mov	r8, r12
    10d2:	9d 2c       	mov	r9, r13
    10d4:	ae 2c       	mov	r10, r14
    10d6:	bf 2c       	mov	r11, r15
    10d8:	0f ef       	ldi	r16, 0xFF	; 255
    10da:	1f ef       	ldi	r17, 0xFF	; 255
    10dc:	2f ef       	ldi	r18, 0xFF	; 255
    10de:	3f e0       	ldi	r19, 0x0F	; 15
    10e0:	b7 01       	movw	r22, r14
    10e2:	a6 01       	movw	r20, r12
    10e4:	ce 01       	movw	r24, r28
    10e6:	44 de       	rcall	.-888    	; 0xd70 <put_fat>
    10e8:	81 11       	cpse	r24, r1
    10ea:	2c c0       	rjmp	.+88     	; 0x1144 <create_chain+0x192>
    10ec:	41 14       	cp	r4, r1
    10ee:	51 04       	cpc	r5, r1
    10f0:	61 04       	cpc	r6, r1
    10f2:	71 04       	cpc	r7, r1
    10f4:	51 f0       	breq	.+20     	; 0x110a <create_chain+0x158>
    10f6:	0c 2d       	mov	r16, r12
    10f8:	1d 2d       	mov	r17, r13
    10fa:	2e 2d       	mov	r18, r14
    10fc:	3f 2d       	mov	r19, r15
    10fe:	b3 01       	movw	r22, r6
    1100:	a2 01       	movw	r20, r4
    1102:	ce 01       	movw	r24, r28
    1104:	35 de       	rcall	.-918    	; 0xd70 <put_fat>
    1106:	81 11       	cpse	r24, r1
    1108:	1d c0       	rjmp	.+58     	; 0x1144 <create_chain+0x192>
    110a:	8a 86       	std	Y+10, r8	; 0x0a
    110c:	9b 86       	std	Y+11, r9	; 0x0b
    110e:	ac 86       	std	Y+12, r10	; 0x0c
    1110:	bd 86       	std	Y+13, r11	; 0x0d
    1112:	8e 85       	ldd	r24, Y+14	; 0x0e
    1114:	9f 85       	ldd	r25, Y+15	; 0x0f
    1116:	a8 89       	ldd	r26, Y+16	; 0x10
    1118:	b9 89       	ldd	r27, Y+17	; 0x11
    111a:	8f 3f       	cpi	r24, 0xFF	; 255
    111c:	2f ef       	ldi	r18, 0xFF	; 255
    111e:	92 07       	cpc	r25, r18
    1120:	a2 07       	cpc	r26, r18
    1122:	b2 07       	cpc	r27, r18
    1124:	c9 f1       	breq	.+114    	; 0x1198 <create_chain+0x1e6>
    1126:	01 97       	sbiw	r24, 0x01	; 1
    1128:	a1 09       	sbc	r26, r1
    112a:	b1 09       	sbc	r27, r1
    112c:	8e 87       	std	Y+14, r24	; 0x0e
    112e:	9f 87       	std	Y+15, r25	; 0x0f
    1130:	a8 8b       	std	Y+16, r26	; 0x10
    1132:	b9 8b       	std	Y+17, r27	; 0x11
    1134:	8d 81       	ldd	r24, Y+5	; 0x05
    1136:	81 60       	ori	r24, 0x01	; 1
    1138:	8d 83       	std	Y+5, r24	; 0x05
    113a:	6c 2d       	mov	r22, r12
    113c:	7d 2d       	mov	r23, r13
    113e:	8e 2d       	mov	r24, r14
    1140:	9f 2d       	mov	r25, r15
    1142:	33 c0       	rjmp	.+102    	; 0x11aa <create_chain+0x1f8>
    1144:	81 30       	cpi	r24, 0x01	; 1
    1146:	69 f1       	breq	.+90     	; 0x11a2 <create_chain+0x1f0>
    1148:	61 e0       	ldi	r22, 0x01	; 1
    114a:	70 e0       	ldi	r23, 0x00	; 0
    114c:	80 e0       	ldi	r24, 0x00	; 0
    114e:	90 e0       	ldi	r25, 0x00	; 0
    1150:	2c c0       	rjmp	.+88     	; 0x11aa <create_chain+0x1f8>
    1152:	61 e0       	ldi	r22, 0x01	; 1
    1154:	70 e0       	ldi	r23, 0x00	; 0
    1156:	80 e0       	ldi	r24, 0x00	; 0
    1158:	90 e0       	ldi	r25, 0x00	; 0
    115a:	27 c0       	rjmp	.+78     	; 0x11aa <create_chain+0x1f8>
    115c:	6f ef       	ldi	r22, 0xFF	; 255
    115e:	7f ef       	ldi	r23, 0xFF	; 255
    1160:	8f ef       	ldi	r24, 0xFF	; 255
    1162:	9f ef       	ldi	r25, 0xFF	; 255
    1164:	22 c0       	rjmp	.+68     	; 0x11aa <create_chain+0x1f8>
    1166:	6c 2d       	mov	r22, r12
    1168:	7d 2d       	mov	r23, r13
    116a:	8e 2d       	mov	r24, r14
    116c:	9f 2d       	mov	r25, r15
    116e:	1d c0       	rjmp	.+58     	; 0x11aa <create_chain+0x1f8>
    1170:	60 e0       	ldi	r22, 0x00	; 0
    1172:	70 e0       	ldi	r23, 0x00	; 0
    1174:	80 e0       	ldi	r24, 0x00	; 0
    1176:	90 e0       	ldi	r25, 0x00	; 0
    1178:	18 c0       	rjmp	.+48     	; 0x11aa <create_chain+0x1f8>
    117a:	6f ef       	ldi	r22, 0xFF	; 255
    117c:	7f ef       	ldi	r23, 0xFF	; 255
    117e:	8f ef       	ldi	r24, 0xFF	; 255
    1180:	9f ef       	ldi	r25, 0xFF	; 255
    1182:	13 c0       	rjmp	.+38     	; 0x11aa <create_chain+0x1f8>
    1184:	61 e0       	ldi	r22, 0x01	; 1
    1186:	70 e0       	ldi	r23, 0x00	; 0
    1188:	80 e0       	ldi	r24, 0x00	; 0
    118a:	90 e0       	ldi	r25, 0x00	; 0
    118c:	0e c0       	rjmp	.+28     	; 0x11aa <create_chain+0x1f8>
    118e:	60 e0       	ldi	r22, 0x00	; 0
    1190:	70 e0       	ldi	r23, 0x00	; 0
    1192:	80 e0       	ldi	r24, 0x00	; 0
    1194:	90 e0       	ldi	r25, 0x00	; 0
    1196:	09 c0       	rjmp	.+18     	; 0x11aa <create_chain+0x1f8>
    1198:	6c 2d       	mov	r22, r12
    119a:	7d 2d       	mov	r23, r13
    119c:	8e 2d       	mov	r24, r14
    119e:	9f 2d       	mov	r25, r15
    11a0:	04 c0       	rjmp	.+8      	; 0x11aa <create_chain+0x1f8>
    11a2:	6f ef       	ldi	r22, 0xFF	; 255
    11a4:	7f ef       	ldi	r23, 0xFF	; 255
    11a6:	8f ef       	ldi	r24, 0xFF	; 255
    11a8:	9f ef       	ldi	r25, 0xFF	; 255
    11aa:	df 91       	pop	r29
    11ac:	cf 91       	pop	r28
    11ae:	1f 91       	pop	r17
    11b0:	0f 91       	pop	r16
    11b2:	ff 90       	pop	r15
    11b4:	ef 90       	pop	r14
    11b6:	df 90       	pop	r13
    11b8:	cf 90       	pop	r12
    11ba:	bf 90       	pop	r11
    11bc:	af 90       	pop	r10
    11be:	9f 90       	pop	r9
    11c0:	8f 90       	pop	r8
    11c2:	7f 90       	pop	r7
    11c4:	6f 90       	pop	r6
    11c6:	5f 90       	pop	r5
    11c8:	4f 90       	pop	r4
    11ca:	3f 90       	pop	r3
    11cc:	2f 90       	pop	r2
    11ce:	08 95       	ret

000011d0 <dir_next>:
    11d0:	7f 92       	push	r7
    11d2:	8f 92       	push	r8
    11d4:	9f 92       	push	r9
    11d6:	af 92       	push	r10
    11d8:	bf 92       	push	r11
    11da:	cf 92       	push	r12
    11dc:	df 92       	push	r13
    11de:	ef 92       	push	r14
    11e0:	ff 92       	push	r15
    11e2:	0f 93       	push	r16
    11e4:	1f 93       	push	r17
    11e6:	cf 93       	push	r28
    11e8:	df 93       	push	r29
    11ea:	dc 01       	movw	r26, r24
    11ec:	14 96       	adiw	r26, 0x04	; 4
    11ee:	cd 91       	ld	r28, X+
    11f0:	dc 91       	ld	r29, X
    11f2:	15 97       	sbiw	r26, 0x05	; 5
    11f4:	21 96       	adiw	r28, 0x01	; 1
    11f6:	09 f4       	brne	.+2      	; 0x11fa <dir_next+0x2a>
    11f8:	03 c1       	rjmp	.+518    	; 0x1400 <dir_next+0x230>
    11fa:	1e 96       	adiw	r26, 0x0e	; 14
    11fc:	8d 90       	ld	r8, X+
    11fe:	9d 90       	ld	r9, X+
    1200:	ad 90       	ld	r10, X+
    1202:	bc 90       	ld	r11, X
    1204:	51 97       	sbiw	r26, 0x11	; 17
    1206:	81 14       	cp	r8, r1
    1208:	91 04       	cpc	r9, r1
    120a:	a1 04       	cpc	r10, r1
    120c:	b1 04       	cpc	r11, r1
    120e:	09 f4       	brne	.+2      	; 0x1212 <dir_next+0x42>
    1210:	f9 c0       	rjmp	.+498    	; 0x1404 <dir_next+0x234>
    1212:	7b 01       	movw	r14, r22
    1214:	8c 01       	movw	r16, r24
    1216:	6e 01       	movw	r12, r28
    1218:	bf e0       	ldi	r27, 0x0F	; 15
    121a:	cb 22       	and	r12, r27
    121c:	dd 24       	eor	r13, r13
    121e:	c1 14       	cp	r12, r1
    1220:	d1 04       	cpc	r13, r1
    1222:	09 f0       	breq	.+2      	; 0x1226 <dir_next+0x56>
    1224:	d1 c0       	rjmp	.+418    	; 0x13c8 <dir_next+0x1f8>
    1226:	ef ef       	ldi	r30, 0xFF	; 255
    1228:	8e 1a       	sub	r8, r30
    122a:	9e 0a       	sbc	r9, r30
    122c:	ae 0a       	sbc	r10, r30
    122e:	be 0a       	sbc	r11, r30
    1230:	dc 01       	movw	r26, r24
    1232:	1e 96       	adiw	r26, 0x0e	; 14
    1234:	8d 92       	st	X+, r8
    1236:	9d 92       	st	X+, r9
    1238:	ad 92       	st	X+, r10
    123a:	bc 92       	st	X, r11
    123c:	51 97       	sbiw	r26, 0x11	; 17
    123e:	1a 96       	adiw	r26, 0x0a	; 10
    1240:	4d 91       	ld	r20, X+
    1242:	5d 91       	ld	r21, X+
    1244:	6d 91       	ld	r22, X+
    1246:	7c 91       	ld	r23, X
    1248:	1d 97       	sbiw	r26, 0x0d	; 13
    124a:	41 15       	cp	r20, r1
    124c:	51 05       	cpc	r21, r1
    124e:	61 05       	cpc	r22, r1
    1250:	71 05       	cpc	r23, r1
    1252:	49 f4       	brne	.+18     	; 0x1266 <dir_next+0x96>
    1254:	ed 91       	ld	r30, X+
    1256:	fc 91       	ld	r31, X
    1258:	80 85       	ldd	r24, Z+8	; 0x08
    125a:	91 85       	ldd	r25, Z+9	; 0x09
    125c:	c8 17       	cp	r28, r24
    125e:	d9 07       	cpc	r29, r25
    1260:	08 f0       	brcs	.+2      	; 0x1264 <dir_next+0x94>
    1262:	d2 c0       	rjmp	.+420    	; 0x1408 <dir_next+0x238>
    1264:	b1 c0       	rjmp	.+354    	; 0x13c8 <dir_next+0x1f8>
    1266:	dc 01       	movw	r26, r24
    1268:	ed 91       	ld	r30, X+
    126a:	fc 91       	ld	r31, X
    126c:	22 81       	ldd	r18, Z+2	; 0x02
    126e:	30 e0       	ldi	r19, 0x00	; 0
    1270:	21 50       	subi	r18, 0x01	; 1
    1272:	31 09       	sbc	r19, r1
    1274:	ce 01       	movw	r24, r28
    1276:	92 95       	swap	r25
    1278:	82 95       	swap	r24
    127a:	8f 70       	andi	r24, 0x0F	; 15
    127c:	89 27       	eor	r24, r25
    127e:	9f 70       	andi	r25, 0x0F	; 15
    1280:	89 27       	eor	r24, r25
    1282:	28 23       	and	r18, r24
    1284:	39 23       	and	r19, r25
    1286:	23 2b       	or	r18, r19
    1288:	09 f0       	breq	.+2      	; 0x128c <dir_next+0xbc>
    128a:	9e c0       	rjmp	.+316    	; 0x13c8 <dir_next+0x1f8>
    128c:	cf 01       	movw	r24, r30
    128e:	d2 db       	rcall	.-2140   	; 0xa34 <get_fat>
    1290:	4b 01       	movw	r8, r22
    1292:	5c 01       	movw	r10, r24
    1294:	62 30       	cpi	r22, 0x02	; 2
    1296:	71 05       	cpc	r23, r1
    1298:	81 05       	cpc	r24, r1
    129a:	91 05       	cpc	r25, r1
    129c:	08 f4       	brcc	.+2      	; 0x12a0 <dir_next+0xd0>
    129e:	b6 c0       	rjmp	.+364    	; 0x140c <dir_next+0x23c>
    12a0:	6f 3f       	cpi	r22, 0xFF	; 255
    12a2:	7f 4f       	sbci	r23, 0xFF	; 255
    12a4:	8f 4f       	sbci	r24, 0xFF	; 255
    12a6:	9f 4f       	sbci	r25, 0xFF	; 255
    12a8:	09 f4       	brne	.+2      	; 0x12ac <dir_next+0xdc>
    12aa:	b2 c0       	rjmp	.+356    	; 0x1410 <dir_next+0x240>
    12ac:	d8 01       	movw	r26, r16
    12ae:	ed 91       	ld	r30, X+
    12b0:	fc 91       	ld	r31, X
    12b2:	82 89       	ldd	r24, Z+18	; 0x12
    12b4:	93 89       	ldd	r25, Z+19	; 0x13
    12b6:	a4 89       	ldd	r26, Z+20	; 0x14
    12b8:	b5 89       	ldd	r27, Z+21	; 0x15
    12ba:	88 16       	cp	r8, r24
    12bc:	99 06       	cpc	r9, r25
    12be:	aa 06       	cpc	r10, r26
    12c0:	bb 06       	cpc	r11, r27
    12c2:	08 f4       	brcc	.+2      	; 0x12c6 <dir_next+0xf6>
    12c4:	70 c0       	rjmp	.+224    	; 0x13a6 <dir_next+0x1d6>
    12c6:	ef 28       	or	r14, r15
    12c8:	09 f4       	brne	.+2      	; 0x12cc <dir_next+0xfc>
    12ca:	a4 c0       	rjmp	.+328    	; 0x1414 <dir_next+0x244>
    12cc:	d8 01       	movw	r26, r16
    12ce:	1a 96       	adiw	r26, 0x0a	; 10
    12d0:	4d 91       	ld	r20, X+
    12d2:	5d 91       	ld	r21, X+
    12d4:	6d 91       	ld	r22, X+
    12d6:	7c 91       	ld	r23, X
    12d8:	1d 97       	sbiw	r26, 0x0d	; 13
    12da:	cf 01       	movw	r24, r30
    12dc:	6a de       	rcall	.-812    	; 0xfb2 <create_chain>
    12de:	4b 01       	movw	r8, r22
    12e0:	5c 01       	movw	r10, r24
    12e2:	61 15       	cp	r22, r1
    12e4:	71 05       	cpc	r23, r1
    12e6:	81 05       	cpc	r24, r1
    12e8:	91 05       	cpc	r25, r1
    12ea:	09 f4       	brne	.+2      	; 0x12ee <dir_next+0x11e>
    12ec:	95 c0       	rjmp	.+298    	; 0x1418 <dir_next+0x248>
    12ee:	61 30       	cpi	r22, 0x01	; 1
    12f0:	71 05       	cpc	r23, r1
    12f2:	81 05       	cpc	r24, r1
    12f4:	91 05       	cpc	r25, r1
    12f6:	09 f4       	brne	.+2      	; 0x12fa <dir_next+0x12a>
    12f8:	91 c0       	rjmp	.+290    	; 0x141c <dir_next+0x24c>
    12fa:	6f 3f       	cpi	r22, 0xFF	; 255
    12fc:	7f 4f       	sbci	r23, 0xFF	; 255
    12fe:	8f 4f       	sbci	r24, 0xFF	; 255
    1300:	9f 4f       	sbci	r25, 0xFF	; 255
    1302:	09 f4       	brne	.+2      	; 0x1306 <dir_next+0x136>
    1304:	8d c0       	rjmp	.+282    	; 0x1420 <dir_next+0x250>
    1306:	d8 01       	movw	r26, r16
    1308:	8d 91       	ld	r24, X+
    130a:	9c 91       	ld	r25, X
    130c:	0e 94 fd 00 	call	0x1fa	; 0x1fa <sync_window>
    1310:	81 11       	cpse	r24, r1
    1312:	88 c0       	rjmp	.+272    	; 0x1424 <dir_next+0x254>
    1314:	f8 01       	movw	r30, r16
    1316:	80 81       	ld	r24, Z
    1318:	91 81       	ldd	r25, Z+1	; 0x01
    131a:	fc 01       	movw	r30, r24
    131c:	be 96       	adiw	r30, 0x2e	; 46
    131e:	82 5d       	subi	r24, 0xD2	; 210
    1320:	9d 4f       	sbci	r25, 0xFD	; 253
    1322:	11 92       	st	Z+, r1
    1324:	e8 17       	cp	r30, r24
    1326:	f9 07       	cpc	r31, r25
    1328:	e1 f7       	brne	.-8      	; 0x1322 <dir_next+0x152>
    132a:	d8 01       	movw	r26, r16
    132c:	ed 90       	ld	r14, X+
    132e:	fc 90       	ld	r15, X
    1330:	b5 01       	movw	r22, r10
    1332:	a4 01       	movw	r20, r8
    1334:	c7 01       	movw	r24, r14
    1336:	50 db       	rcall	.-2400   	; 0x9d8 <clust2sect>
    1338:	f7 01       	movw	r30, r14
    133a:	62 a7       	std	Z+42, r22	; 0x2a
    133c:	73 a7       	std	Z+43, r23	; 0x2b
    133e:	84 a7       	std	Z+44, r24	; 0x2c
    1340:	95 a7       	std	Z+45, r25	; 0x2d
    1342:	e1 2c       	mov	r14, r1
    1344:	f1 2c       	mov	r15, r1
    1346:	77 24       	eor	r7, r7
    1348:	73 94       	inc	r7
    134a:	19 c0       	rjmp	.+50     	; 0x137e <dir_next+0x1ae>
    134c:	74 82       	std	Z+4, r7	; 0x04
    134e:	d8 01       	movw	r26, r16
    1350:	8d 91       	ld	r24, X+
    1352:	9c 91       	ld	r25, X
    1354:	0e 94 fd 00 	call	0x1fa	; 0x1fa <sync_window>
    1358:	81 11       	cpse	r24, r1
    135a:	66 c0       	rjmp	.+204    	; 0x1428 <dir_next+0x258>
    135c:	d8 01       	movw	r26, r16
    135e:	ed 91       	ld	r30, X+
    1360:	fc 91       	ld	r31, X
    1362:	82 a5       	ldd	r24, Z+42	; 0x2a
    1364:	93 a5       	ldd	r25, Z+43	; 0x2b
    1366:	a4 a5       	ldd	r26, Z+44	; 0x2c
    1368:	b5 a5       	ldd	r27, Z+45	; 0x2d
    136a:	01 96       	adiw	r24, 0x01	; 1
    136c:	a1 1d       	adc	r26, r1
    136e:	b1 1d       	adc	r27, r1
    1370:	82 a7       	std	Z+42, r24	; 0x2a
    1372:	93 a7       	std	Z+43, r25	; 0x2b
    1374:	a4 a7       	std	Z+44, r26	; 0x2c
    1376:	b5 a7       	std	Z+45, r27	; 0x2d
    1378:	bf ef       	ldi	r27, 0xFF	; 255
    137a:	eb 1a       	sub	r14, r27
    137c:	fb 0a       	sbc	r15, r27
    137e:	d8 01       	movw	r26, r16
    1380:	ed 91       	ld	r30, X+
    1382:	fc 91       	ld	r31, X
    1384:	82 81       	ldd	r24, Z+2	; 0x02
    1386:	90 e0       	ldi	r25, 0x00	; 0
    1388:	e8 16       	cp	r14, r24
    138a:	f9 06       	cpc	r15, r25
    138c:	f8 f2       	brcs	.-66     	; 0x134c <dir_next+0x17c>
    138e:	82 a5       	ldd	r24, Z+42	; 0x2a
    1390:	93 a5       	ldd	r25, Z+43	; 0x2b
    1392:	a4 a5       	ldd	r26, Z+44	; 0x2c
    1394:	b5 a5       	ldd	r27, Z+45	; 0x2d
    1396:	8e 19       	sub	r24, r14
    1398:	9f 09       	sbc	r25, r15
    139a:	a1 09       	sbc	r26, r1
    139c:	b1 09       	sbc	r27, r1
    139e:	82 a7       	std	Z+42, r24	; 0x2a
    13a0:	93 a7       	std	Z+43, r25	; 0x2b
    13a2:	a4 a7       	std	Z+44, r26	; 0x2c
    13a4:	b5 a7       	std	Z+45, r27	; 0x2d
    13a6:	f8 01       	movw	r30, r16
    13a8:	82 86       	std	Z+10, r8	; 0x0a
    13aa:	93 86       	std	Z+11, r9	; 0x0b
    13ac:	a4 86       	std	Z+12, r10	; 0x0c
    13ae:	b5 86       	std	Z+13, r11	; 0x0d
    13b0:	b5 01       	movw	r22, r10
    13b2:	a4 01       	movw	r20, r8
    13b4:	80 81       	ld	r24, Z
    13b6:	91 81       	ldd	r25, Z+1	; 0x01
    13b8:	0f db       	rcall	.-2530   	; 0x9d8 <clust2sect>
    13ba:	d8 01       	movw	r26, r16
    13bc:	1e 96       	adiw	r26, 0x0e	; 14
    13be:	6d 93       	st	X+, r22
    13c0:	7d 93       	st	X+, r23
    13c2:	8d 93       	st	X+, r24
    13c4:	9c 93       	st	X, r25
    13c6:	51 97       	sbiw	r26, 0x11	; 17
    13c8:	f8 01       	movw	r30, r16
    13ca:	d5 83       	std	Z+5, r29	; 0x05
    13cc:	c4 83       	std	Z+4, r28	; 0x04
    13ce:	cc 0c       	add	r12, r12
    13d0:	dd 1c       	adc	r13, r13
    13d2:	cc 0c       	add	r12, r12
    13d4:	dd 1c       	adc	r13, r13
    13d6:	cc 0c       	add	r12, r12
    13d8:	dd 1c       	adc	r13, r13
    13da:	cc 0c       	add	r12, r12
    13dc:	dd 1c       	adc	r13, r13
    13de:	cc 0c       	add	r12, r12
    13e0:	dd 1c       	adc	r13, r13
    13e2:	fe e2       	ldi	r31, 0x2E	; 46
    13e4:	cf 0e       	add	r12, r31
    13e6:	d1 1c       	adc	r13, r1
    13e8:	d8 01       	movw	r26, r16
    13ea:	8d 91       	ld	r24, X+
    13ec:	9c 91       	ld	r25, X
    13ee:	11 97       	sbiw	r26, 0x01	; 1
    13f0:	c8 0e       	add	r12, r24
    13f2:	d9 1e       	adc	r13, r25
    13f4:	53 96       	adiw	r26, 0x13	; 19
    13f6:	dc 92       	st	X, r13
    13f8:	ce 92       	st	-X, r12
    13fa:	52 97       	sbiw	r26, 0x12	; 18
    13fc:	80 e0       	ldi	r24, 0x00	; 0
    13fe:	15 c0       	rjmp	.+42     	; 0x142a <dir_next+0x25a>
    1400:	84 e0       	ldi	r24, 0x04	; 4
    1402:	13 c0       	rjmp	.+38     	; 0x142a <dir_next+0x25a>
    1404:	84 e0       	ldi	r24, 0x04	; 4
    1406:	11 c0       	rjmp	.+34     	; 0x142a <dir_next+0x25a>
    1408:	84 e0       	ldi	r24, 0x04	; 4
    140a:	0f c0       	rjmp	.+30     	; 0x142a <dir_next+0x25a>
    140c:	82 e0       	ldi	r24, 0x02	; 2
    140e:	0d c0       	rjmp	.+26     	; 0x142a <dir_next+0x25a>
    1410:	81 e0       	ldi	r24, 0x01	; 1
    1412:	0b c0       	rjmp	.+22     	; 0x142a <dir_next+0x25a>
    1414:	84 e0       	ldi	r24, 0x04	; 4
    1416:	09 c0       	rjmp	.+18     	; 0x142a <dir_next+0x25a>
    1418:	87 e0       	ldi	r24, 0x07	; 7
    141a:	07 c0       	rjmp	.+14     	; 0x142a <dir_next+0x25a>
    141c:	82 e0       	ldi	r24, 0x02	; 2
    141e:	05 c0       	rjmp	.+10     	; 0x142a <dir_next+0x25a>
    1420:	81 e0       	ldi	r24, 0x01	; 1
    1422:	03 c0       	rjmp	.+6      	; 0x142a <dir_next+0x25a>
    1424:	81 e0       	ldi	r24, 0x01	; 1
    1426:	01 c0       	rjmp	.+2      	; 0x142a <dir_next+0x25a>
    1428:	81 e0       	ldi	r24, 0x01	; 1
    142a:	df 91       	pop	r29
    142c:	cf 91       	pop	r28
    142e:	1f 91       	pop	r17
    1430:	0f 91       	pop	r16
    1432:	ff 90       	pop	r15
    1434:	ef 90       	pop	r14
    1436:	df 90       	pop	r13
    1438:	cf 90       	pop	r12
    143a:	bf 90       	pop	r11
    143c:	af 90       	pop	r10
    143e:	9f 90       	pop	r9
    1440:	8f 90       	pop	r8
    1442:	7f 90       	pop	r7
    1444:	08 95       	ret

00001446 <follow_path>:
    1446:	2f 92       	push	r2
    1448:	3f 92       	push	r3
    144a:	4f 92       	push	r4
    144c:	5f 92       	push	r5
    144e:	6f 92       	push	r6
    1450:	7f 92       	push	r7
    1452:	8f 92       	push	r8
    1454:	9f 92       	push	r9
    1456:	af 92       	push	r10
    1458:	bf 92       	push	r11
    145a:	cf 92       	push	r12
    145c:	df 92       	push	r13
    145e:	ef 92       	push	r14
    1460:	ff 92       	push	r15
    1462:	0f 93       	push	r16
    1464:	1f 93       	push	r17
    1466:	cf 93       	push	r28
    1468:	df 93       	push	r29
    146a:	00 d0       	rcall	.+0      	; 0x146c <follow_path+0x26>
    146c:	1f 92       	push	r1
    146e:	1f 92       	push	r1
    1470:	cd b7       	in	r28, 0x3d	; 61
    1472:	de b7       	in	r29, 0x3e	; 62
    1474:	8c 01       	movw	r16, r24
    1476:	7b 01       	movw	r14, r22
    1478:	db 01       	movw	r26, r22
    147a:	8c 91       	ld	r24, X
    147c:	8f 32       	cpi	r24, 0x2F	; 47
    147e:	11 f0       	breq	.+4      	; 0x1484 <follow_path+0x3e>
    1480:	8c 35       	cpi	r24, 0x5C	; 92
    1482:	19 f4       	brne	.+6      	; 0x148a <follow_path+0x44>
    1484:	bf ef       	ldi	r27, 0xFF	; 255
    1486:	eb 1a       	sub	r14, r27
    1488:	fb 0a       	sbc	r15, r27
    148a:	f8 01       	movw	r30, r16
    148c:	16 82       	std	Z+6, r1	; 0x06
    148e:	17 82       	std	Z+7, r1	; 0x07
    1490:	10 86       	std	Z+8, r1	; 0x08
    1492:	11 86       	std	Z+9, r1	; 0x09
    1494:	d7 01       	movw	r26, r14
    1496:	8c 91       	ld	r24, X
    1498:	80 32       	cpi	r24, 0x20	; 32
    149a:	40 f4       	brcc	.+16     	; 0x14ac <follow_path+0x66>
    149c:	60 e0       	ldi	r22, 0x00	; 0
    149e:	70 e0       	ldi	r23, 0x00	; 0
    14a0:	c8 01       	movw	r24, r16
    14a2:	ab db       	rcall	.-2218   	; 0xbfa <dir_sdi>
    14a4:	f8 01       	movw	r30, r16
    14a6:	13 8a       	std	Z+19, r1	; 0x13
    14a8:	12 8a       	std	Z+18, r1	; 0x12
    14aa:	44 c1       	rjmp	.+648    	; 0x1734 <follow_path+0x2ee>
    14ac:	68 94       	set
    14ae:	bb 24       	eor	r11, r11
    14b0:	b5 f8       	bld	r11, 5
    14b2:	a1 2c       	mov	r10, r1
    14b4:	81 2c       	mov	r8, r1
    14b6:	68 94       	set
    14b8:	77 24       	eor	r7, r7
    14ba:	73 f8       	bld	r7, 3
    14bc:	51 2c       	mov	r5, r1
    14be:	61 2c       	mov	r6, r1
    14c0:	7a 82       	std	Y+2, r7	; 0x02
    14c2:	5b 82       	std	Y+3, r5	; 0x03
    14c4:	0f 2e       	mov	r0, r31
    14c6:	f2 e0       	ldi	r31, 0x02	; 2
    14c8:	2f 2e       	mov	r2, r31
    14ca:	f2 e0       	ldi	r31, 0x02	; 2
    14cc:	3f 2e       	mov	r3, r31
    14ce:	f0 2d       	mov	r31, r0
    14d0:	1d 83       	std	Y+5, r17	; 0x05
    14d2:	0c 83       	std	Y+4, r16	; 0x04
    14d4:	59 82       	std	Y+1, r5	; 0x01
    14d6:	f7 01       	movw	r30, r14
    14d8:	2c 81       	ldd	r18, Y+4	; 0x04
    14da:	3d 81       	ldd	r19, Y+5	; 0x05
    14dc:	af 01       	movw	r20, r30
    14de:	81 91       	ld	r24, Z+
    14e0:	8f 32       	cpi	r24, 0x2F	; 47
    14e2:	e1 f3       	breq	.-8      	; 0x14dc <follow_path+0x96>
    14e4:	8c 35       	cpi	r24, 0x5C	; 92
    14e6:	d1 f3       	breq	.-12     	; 0x14dc <follow_path+0x96>
    14e8:	3d 83       	std	Y+5, r19	; 0x05
    14ea:	2c 83       	std	Y+4, r18	; 0x04
    14ec:	f9 01       	movw	r30, r18
    14ee:	a4 89       	ldd	r26, Z+20	; 0x14
    14f0:	b5 89       	ldd	r27, Z+21	; 0x15
    14f2:	fd 01       	movw	r30, r26
    14f4:	cd 01       	movw	r24, r26
    14f6:	0b 96       	adiw	r24, 0x0b	; 11
    14f8:	b1 92       	st	Z+, r11
    14fa:	e8 17       	cp	r30, r24
    14fc:	f9 07       	cpc	r31, r25
    14fe:	e1 f7       	brne	.-8      	; 0x14f8 <follow_path+0xb2>
    1500:	3d 83       	std	Y+5, r19	; 0x05
    1502:	2c 83       	std	Y+4, r18	; 0x04
    1504:	ca 2c       	mov	r12, r10
    1506:	d8 2c       	mov	r13, r8
    1508:	2a 2d       	mov	r18, r10
    150a:	38 2d       	mov	r19, r8
    150c:	47 2c       	mov	r4, r7
    150e:	59 80       	ldd	r5, Y+1	; 0x01
    1510:	96 2c       	mov	r9, r6
    1512:	8a 01       	movw	r16, r20
    1514:	8c 81       	ldd	r24, Y+4	; 0x04
    1516:	9d 81       	ldd	r25, Y+5	; 0x05
    1518:	5d 83       	std	Y+5, r21	; 0x05
    151a:	4c 83       	std	Y+4, r20	; 0x04
    151c:	7c 01       	movw	r14, r24
    151e:	2f 5f       	subi	r18, 0xFF	; 255
    1520:	3f 4f       	sbci	r19, 0xFF	; 255
    1522:	ec 81       	ldd	r30, Y+4	; 0x04
    1524:	fd 81       	ldd	r31, Y+5	; 0x05
    1526:	61 91       	ld	r22, Z+
    1528:	fd 83       	std	Y+5, r31	; 0x05
    152a:	ec 83       	std	Y+4, r30	; 0x04
    152c:	61 32       	cpi	r22, 0x21	; 33
    152e:	08 f4       	brcc	.+2      	; 0x1532 <follow_path+0xec>
    1530:	e7 c0       	rjmp	.+462    	; 0x1700 <follow_path+0x2ba>
    1532:	6f 32       	cpi	r22, 0x2F	; 47
    1534:	09 f4       	brne	.+2      	; 0x1538 <follow_path+0xf2>
    1536:	dd c0       	rjmp	.+442    	; 0x16f2 <follow_path+0x2ac>
    1538:	6c 35       	cpi	r22, 0x5C	; 92
    153a:	09 f4       	brne	.+2      	; 0x153e <follow_path+0xf8>
    153c:	da c0       	rjmp	.+436    	; 0x16f2 <follow_path+0x2ac>
    153e:	6e 32       	cpi	r22, 0x2E	; 46
    1540:	09 f4       	brne	.+2      	; 0x1544 <follow_path+0xfe>
    1542:	c4 c0       	rjmp	.+392    	; 0x16cc <follow_path+0x286>
    1544:	c4 14       	cp	r12, r4
    1546:	d5 04       	cpc	r13, r5
    1548:	08 f0       	brcs	.+2      	; 0x154c <follow_path+0x106>
    154a:	b4 c0       	rjmp	.+360    	; 0x16b4 <follow_path+0x26e>
    154c:	0a c0       	rjmp	.+20     	; 0x1562 <follow_path+0x11c>
    154e:	99 0c       	add	r9, r9
    1550:	99 0c       	add	r9, r9
    1552:	ca 80       	ldd	r12, Y+2	; 0x02
    1554:	db 80       	ldd	r13, Y+3	; 0x03
    1556:	0f 2e       	mov	r0, r31
    1558:	fb e0       	ldi	r31, 0x0B	; 11
    155a:	4f 2e       	mov	r4, r31
    155c:	f0 2d       	mov	r31, r0
    155e:	51 2c       	mov	r5, r1
    1560:	de cf       	rjmp	.-68     	; 0x151e <follow_path+0xd8>
    1562:	66 23       	and	r22, r22
    1564:	0c f0       	brlt	.+2      	; 0x1568 <follow_path+0x122>
    1566:	b8 c0       	rjmp	.+368    	; 0x16d8 <follow_path+0x292>
    1568:	f9 2d       	mov	r31, r9
    156a:	f3 60       	ori	r31, 0x03	; 3
    156c:	9f 2e       	mov	r9, r31
    156e:	e6 2f       	mov	r30, r22
    1570:	f0 e0       	ldi	r31, 0x00	; 0
    1572:	e0 57       	subi	r30, 0x70	; 112
    1574:	fe 4f       	sbci	r31, 0xFE	; 254
    1576:	60 81       	ld	r22, Z
    1578:	af c0       	rjmp	.+350    	; 0x16d8 <follow_path+0x292>
    157a:	81 91       	ld	r24, Z+
    157c:	88 23       	and	r24, r24
    157e:	09 f4       	brne	.+2      	; 0x1582 <follow_path+0x13c>
    1580:	b2 c0       	rjmp	.+356    	; 0x16e6 <follow_path+0x2a0>
    1582:	90 e0       	ldi	r25, 0x00	; 0
    1584:	48 17       	cp	r20, r24
    1586:	59 07       	cpc	r21, r25
    1588:	c1 f7       	brne	.-16     	; 0x157a <follow_path+0x134>
    158a:	86 e0       	ldi	r24, 0x06	; 6
    158c:	d3 c0       	rjmp	.+422    	; 0x1734 <follow_path+0x2ee>
    158e:	89 2d       	mov	r24, r9
    1590:	82 60       	ori	r24, 0x02	; 2
    1592:	98 2e       	mov	r9, r24
    1594:	08 c0       	rjmp	.+16     	; 0x15a6 <follow_path+0x160>
    1596:	8f e9       	ldi	r24, 0x9F	; 159
    1598:	86 0f       	add	r24, r22
    159a:	8a 31       	cpi	r24, 0x1A	; 26
    159c:	20 f4       	brcc	.+8      	; 0x15a6 <follow_path+0x160>
    159e:	99 2d       	mov	r25, r9
    15a0:	91 60       	ori	r25, 0x01	; 1
    15a2:	99 2e       	mov	r9, r25
    15a4:	60 52       	subi	r22, 0x20	; 32
    15a6:	fd 01       	movw	r30, r26
    15a8:	ec 0d       	add	r30, r12
    15aa:	fd 1d       	adc	r31, r13
    15ac:	60 83       	st	Z, r22
    15ae:	f6 01       	movw	r30, r12
    15b0:	31 96       	adiw	r30, 0x01	; 1
    15b2:	6f 01       	movw	r12, r30
    15b4:	b4 cf       	rjmp	.-152    	; 0x151e <follow_path+0xd8>
    15b6:	cd 28       	or	r12, r13
    15b8:	09 f4       	brne	.+2      	; 0x15bc <follow_path+0x176>
    15ba:	7e c0       	rjmp	.+252    	; 0x16b8 <follow_path+0x272>
    15bc:	9c 91       	ld	r25, X
    15be:	95 3e       	cpi	r25, 0xE5	; 229
    15c0:	11 f4       	brne	.+4      	; 0x15c6 <follow_path+0x180>
    15c2:	f5 e0       	ldi	r31, 0x05	; 5
    15c4:	fc 93       	st	X, r31
    15c6:	98 e0       	ldi	r25, 0x08	; 8
    15c8:	49 16       	cp	r4, r25
    15ca:	51 04       	cpc	r5, r1
    15cc:	11 f4       	brne	.+4      	; 0x15d2 <follow_path+0x18c>
    15ce:	99 0c       	add	r9, r9
    15d0:	99 0c       	add	r9, r9
    15d2:	99 2d       	mov	r25, r9
    15d4:	93 70       	andi	r25, 0x03	; 3
    15d6:	91 30       	cpi	r25, 0x01	; 1
    15d8:	09 f4       	brne	.+2      	; 0x15dc <follow_path+0x196>
    15da:	80 61       	ori	r24, 0x10	; 16
    15dc:	99 2d       	mov	r25, r9
    15de:	9c 70       	andi	r25, 0x0C	; 12
    15e0:	94 30       	cpi	r25, 0x04	; 4
    15e2:	09 f4       	brne	.+2      	; 0x15e6 <follow_path+0x1a0>
    15e4:	88 60       	ori	r24, 0x08	; 8
    15e6:	1b 96       	adiw	r26, 0x0b	; 11
    15e8:	8c 93       	st	X, r24
    15ea:	6a 2d       	mov	r22, r10
    15ec:	78 2d       	mov	r23, r8
    15ee:	8c 81       	ldd	r24, Y+4	; 0x04
    15f0:	9d 81       	ldd	r25, Y+5	; 0x05
    15f2:	03 db       	rcall	.-2554   	; 0xbfa <dir_sdi>
    15f4:	81 11       	cpse	r24, r1
    15f6:	93 c0       	rjmp	.+294    	; 0x171e <follow_path+0x2d8>
    15f8:	0c 81       	ldd	r16, Y+4	; 0x04
    15fa:	1d 81       	ldd	r17, Y+5	; 0x05
    15fc:	d8 01       	movw	r26, r16
    15fe:	1e 96       	adiw	r26, 0x0e	; 14
    1600:	4d 91       	ld	r20, X+
    1602:	5d 91       	ld	r21, X+
    1604:	6d 91       	ld	r22, X+
    1606:	7c 91       	ld	r23, X
    1608:	51 97       	sbiw	r26, 0x11	; 17
    160a:	8d 91       	ld	r24, X+
    160c:	9c 91       	ld	r25, X
    160e:	0e 94 68 01 	call	0x2d0	; 0x2d0 <move_window>
    1612:	81 11       	cpse	r24, r1
    1614:	86 c0       	rjmp	.+268    	; 0x1722 <follow_path+0x2dc>
    1616:	f8 01       	movw	r30, r16
    1618:	42 89       	ldd	r20, Z+18	; 0x12
    161a:	53 89       	ldd	r21, Z+19	; 0x13
    161c:	da 01       	movw	r26, r20
    161e:	9c 91       	ld	r25, X
    1620:	99 23       	and	r25, r25
    1622:	e9 f0       	breq	.+58     	; 0x165e <follow_path+0x218>
    1624:	1b 96       	adiw	r26, 0x0b	; 11
    1626:	9c 91       	ld	r25, X
    1628:	93 fd       	sbrc	r25, 3
    162a:	12 c0       	rjmp	.+36     	; 0x1650 <follow_path+0x20a>
    162c:	64 89       	ldd	r22, Z+20	; 0x14
    162e:	75 89       	ldd	r23, Z+21	; 0x15
    1630:	fa 01       	movw	r30, r20
    1632:	db 01       	movw	r26, r22
    1634:	9a 01       	movw	r18, r20
    1636:	25 5f       	subi	r18, 0xF5	; 245
    1638:	3f 4f       	sbci	r19, 0xFF	; 255
    163a:	68 01       	movw	r12, r16
    163c:	04 c0       	rjmp	.+8      	; 0x1646 <follow_path+0x200>
    163e:	e2 17       	cp	r30, r18
    1640:	f3 07       	cpc	r31, r19
    1642:	09 f4       	brne	.+2      	; 0x1646 <follow_path+0x200>
    1644:	64 c0       	rjmp	.+200    	; 0x170e <follow_path+0x2c8>
    1646:	11 91       	ld	r17, Z+
    1648:	9d 91       	ld	r25, X+
    164a:	19 17       	cp	r17, r25
    164c:	c1 f3       	breq	.-16     	; 0x163e <follow_path+0x1f8>
    164e:	86 01       	movw	r16, r12
    1650:	6a 2d       	mov	r22, r10
    1652:	78 2d       	mov	r23, r8
    1654:	c8 01       	movw	r24, r16
    1656:	bc dd       	rcall	.-1160   	; 0x11d0 <dir_next>
    1658:	88 23       	and	r24, r24
    165a:	81 f2       	breq	.-96     	; 0x15fc <follow_path+0x1b6>
    165c:	62 c0       	rjmp	.+196    	; 0x1722 <follow_path+0x2dc>
    165e:	04 88       	ldd	r0, Z+20	; 0x14
    1660:	f5 89       	ldd	r31, Z+21	; 0x15
    1662:	e0 2d       	mov	r30, r0
    1664:	93 85       	ldd	r25, Z+11	; 0x0b
    1666:	92 fd       	sbrc	r25, 2
    1668:	29 c0       	rjmp	.+82     	; 0x16bc <follow_path+0x276>
    166a:	85 e0       	ldi	r24, 0x05	; 5
    166c:	63 c0       	rjmp	.+198    	; 0x1734 <follow_path+0x2ee>
    166e:	fa 01       	movw	r30, r20
    1670:	83 85       	ldd	r24, Z+11	; 0x0b
    1672:	84 ff       	sbrs	r24, 4
    1674:	25 c0       	rjmp	.+74     	; 0x16c0 <follow_path+0x27a>
    1676:	82 8d       	ldd	r24, Z+26	; 0x1a
    1678:	93 8d       	ldd	r25, Z+27	; 0x1b
    167a:	a0 e0       	ldi	r26, 0x00	; 0
    167c:	b0 e0       	ldi	r27, 0x00	; 0
    167e:	ec 81       	ldd	r30, Y+4	; 0x04
    1680:	fd 81       	ldd	r31, Y+5	; 0x05
    1682:	20 81       	ld	r18, Z
    1684:	31 81       	ldd	r19, Z+1	; 0x01
    1686:	f9 01       	movw	r30, r18
    1688:	20 81       	ld	r18, Z
    168a:	23 30       	cpi	r18, 0x03	; 3
    168c:	61 f4       	brne	.+24     	; 0x16a6 <follow_path+0x260>
    168e:	fa 01       	movw	r30, r20
    1690:	44 89       	ldd	r20, Z+20	; 0x14
    1692:	55 89       	ldd	r21, Z+21	; 0x15
    1694:	60 e0       	ldi	r22, 0x00	; 0
    1696:	70 e0       	ldi	r23, 0x00	; 0
    1698:	ba 01       	movw	r22, r20
    169a:	55 27       	eor	r21, r21
    169c:	44 27       	eor	r20, r20
    169e:	84 2b       	or	r24, r20
    16a0:	95 2b       	or	r25, r21
    16a2:	a6 2b       	or	r26, r22
    16a4:	b7 2b       	or	r27, r23
    16a6:	ec 81       	ldd	r30, Y+4	; 0x04
    16a8:	fd 81       	ldd	r31, Y+5	; 0x05
    16aa:	86 83       	std	Z+6, r24	; 0x06
    16ac:	97 83       	std	Z+7, r25	; 0x07
    16ae:	a0 87       	std	Z+8, r26	; 0x08
    16b0:	b1 87       	std	Z+9, r27	; 0x09
    16b2:	11 cf       	rjmp	.-478    	; 0x14d6 <follow_path+0x90>
    16b4:	86 e0       	ldi	r24, 0x06	; 6
    16b6:	3e c0       	rjmp	.+124    	; 0x1734 <follow_path+0x2ee>
    16b8:	86 e0       	ldi	r24, 0x06	; 6
    16ba:	3c c0       	rjmp	.+120    	; 0x1734 <follow_path+0x2ee>
    16bc:	84 e0       	ldi	r24, 0x04	; 4
    16be:	3a c0       	rjmp	.+116    	; 0x1734 <follow_path+0x2ee>
    16c0:	85 e0       	ldi	r24, 0x05	; 5
    16c2:	38 c0       	rjmp	.+112    	; 0x1734 <follow_path+0x2ee>
    16c4:	86 e0       	ldi	r24, 0x06	; 6
    16c6:	36 c0       	rjmp	.+108    	; 0x1734 <follow_path+0x2ee>
    16c8:	86 e0       	ldi	r24, 0x06	; 6
    16ca:	34 c0       	rjmp	.+104    	; 0x1734 <follow_path+0x2ee>
    16cc:	f8 e0       	ldi	r31, 0x08	; 8
    16ce:	4f 16       	cp	r4, r31
    16d0:	51 04       	cpc	r5, r1
    16d2:	09 f4       	brne	.+2      	; 0x16d6 <follow_path+0x290>
    16d4:	3c cf       	rjmp	.-392    	; 0x154e <follow_path+0x108>
    16d6:	f6 cf       	rjmp	.-20     	; 0x16c4 <follow_path+0x27e>
    16d8:	46 2f       	mov	r20, r22
    16da:	50 e0       	ldi	r21, 0x00	; 0
    16dc:	42 32       	cpi	r20, 0x22	; 34
    16de:	51 05       	cpc	r21, r1
    16e0:	99 f3       	breq	.-26     	; 0x16c8 <follow_path+0x282>
    16e2:	f1 01       	movw	r30, r2
    16e4:	4a cf       	rjmp	.-364    	; 0x157a <follow_path+0x134>
    16e6:	8f eb       	ldi	r24, 0xBF	; 191
    16e8:	86 0f       	add	r24, r22
    16ea:	8a 31       	cpi	r24, 0x1A	; 26
    16ec:	08 f4       	brcc	.+2      	; 0x16f0 <follow_path+0x2aa>
    16ee:	4f cf       	rjmp	.-354    	; 0x158e <follow_path+0x148>
    16f0:	52 cf       	rjmp	.-348    	; 0x1596 <follow_path+0x150>
    16f2:	fd 82       	std	Y+5, r15	; 0x05
    16f4:	ec 82       	std	Y+4, r14	; 0x04
    16f6:	78 01       	movw	r14, r16
    16f8:	e2 0e       	add	r14, r18
    16fa:	f3 1e       	adc	r15, r19
    16fc:	86 2d       	mov	r24, r6
    16fe:	5b cf       	rjmp	.-330    	; 0x15b6 <follow_path+0x170>
    1700:	fd 82       	std	Y+5, r15	; 0x05
    1702:	ec 82       	std	Y+4, r14	; 0x04
    1704:	78 01       	movw	r14, r16
    1706:	e2 0e       	add	r14, r18
    1708:	f3 1e       	adc	r15, r19
    170a:	84 e0       	ldi	r24, 0x04	; 4
    170c:	54 cf       	rjmp	.-344    	; 0x15b6 <follow_path+0x170>
    170e:	dd 82       	std	Y+5, r13	; 0x05
    1710:	cc 82       	std	Y+4, r12	; 0x04
    1712:	db 01       	movw	r26, r22
    1714:	1b 96       	adiw	r26, 0x0b	; 11
    1716:	9c 91       	ld	r25, X
    1718:	92 ff       	sbrs	r25, 2
    171a:	a9 cf       	rjmp	.-174    	; 0x166e <follow_path+0x228>
    171c:	0b c0       	rjmp	.+22     	; 0x1734 <follow_path+0x2ee>
    171e:	0c 81       	ldd	r16, Y+4	; 0x04
    1720:	1d 81       	ldd	r17, Y+5	; 0x05
    1722:	d8 01       	movw	r26, r16
    1724:	54 96       	adiw	r26, 0x14	; 20
    1726:	ed 91       	ld	r30, X+
    1728:	fc 91       	ld	r31, X
    172a:	55 97       	sbiw	r26, 0x15	; 21
    172c:	93 85       	ldd	r25, Z+11	; 0x0b
    172e:	84 30       	cpi	r24, 0x04	; 4
    1730:	09 f4       	brne	.+2      	; 0x1734 <follow_path+0x2ee>
    1732:	99 cf       	rjmp	.-206    	; 0x1666 <follow_path+0x220>
    1734:	0f 90       	pop	r0
    1736:	0f 90       	pop	r0
    1738:	0f 90       	pop	r0
    173a:	0f 90       	pop	r0
    173c:	0f 90       	pop	r0
    173e:	df 91       	pop	r29
    1740:	cf 91       	pop	r28
    1742:	1f 91       	pop	r17
    1744:	0f 91       	pop	r16
    1746:	ff 90       	pop	r15
    1748:	ef 90       	pop	r14
    174a:	df 90       	pop	r13
    174c:	cf 90       	pop	r12
    174e:	bf 90       	pop	r11
    1750:	af 90       	pop	r10
    1752:	9f 90       	pop	r9
    1754:	8f 90       	pop	r8
    1756:	7f 90       	pop	r7
    1758:	6f 90       	pop	r6
    175a:	5f 90       	pop	r5
    175c:	4f 90       	pop	r4
    175e:	3f 90       	pop	r3
    1760:	2f 90       	pop	r2
    1762:	08 95       	ret

00001764 <f_mount>:
    1764:	1f 93       	push	r17
    1766:	cf 93       	push	r28
    1768:	df 93       	push	r29
    176a:	00 d0       	rcall	.+0      	; 0x176c <f_mount+0x8>
    176c:	00 d0       	rcall	.+0      	; 0x176e <f_mount+0xa>
    176e:	cd b7       	in	r28, 0x3d	; 61
    1770:	de b7       	in	r29, 0x3e	; 62
    1772:	9c 83       	std	Y+4, r25	; 0x04
    1774:	8b 83       	std	Y+3, r24	; 0x03
    1776:	7e 83       	std	Y+6, r23	; 0x06
    1778:	6d 83       	std	Y+5, r22	; 0x05
    177a:	14 2f       	mov	r17, r20
    177c:	7a 83       	std	Y+2, r23	; 0x02
    177e:	69 83       	std	Y+1, r22	; 0x01
    1780:	ce 01       	movw	r24, r28
    1782:	01 96       	adiw	r24, 0x01	; 1
    1784:	0e 94 c6 00 	call	0x18c	; 0x18c <get_ldnumber>
    1788:	99 23       	and	r25, r25
    178a:	34 f1       	brlt	.+76     	; 0x17d8 <f_mount+0x74>
    178c:	fc 01       	movw	r30, r24
    178e:	ee 0f       	add	r30, r30
    1790:	ff 1f       	adc	r31, r31
    1792:	e8 58       	subi	r30, 0x88	; 136
    1794:	fa 4f       	sbci	r31, 0xFA	; 250
    1796:	01 90       	ld	r0, Z+
    1798:	f0 81       	ld	r31, Z
    179a:	e0 2d       	mov	r30, r0
    179c:	30 97       	sbiw	r30, 0x00	; 0
    179e:	09 f0       	breq	.+2      	; 0x17a2 <f_mount+0x3e>
    17a0:	10 82       	st	Z, r1
    17a2:	eb 81       	ldd	r30, Y+3	; 0x03
    17a4:	fc 81       	ldd	r31, Y+4	; 0x04
    17a6:	30 97       	sbiw	r30, 0x00	; 0
    17a8:	e9 f0       	breq	.+58     	; 0x17e4 <f_mount+0x80>
    17aa:	10 82       	st	Z, r1
    17ac:	2b 81       	ldd	r18, Y+3	; 0x03
    17ae:	3c 81       	ldd	r19, Y+4	; 0x04
    17b0:	88 0f       	add	r24, r24
    17b2:	99 1f       	adc	r25, r25
    17b4:	fc 01       	movw	r30, r24
    17b6:	e8 58       	subi	r30, 0x88	; 136
    17b8:	fa 4f       	sbci	r31, 0xFA	; 250
    17ba:	31 83       	std	Z+1, r19	; 0x01
    17bc:	20 83       	st	Z, r18
    17be:	23 2b       	or	r18, r19
    17c0:	69 f0       	breq	.+26     	; 0x17dc <f_mount+0x78>
    17c2:	11 30       	cpi	r17, 0x01	; 1
    17c4:	69 f4       	brne	.+26     	; 0x17e0 <f_mount+0x7c>
    17c6:	40 e0       	ldi	r20, 0x00	; 0
    17c8:	be 01       	movw	r22, r28
    17ca:	6b 5f       	subi	r22, 0xFB	; 251
    17cc:	7f 4f       	sbci	r23, 0xFF	; 255
    17ce:	ce 01       	movw	r24, r28
    17d0:	03 96       	adiw	r24, 0x03	; 3
    17d2:	0e 94 04 02 	call	0x408	; 0x408 <find_volume>
    17d6:	0e c0       	rjmp	.+28     	; 0x17f4 <f_mount+0x90>
    17d8:	8b e0       	ldi	r24, 0x0B	; 11
    17da:	0c c0       	rjmp	.+24     	; 0x17f4 <f_mount+0x90>
    17dc:	80 e0       	ldi	r24, 0x00	; 0
    17de:	0a c0       	rjmp	.+20     	; 0x17f4 <f_mount+0x90>
    17e0:	80 e0       	ldi	r24, 0x00	; 0
    17e2:	08 c0       	rjmp	.+16     	; 0x17f4 <f_mount+0x90>
    17e4:	88 0f       	add	r24, r24
    17e6:	99 1f       	adc	r25, r25
    17e8:	fc 01       	movw	r30, r24
    17ea:	e8 58       	subi	r30, 0x88	; 136
    17ec:	fa 4f       	sbci	r31, 0xFA	; 250
    17ee:	11 82       	std	Z+1, r1	; 0x01
    17f0:	10 82       	st	Z, r1
    17f2:	80 e0       	ldi	r24, 0x00	; 0
    17f4:	26 96       	adiw	r28, 0x06	; 6
    17f6:	0f b6       	in	r0, 0x3f	; 63
    17f8:	f8 94       	cli
    17fa:	de bf       	out	0x3e, r29	; 62
    17fc:	0f be       	out	0x3f, r0	; 63
    17fe:	cd bf       	out	0x3d, r28	; 61
    1800:	df 91       	pop	r29
    1802:	cf 91       	pop	r28
    1804:	1f 91       	pop	r17
    1806:	08 95       	ret

00001808 <f_open>:
    1808:	4f 92       	push	r4
    180a:	5f 92       	push	r5
    180c:	6f 92       	push	r6
    180e:	7f 92       	push	r7
    1810:	8f 92       	push	r8
    1812:	9f 92       	push	r9
    1814:	bf 92       	push	r11
    1816:	cf 92       	push	r12
    1818:	df 92       	push	r13
    181a:	ef 92       	push	r14
    181c:	ff 92       	push	r15
    181e:	0f 93       	push	r16
    1820:	1f 93       	push	r17
    1822:	cf 93       	push	r28
    1824:	df 93       	push	r29
    1826:	cd b7       	in	r28, 0x3d	; 61
    1828:	de b7       	in	r29, 0x3e	; 62
    182a:	e0 97       	sbiw	r28, 0x30	; 48
    182c:	0f b6       	in	r0, 0x3f	; 63
    182e:	f8 94       	cli
    1830:	de bf       	out	0x3e, r29	; 62
    1832:	0f be       	out	0x3f, r0	; 63
    1834:	cd bf       	out	0x3d, r28	; 61
    1836:	7c a3       	std	Y+36, r23	; 0x24
    1838:	6b a3       	std	Y+35, r22	; 0x23
    183a:	00 97       	sbiw	r24, 0x00	; 0
    183c:	09 f4       	brne	.+2      	; 0x1840 <f_open+0x38>
    183e:	90 c1       	rjmp	.+800    	; 0x1b60 <f_open+0x358>
    1840:	14 2f       	mov	r17, r20
    1842:	7c 01       	movw	r14, r24
    1844:	dc 01       	movw	r26, r24
    1846:	1d 92       	st	X+, r1
    1848:	1c 92       	st	X, r1
    184a:	4e 71       	andi	r20, 0x1E	; 30
    184c:	be 01       	movw	r22, r28
    184e:	6d 5d       	subi	r22, 0xDD	; 221
    1850:	7f 4f       	sbci	r23, 0xFF	; 255
    1852:	ce 01       	movw	r24, r28
    1854:	01 96       	adiw	r24, 0x01	; 1
    1856:	0e 94 04 02 	call	0x408	; 0x408 <find_volume>
    185a:	81 11       	cpse	r24, r1
    185c:	c2 c1       	rjmp	.+900    	; 0x1be2 <f_open+0x3da>
    185e:	b1 2f       	mov	r27, r17
    1860:	bf 71       	andi	r27, 0x1F	; 31
    1862:	bb 2e       	mov	r11, r27
    1864:	ce 01       	movw	r24, r28
    1866:	47 96       	adiw	r24, 0x17	; 23
    1868:	9e 8b       	std	Y+22, r25	; 0x16
    186a:	8d 8b       	std	Y+21, r24	; 0x15
    186c:	6b a1       	ldd	r22, Y+35	; 0x23
    186e:	7c a1       	ldd	r23, Y+36	; 0x24
    1870:	46 97       	sbiw	r24, 0x16	; 22
    1872:	e9 dd       	rcall	.-1070   	; 0x1446 <follow_path>
    1874:	cb 88       	ldd	r12, Y+19	; 0x13
    1876:	dc 88       	ldd	r13, Y+20	; 0x14
    1878:	81 11       	cpse	r24, r1
    187a:	74 c1       	rjmp	.+744    	; 0x1b64 <f_open+0x35c>
    187c:	c1 14       	cp	r12, r1
    187e:	d1 04       	cpc	r13, r1
    1880:	09 f0       	breq	.+2      	; 0x1884 <f_open+0x7c>
    1882:	75 c1       	rjmp	.+746    	; 0x1b6e <f_open+0x366>
    1884:	79 c1       	rjmp	.+754    	; 0x1b78 <f_open+0x370>
    1886:	84 30       	cpi	r24, 0x04	; 4
    1888:	09 f0       	breq	.+2      	; 0x188c <f_open+0x84>
    188a:	97 c1       	rjmp	.+814    	; 0x1bba <f_open+0x3b2>
    188c:	60 e0       	ldi	r22, 0x00	; 0
    188e:	70 e0       	ldi	r23, 0x00	; 0
    1890:	ce 01       	movw	r24, r28
    1892:	01 96       	adiw	r24, 0x01	; 1
    1894:	b2 d9       	rcall	.-3228   	; 0xbfa <dir_sdi>
    1896:	81 11       	cpse	r24, r1
    1898:	a1 c1       	rjmp	.+834    	; 0x1bdc <f_open+0x3d4>
    189a:	4f 85       	ldd	r20, Y+15	; 0x0f
    189c:	58 89       	ldd	r21, Y+16	; 0x10
    189e:	69 89       	ldd	r22, Y+17	; 0x11
    18a0:	7a 89       	ldd	r23, Y+18	; 0x12
    18a2:	89 81       	ldd	r24, Y+1	; 0x01
    18a4:	9a 81       	ldd	r25, Y+2	; 0x02
    18a6:	0e 94 68 01 	call	0x2d0	; 0x2d0 <move_window>
    18aa:	81 11       	cpse	r24, r1
    18ac:	97 c1       	rjmp	.+814    	; 0x1bdc <f_open+0x3d4>
    18ae:	eb 89       	ldd	r30, Y+19	; 0x13
    18b0:	fc 89       	ldd	r31, Y+20	; 0x14
    18b2:	80 81       	ld	r24, Z
    18b4:	85 3e       	cpi	r24, 0xE5	; 229
    18b6:	51 f0       	breq	.+20     	; 0x18cc <f_open+0xc4>
    18b8:	88 23       	and	r24, r24
    18ba:	41 f0       	breq	.+16     	; 0x18cc <f_open+0xc4>
    18bc:	61 e0       	ldi	r22, 0x01	; 1
    18be:	70 e0       	ldi	r23, 0x00	; 0
    18c0:	ce 01       	movw	r24, r28
    18c2:	01 96       	adiw	r24, 0x01	; 1
    18c4:	85 dc       	rcall	.-1782   	; 0x11d0 <dir_next>
    18c6:	88 23       	and	r24, r24
    18c8:	41 f3       	breq	.-48     	; 0x189a <f_open+0x92>
    18ca:	88 c1       	rjmp	.+784    	; 0x1bdc <f_open+0x3d4>
    18cc:	4f 85       	ldd	r20, Y+15	; 0x0f
    18ce:	58 89       	ldd	r21, Y+16	; 0x10
    18d0:	69 89       	ldd	r22, Y+17	; 0x11
    18d2:	7a 89       	ldd	r23, Y+18	; 0x12
    18d4:	89 81       	ldd	r24, Y+1	; 0x01
    18d6:	9a 81       	ldd	r25, Y+2	; 0x02
    18d8:	0e 94 68 01 	call	0x2d0	; 0x2d0 <move_window>
    18dc:	81 11       	cpse	r24, r1
    18de:	6d c1       	rjmp	.+730    	; 0x1bba <f_open+0x3b2>
    18e0:	eb 89       	ldd	r30, Y+19	; 0x13
    18e2:	fc 89       	ldd	r31, Y+20	; 0x14
    18e4:	cf 01       	movw	r24, r30
    18e6:	80 96       	adiw	r24, 0x20	; 32
    18e8:	11 92       	st	Z+, r1
    18ea:	e8 17       	cp	r30, r24
    18ec:	f9 07       	cpc	r31, r25
    18ee:	e1 f7       	brne	.-8      	; 0x18e8 <f_open+0xe0>
    18f0:	6d 89       	ldd	r22, Y+21	; 0x15
    18f2:	7e 89       	ldd	r23, Y+22	; 0x16
    18f4:	4b e0       	ldi	r20, 0x0B	; 11
    18f6:	50 e0       	ldi	r21, 0x00	; 0
    18f8:	8b 89       	ldd	r24, Y+19	; 0x13
    18fa:	9c 89       	ldd	r25, Y+20	; 0x14
    18fc:	0e 94 9a 00 	call	0x134	; 0x134 <mem_cpy>
    1900:	e9 81       	ldd	r30, Y+1	; 0x01
    1902:	fa 81       	ldd	r31, Y+2	; 0x02
    1904:	81 e0       	ldi	r24, 0x01	; 1
    1906:	84 83       	std	Z+4, r24	; 0x04
    1908:	eb 2d       	mov	r30, r11
    190a:	e8 60       	ori	r30, 0x08	; 8
    190c:	be 2e       	mov	r11, r30
    190e:	cb 88       	ldd	r12, Y+19	; 0x13
    1910:	dc 88       	ldd	r13, Y+20	; 0x14
    1912:	08 c0       	rjmp	.+16     	; 0x1924 <f_open+0x11c>
    1914:	d6 01       	movw	r26, r12
    1916:	1b 96       	adiw	r26, 0x0b	; 11
    1918:	8c 91       	ld	r24, X
    191a:	81 71       	andi	r24, 0x11	; 17
    191c:	09 f0       	breq	.+2      	; 0x1920 <f_open+0x118>
    191e:	31 c1       	rjmp	.+610    	; 0x1b82 <f_open+0x37a>
    1920:	12 fd       	sbrc	r17, 2
    1922:	31 c1       	rjmp	.+610    	; 0x1b86 <f_open+0x37e>
    1924:	b3 fe       	sbrs	r11, 3
    1926:	cb c0       	rjmp	.+406    	; 0x1abe <f_open+0x2b6>
    1928:	80 e0       	ldi	r24, 0x00	; 0
    192a:	90 e0       	ldi	r25, 0x00	; 0
    192c:	a5 e8       	ldi	r26, 0x85	; 133
    192e:	b8 e4       	ldi	r27, 0x48	; 72
    1930:	f6 01       	movw	r30, r12
    1932:	86 87       	std	Z+14, r24	; 0x0e
    1934:	97 87       	std	Z+15, r25	; 0x0f
    1936:	a0 8b       	std	Z+16, r26	; 0x10
    1938:	b1 8b       	std	Z+17, r27	; 0x11
    193a:	86 8b       	std	Z+22, r24	; 0x16
    193c:	97 8b       	std	Z+23, r25	; 0x17
    193e:	a0 8f       	std	Z+24, r26	; 0x18
    1940:	b1 8f       	std	Z+25, r27	; 0x19
    1942:	13 86       	std	Z+11, r1	; 0x0b
    1944:	d6 01       	movw	r26, r12
    1946:	14 8e       	std	Z+28, r1	; 0x1c
    1948:	15 8e       	std	Z+29, r1	; 0x1d
    194a:	16 8e       	std	Z+30, r1	; 0x1e
    194c:	17 8e       	std	Z+31, r1	; 0x1f
    194e:	89 80       	ldd	r8, Y+1	; 0x01
    1950:	9a 80       	ldd	r9, Y+2	; 0x02
    1952:	82 8d       	ldd	r24, Z+26	; 0x1a
    1954:	93 8d       	ldd	r25, Z+27	; 0x1b
    1956:	2c 01       	movw	r4, r24
    1958:	61 2c       	mov	r6, r1
    195a:	71 2c       	mov	r7, r1
    195c:	f4 01       	movw	r30, r8
    195e:	80 81       	ld	r24, Z
    1960:	83 30       	cpi	r24, 0x03	; 3
    1962:	69 f4       	brne	.+26     	; 0x197e <f_open+0x176>
    1964:	54 96       	adiw	r26, 0x14	; 20
    1966:	8d 91       	ld	r24, X+
    1968:	9c 91       	ld	r25, X
    196a:	55 97       	sbiw	r26, 0x15	; 21
    196c:	a0 e0       	ldi	r26, 0x00	; 0
    196e:	b0 e0       	ldi	r27, 0x00	; 0
    1970:	dc 01       	movw	r26, r24
    1972:	99 27       	eor	r25, r25
    1974:	88 27       	eor	r24, r24
    1976:	48 2a       	or	r4, r24
    1978:	59 2a       	or	r5, r25
    197a:	6a 2a       	or	r6, r26
    197c:	7b 2a       	or	r7, r27
    197e:	d6 01       	movw	r26, r12
    1980:	5b 96       	adiw	r26, 0x1b	; 27
    1982:	1c 92       	st	X, r1
    1984:	1e 92       	st	-X, r1
    1986:	5a 97       	sbiw	r26, 0x1a	; 26
    1988:	55 96       	adiw	r26, 0x15	; 21
    198a:	1c 92       	st	X, r1
    198c:	1e 92       	st	-X, r1
    198e:	54 97       	sbiw	r26, 0x14	; 20
    1990:	81 e0       	ldi	r24, 0x01	; 1
    1992:	f4 01       	movw	r30, r8
    1994:	84 83       	std	Z+4, r24	; 0x04
    1996:	41 14       	cp	r4, r1
    1998:	51 04       	cpc	r5, r1
    199a:	61 04       	cpc	r6, r1
    199c:	71 04       	cpc	r7, r1
    199e:	09 f4       	brne	.+2      	; 0x19a2 <f_open+0x19a>
    19a0:	8e c0       	rjmp	.+284    	; 0x1abe <f_open+0x2b6>
    19a2:	22 a5       	ldd	r18, Z+42	; 0x2a
    19a4:	33 a5       	ldd	r19, Z+43	; 0x2b
    19a6:	44 a5       	ldd	r20, Z+44	; 0x2c
    19a8:	55 a5       	ldd	r21, Z+45	; 0x2d
    19aa:	2d a7       	std	Y+45, r18	; 0x2d
    19ac:	3e a7       	std	Y+46, r19	; 0x2e
    19ae:	4f a7       	std	Y+47, r20	; 0x2f
    19b0:	58 ab       	std	Y+48, r21	; 0x30
    19b2:	b2 e0       	ldi	r27, 0x02	; 2
    19b4:	4b 16       	cp	r4, r27
    19b6:	51 04       	cpc	r5, r1
    19b8:	61 04       	cpc	r6, r1
    19ba:	71 04       	cpc	r7, r1
    19bc:	08 f4       	brcc	.+2      	; 0x19c0 <f_open+0x1b8>
    19be:	e8 c0       	rjmp	.+464    	; 0x1b90 <f_open+0x388>
    19c0:	82 89       	ldd	r24, Z+18	; 0x12
    19c2:	93 89       	ldd	r25, Z+19	; 0x13
    19c4:	a4 89       	ldd	r26, Z+20	; 0x14
    19c6:	b5 89       	ldd	r27, Z+21	; 0x15
    19c8:	48 16       	cp	r4, r24
    19ca:	59 06       	cpc	r5, r25
    19cc:	6a 06       	cpc	r6, r26
    19ce:	7b 06       	cpc	r7, r27
    19d0:	08 f0       	brcs	.+2      	; 0x19d4 <f_open+0x1cc>
    19d2:	e0 c0       	rjmp	.+448    	; 0x1b94 <f_open+0x38c>
    19d4:	49 a6       	std	Y+41, r4	; 0x29
    19d6:	5a a6       	std	Y+42, r5	; 0x2a
    19d8:	6b a6       	std	Y+43, r6	; 0x2b
    19da:	7c a6       	std	Y+44, r7	; 0x2c
    19dc:	45 c0       	rjmp	.+138    	; 0x1a68 <f_open+0x260>
    19de:	49 a5       	ldd	r20, Y+41	; 0x29
    19e0:	5a a5       	ldd	r21, Y+42	; 0x2a
    19e2:	6b a5       	ldd	r22, Y+43	; 0x2b
    19e4:	7c a5       	ldd	r23, Y+44	; 0x2c
    19e6:	c4 01       	movw	r24, r8
    19e8:	25 d8       	rcall	.-4022   	; 0xa34 <get_fat>
    19ea:	6d a3       	std	Y+37, r22	; 0x25
    19ec:	7e a3       	std	Y+38, r23	; 0x26
    19ee:	8f a3       	std	Y+39, r24	; 0x27
    19f0:	98 a7       	std	Y+40, r25	; 0x28
    19f2:	61 15       	cp	r22, r1
    19f4:	71 05       	cpc	r23, r1
    19f6:	81 05       	cpc	r24, r1
    19f8:	91 05       	cpc	r25, r1
    19fa:	09 f4       	brne	.+2      	; 0x19fe <f_open+0x1f6>
    19fc:	44 c0       	rjmp	.+136    	; 0x1a86 <f_open+0x27e>
    19fe:	61 30       	cpi	r22, 0x01	; 1
    1a00:	71 05       	cpc	r23, r1
    1a02:	81 05       	cpc	r24, r1
    1a04:	91 05       	cpc	r25, r1
    1a06:	09 f4       	brne	.+2      	; 0x1a0a <f_open+0x202>
    1a08:	c7 c0       	rjmp	.+398    	; 0x1b98 <f_open+0x390>
    1a0a:	6f 3f       	cpi	r22, 0xFF	; 255
    1a0c:	7f 4f       	sbci	r23, 0xFF	; 255
    1a0e:	8f 4f       	sbci	r24, 0xFF	; 255
    1a10:	9f 4f       	sbci	r25, 0xFF	; 255
    1a12:	09 f4       	brne	.+2      	; 0x1a16 <f_open+0x20e>
    1a14:	c3 c0       	rjmp	.+390    	; 0x1b9c <f_open+0x394>
    1a16:	00 e0       	ldi	r16, 0x00	; 0
    1a18:	10 e0       	ldi	r17, 0x00	; 0
    1a1a:	98 01       	movw	r18, r16
    1a1c:	49 a5       	ldd	r20, Y+41	; 0x29
    1a1e:	5a a5       	ldd	r21, Y+42	; 0x2a
    1a20:	6b a5       	ldd	r22, Y+43	; 0x2b
    1a22:	7c a5       	ldd	r23, Y+44	; 0x2c
    1a24:	c4 01       	movw	r24, r8
    1a26:	a4 d9       	rcall	.-3256   	; 0xd70 <put_fat>
    1a28:	81 11       	cpse	r24, r1
    1a2a:	b9 c0       	rjmp	.+370    	; 0x1b9e <f_open+0x396>
    1a2c:	f4 01       	movw	r30, r8
    1a2e:	86 85       	ldd	r24, Z+14	; 0x0e
    1a30:	97 85       	ldd	r25, Z+15	; 0x0f
    1a32:	a0 89       	ldd	r26, Z+16	; 0x10
    1a34:	b1 89       	ldd	r27, Z+17	; 0x11
    1a36:	8f 3f       	cpi	r24, 0xFF	; 255
    1a38:	ff ef       	ldi	r31, 0xFF	; 255
    1a3a:	9f 07       	cpc	r25, r31
    1a3c:	af 07       	cpc	r26, r31
    1a3e:	bf 07       	cpc	r27, r31
    1a40:	59 f0       	breq	.+22     	; 0x1a58 <f_open+0x250>
    1a42:	01 96       	adiw	r24, 0x01	; 1
    1a44:	a1 1d       	adc	r26, r1
    1a46:	b1 1d       	adc	r27, r1
    1a48:	f4 01       	movw	r30, r8
    1a4a:	86 87       	std	Z+14, r24	; 0x0e
    1a4c:	97 87       	std	Z+15, r25	; 0x0f
    1a4e:	a0 8b       	std	Z+16, r26	; 0x10
    1a50:	b1 8b       	std	Z+17, r27	; 0x11
    1a52:	85 81       	ldd	r24, Z+5	; 0x05
    1a54:	81 60       	ori	r24, 0x01	; 1
    1a56:	85 83       	std	Z+5, r24	; 0x05
    1a58:	2d a1       	ldd	r18, Y+37	; 0x25
    1a5a:	3e a1       	ldd	r19, Y+38	; 0x26
    1a5c:	4f a1       	ldd	r20, Y+39	; 0x27
    1a5e:	58 a5       	ldd	r21, Y+40	; 0x28
    1a60:	29 a7       	std	Y+41, r18	; 0x29
    1a62:	3a a7       	std	Y+42, r19	; 0x2a
    1a64:	4b a7       	std	Y+43, r20	; 0x2b
    1a66:	5c a7       	std	Y+44, r21	; 0x2c
    1a68:	f4 01       	movw	r30, r8
    1a6a:	82 89       	ldd	r24, Z+18	; 0x12
    1a6c:	93 89       	ldd	r25, Z+19	; 0x13
    1a6e:	a4 89       	ldd	r26, Z+20	; 0x14
    1a70:	b5 89       	ldd	r27, Z+21	; 0x15
    1a72:	29 a5       	ldd	r18, Y+41	; 0x29
    1a74:	3a a5       	ldd	r19, Y+42	; 0x2a
    1a76:	4b a5       	ldd	r20, Y+43	; 0x2b
    1a78:	5c a5       	ldd	r21, Y+44	; 0x2c
    1a7a:	28 17       	cp	r18, r24
    1a7c:	39 07       	cpc	r19, r25
    1a7e:	4a 07       	cpc	r20, r26
    1a80:	5b 07       	cpc	r21, r27
    1a82:	08 f4       	brcc	.+2      	; 0x1a86 <f_open+0x27e>
    1a84:	ac cf       	rjmp	.-168    	; 0x19de <f_open+0x1d6>
    1a86:	89 81       	ldd	r24, Y+1	; 0x01
    1a88:	9a 81       	ldd	r25, Y+2	; 0x02
    1a8a:	b3 01       	movw	r22, r6
    1a8c:	a2 01       	movw	r20, r4
    1a8e:	41 50       	subi	r20, 0x01	; 1
    1a90:	51 09       	sbc	r21, r1
    1a92:	61 09       	sbc	r22, r1
    1a94:	71 09       	sbc	r23, r1
    1a96:	dc 01       	movw	r26, r24
    1a98:	1a 96       	adiw	r26, 0x0a	; 10
    1a9a:	4d 93       	st	X+, r20
    1a9c:	5d 93       	st	X+, r21
    1a9e:	6d 93       	st	X+, r22
    1aa0:	7c 93       	st	X, r23
    1aa2:	1d 97       	sbiw	r26, 0x0d	; 13
    1aa4:	4d a5       	ldd	r20, Y+45	; 0x2d
    1aa6:	5e a5       	ldd	r21, Y+46	; 0x2e
    1aa8:	6f a5       	ldd	r22, Y+47	; 0x2f
    1aaa:	78 a9       	ldd	r23, Y+48	; 0x30
    1aac:	0e 94 68 01 	call	0x2d0	; 0x2d0 <move_window>
    1ab0:	88 23       	and	r24, r24
    1ab2:	39 f0       	breq	.+14     	; 0x1ac2 <f_open+0x2ba>
    1ab4:	96 c0       	rjmp	.+300    	; 0x1be2 <f_open+0x3da>
    1ab6:	11 ff       	sbrs	r17, 1
    1ab8:	02 c0       	rjmp	.+4      	; 0x1abe <f_open+0x2b6>
    1aba:	80 fd       	sbrc	r24, 0
    1abc:	74 c0       	rjmp	.+232    	; 0x1ba6 <f_open+0x39e>
    1abe:	b3 fe       	sbrs	r11, 3
    1ac0:	03 c0       	rjmp	.+6      	; 0x1ac8 <f_open+0x2c0>
    1ac2:	bb 2d       	mov	r27, r11
    1ac4:	b0 62       	ori	r27, 0x20	; 32
    1ac6:	bb 2e       	mov	r11, r27
    1ac8:	e9 81       	ldd	r30, Y+1	; 0x01
    1aca:	fa 81       	ldd	r31, Y+2	; 0x02
    1acc:	82 a5       	ldd	r24, Z+42	; 0x2a
    1ace:	93 a5       	ldd	r25, Z+43	; 0x2b
    1ad0:	a4 a5       	ldd	r26, Z+44	; 0x2c
    1ad2:	b5 a5       	ldd	r27, Z+45	; 0x2d
    1ad4:	f7 01       	movw	r30, r14
    1ad6:	82 8f       	std	Z+26, r24	; 0x1a
    1ad8:	93 8f       	std	Z+27, r25	; 0x1b
    1ada:	a4 8f       	std	Z+28, r26	; 0x1c
    1adc:	b5 8f       	std	Z+29, r27	; 0x1d
    1ade:	d7 8e       	std	Z+31, r13	; 0x1f
    1ae0:	c6 8e       	std	Z+30, r12	; 0x1e
    1ae2:	d7 01       	movw	r26, r14
    1ae4:	14 96       	adiw	r26, 0x04	; 4
    1ae6:	bc 92       	st	X, r11
    1ae8:	14 97       	sbiw	r26, 0x04	; 4
    1aea:	15 96       	adiw	r26, 0x05	; 5
    1aec:	1c 92       	st	X, r1
    1aee:	89 80       	ldd	r8, Y+1	; 0x01
    1af0:	9a 80       	ldd	r9, Y+2	; 0x02
    1af2:	f6 01       	movw	r30, r12
    1af4:	82 8d       	ldd	r24, Z+26	; 0x1a
    1af6:	93 8d       	ldd	r25, Z+27	; 0x1b
    1af8:	a0 e0       	ldi	r26, 0x00	; 0
    1afa:	b0 e0       	ldi	r27, 0x00	; 0
    1afc:	f4 01       	movw	r30, r8
    1afe:	20 81       	ld	r18, Z
    1b00:	23 30       	cpi	r18, 0x03	; 3
    1b02:	61 f4       	brne	.+24     	; 0x1b1c <f_open+0x314>
    1b04:	f6 01       	movw	r30, r12
    1b06:	44 89       	ldd	r20, Z+20	; 0x14
    1b08:	55 89       	ldd	r21, Z+21	; 0x15
    1b0a:	60 e0       	ldi	r22, 0x00	; 0
    1b0c:	70 e0       	ldi	r23, 0x00	; 0
    1b0e:	ba 01       	movw	r22, r20
    1b10:	55 27       	eor	r21, r21
    1b12:	44 27       	eor	r20, r20
    1b14:	84 2b       	or	r24, r20
    1b16:	95 2b       	or	r25, r21
    1b18:	a6 2b       	or	r26, r22
    1b1a:	b7 2b       	or	r27, r23
    1b1c:	f7 01       	movw	r30, r14
    1b1e:	86 87       	std	Z+14, r24	; 0x0e
    1b20:	97 87       	std	Z+15, r25	; 0x0f
    1b22:	a0 8b       	std	Z+16, r26	; 0x10
    1b24:	b1 8b       	std	Z+17, r27	; 0x11
    1b26:	f6 01       	movw	r30, r12
    1b28:	84 8d       	ldd	r24, Z+28	; 0x1c
    1b2a:	95 8d       	ldd	r25, Z+29	; 0x1d
    1b2c:	a6 8d       	ldd	r26, Z+30	; 0x1e
    1b2e:	b7 8d       	ldd	r27, Z+31	; 0x1f
    1b30:	f7 01       	movw	r30, r14
    1b32:	82 87       	std	Z+10, r24	; 0x0a
    1b34:	93 87       	std	Z+11, r25	; 0x0b
    1b36:	a4 87       	std	Z+12, r26	; 0x0c
    1b38:	b5 87       	std	Z+13, r27	; 0x0d
    1b3a:	16 82       	std	Z+6, r1	; 0x06
    1b3c:	17 82       	std	Z+7, r1	; 0x07
    1b3e:	10 86       	std	Z+8, r1	; 0x08
    1b40:	11 86       	std	Z+9, r1	; 0x09
    1b42:	16 8a       	std	Z+22, r1	; 0x16
    1b44:	17 8a       	std	Z+23, r1	; 0x17
    1b46:	10 8e       	std	Z+24, r1	; 0x18
    1b48:	11 8e       	std	Z+25, r1	; 0x19
    1b4a:	91 82       	std	Z+1, r9	; 0x01
    1b4c:	80 82       	st	Z, r8
    1b4e:	d4 01       	movw	r26, r8
    1b50:	16 96       	adiw	r26, 0x06	; 6
    1b52:	8d 91       	ld	r24, X+
    1b54:	9c 91       	ld	r25, X
    1b56:	17 97       	sbiw	r26, 0x07	; 7
    1b58:	93 83       	std	Z+3, r25	; 0x03
    1b5a:	82 83       	std	Z+2, r24	; 0x02
    1b5c:	80 e0       	ldi	r24, 0x00	; 0
    1b5e:	41 c0       	rjmp	.+130    	; 0x1be2 <f_open+0x3da>
    1b60:	89 e0       	ldi	r24, 0x09	; 9
    1b62:	3f c0       	rjmp	.+126    	; 0x1be2 <f_open+0x3da>
    1b64:	41 2f       	mov	r20, r17
    1b66:	4c 71       	andi	r20, 0x1C	; 28
    1b68:	09 f0       	breq	.+2      	; 0x1b6c <f_open+0x364>
    1b6a:	8d ce       	rjmp	.-742    	; 0x1886 <f_open+0x7e>
    1b6c:	1f c0       	rjmp	.+62     	; 0x1bac <f_open+0x3a4>
    1b6e:	81 2f       	mov	r24, r17
    1b70:	8c 71       	andi	r24, 0x1C	; 28
    1b72:	09 f0       	breq	.+2      	; 0x1b76 <f_open+0x36e>
    1b74:	cf ce       	rjmp	.-610    	; 0x1914 <f_open+0x10c>
    1b76:	27 c0       	rjmp	.+78     	; 0x1bc6 <f_open+0x3be>
    1b78:	41 2f       	mov	r20, r17
    1b7a:	4c 71       	andi	r20, 0x1C	; 28
    1b7c:	d9 f4       	brne	.+54     	; 0x1bb4 <f_open+0x3ac>
    1b7e:	86 e0       	ldi	r24, 0x06	; 6
    1b80:	15 c0       	rjmp	.+42     	; 0x1bac <f_open+0x3a4>
    1b82:	87 e0       	ldi	r24, 0x07	; 7
    1b84:	01 c0       	rjmp	.+2      	; 0x1b88 <f_open+0x380>
    1b86:	88 e0       	ldi	r24, 0x08	; 8
    1b88:	88 23       	and	r24, r24
    1b8a:	09 f4       	brne	.+2      	; 0x1b8e <f_open+0x386>
    1b8c:	98 cf       	rjmp	.-208    	; 0x1abe <f_open+0x2b6>
    1b8e:	29 c0       	rjmp	.+82     	; 0x1be2 <f_open+0x3da>
    1b90:	82 e0       	ldi	r24, 0x02	; 2
    1b92:	05 c0       	rjmp	.+10     	; 0x1b9e <f_open+0x396>
    1b94:	82 e0       	ldi	r24, 0x02	; 2
    1b96:	03 c0       	rjmp	.+6      	; 0x1b9e <f_open+0x396>
    1b98:	82 e0       	ldi	r24, 0x02	; 2
    1b9a:	01 c0       	rjmp	.+2      	; 0x1b9e <f_open+0x396>
    1b9c:	81 e0       	ldi	r24, 0x01	; 1
    1b9e:	88 23       	and	r24, r24
    1ba0:	09 f4       	brne	.+2      	; 0x1ba4 <f_open+0x39c>
    1ba2:	8f cf       	rjmp	.-226    	; 0x1ac2 <f_open+0x2ba>
    1ba4:	1e c0       	rjmp	.+60     	; 0x1be2 <f_open+0x3da>
    1ba6:	87 e0       	ldi	r24, 0x07	; 7
    1ba8:	01 c0       	rjmp	.+2      	; 0x1bac <f_open+0x3a4>
    1baa:	84 e0       	ldi	r24, 0x04	; 4
    1bac:	88 23       	and	r24, r24
    1bae:	09 f4       	brne	.+2      	; 0x1bb2 <f_open+0x3aa>
    1bb0:	98 cf       	rjmp	.-208    	; 0x1ae2 <f_open+0x2da>
    1bb2:	17 c0       	rjmp	.+46     	; 0x1be2 <f_open+0x3da>
    1bb4:	86 e0       	ldi	r24, 0x06	; 6
    1bb6:	01 c0       	rjmp	.+2      	; 0x1bba <f_open+0x3b2>
    1bb8:	87 e0       	ldi	r24, 0x07	; 7
    1bba:	bb 2d       	mov	r27, r11
    1bbc:	b8 60       	ori	r27, 0x08	; 8
    1bbe:	bb 2e       	mov	r11, r27
    1bc0:	cb 88       	ldd	r12, Y+19	; 0x13
    1bc2:	dc 88       	ldd	r13, Y+20	; 0x14
    1bc4:	f3 cf       	rjmp	.-26     	; 0x1bac <f_open+0x3a4>
    1bc6:	f6 01       	movw	r30, r12
    1bc8:	83 85       	ldd	r24, Z+11	; 0x0b
    1bca:	84 fd       	sbrc	r24, 4
    1bcc:	ee cf       	rjmp	.-36     	; 0x1baa <f_open+0x3a2>
    1bce:	73 cf       	rjmp	.-282    	; 0x1ab6 <f_open+0x2ae>
    1bd0:	fb 2d       	mov	r31, r11
    1bd2:	f8 60       	ori	r31, 0x08	; 8
    1bd4:	bf 2e       	mov	r11, r31
    1bd6:	cb 88       	ldd	r12, Y+19	; 0x13
    1bd8:	dc 88       	ldd	r13, Y+20	; 0x14
    1bda:	e8 cf       	rjmp	.-48     	; 0x1bac <f_open+0x3a4>
    1bdc:	84 30       	cpi	r24, 0x04	; 4
    1bde:	61 f3       	breq	.-40     	; 0x1bb8 <f_open+0x3b0>
    1be0:	f7 cf       	rjmp	.-18     	; 0x1bd0 <f_open+0x3c8>
    1be2:	e0 96       	adiw	r28, 0x30	; 48
    1be4:	0f b6       	in	r0, 0x3f	; 63
    1be6:	f8 94       	cli
    1be8:	de bf       	out	0x3e, r29	; 62
    1bea:	0f be       	out	0x3f, r0	; 63
    1bec:	cd bf       	out	0x3d, r28	; 61
    1bee:	df 91       	pop	r29
    1bf0:	cf 91       	pop	r28
    1bf2:	1f 91       	pop	r17
    1bf4:	0f 91       	pop	r16
    1bf6:	ff 90       	pop	r15
    1bf8:	ef 90       	pop	r14
    1bfa:	df 90       	pop	r13
    1bfc:	cf 90       	pop	r12
    1bfe:	bf 90       	pop	r11
    1c00:	9f 90       	pop	r9
    1c02:	8f 90       	pop	r8
    1c04:	7f 90       	pop	r7
    1c06:	6f 90       	pop	r6
    1c08:	5f 90       	pop	r5
    1c0a:	4f 90       	pop	r4
    1c0c:	08 95       	ret

00001c0e <f_write>:
    1c0e:	2f 92       	push	r2
    1c10:	3f 92       	push	r3
    1c12:	4f 92       	push	r4
    1c14:	5f 92       	push	r5
    1c16:	6f 92       	push	r6
    1c18:	7f 92       	push	r7
    1c1a:	8f 92       	push	r8
    1c1c:	9f 92       	push	r9
    1c1e:	af 92       	push	r10
    1c20:	bf 92       	push	r11
    1c22:	cf 92       	push	r12
    1c24:	df 92       	push	r13
    1c26:	ef 92       	push	r14
    1c28:	ff 92       	push	r15
    1c2a:	0f 93       	push	r16
    1c2c:	1f 93       	push	r17
    1c2e:	cf 93       	push	r28
    1c30:	df 93       	push	r29
    1c32:	ec 01       	movw	r28, r24
    1c34:	4b 01       	movw	r8, r22
    1c36:	6a 01       	movw	r12, r20
    1c38:	59 01       	movw	r10, r18
    1c3a:	f9 01       	movw	r30, r18
    1c3c:	11 82       	std	Z+1, r1	; 0x01
    1c3e:	10 82       	st	Z, r1
    1c40:	0e 94 df 01 	call	0x3be	; 0x3be <validate>
    1c44:	81 11       	cpse	r24, r1
    1c46:	6b c1       	rjmp	.+726    	; 0x1f1e <f_write+0x310>
    1c48:	8d 81       	ldd	r24, Y+5	; 0x05
    1c4a:	81 11       	cpse	r24, r1
    1c4c:	68 c1       	rjmp	.+720    	; 0x1f1e <f_write+0x310>
    1c4e:	8c 81       	ldd	r24, Y+4	; 0x04
    1c50:	81 ff       	sbrs	r24, 1
    1c52:	64 c1       	rjmp	.+712    	; 0x1f1c <f_write+0x30e>
    1c54:	8e 81       	ldd	r24, Y+6	; 0x06
    1c56:	9f 81       	ldd	r25, Y+7	; 0x07
    1c58:	a8 85       	ldd	r26, Y+8	; 0x08
    1c5a:	b9 85       	ldd	r27, Y+9	; 0x09
    1c5c:	ac 01       	movw	r20, r24
    1c5e:	bd 01       	movw	r22, r26
    1c60:	4c 0d       	add	r20, r12
    1c62:	5d 1d       	adc	r21, r13
    1c64:	61 1d       	adc	r22, r1
    1c66:	71 1d       	adc	r23, r1
    1c68:	48 17       	cp	r20, r24
    1c6a:	59 07       	cpc	r21, r25
    1c6c:	6a 07       	cpc	r22, r26
    1c6e:	7b 07       	cpc	r23, r27
    1c70:	08 f4       	brcc	.+2      	; 0x1c74 <f_write+0x66>
    1c72:	3e c1       	rjmp	.+636    	; 0x1ef0 <f_write+0x2e2>
    1c74:	c1 14       	cp	r12, r1
    1c76:	d1 04       	cpc	r13, r1
    1c78:	09 f4       	brne	.+2      	; 0x1c7c <f_write+0x6e>
    1c7a:	3a c1       	rjmp	.+628    	; 0x1ef0 <f_write+0x2e2>
    1c7c:	4e 81       	ldd	r20, Y+6	; 0x06
    1c7e:	5f 81       	ldd	r21, Y+7	; 0x07
    1c80:	68 85       	ldd	r22, Y+8	; 0x08
    1c82:	79 85       	ldd	r23, Y+9	; 0x09
    1c84:	db 01       	movw	r26, r22
    1c86:	ca 01       	movw	r24, r20
    1c88:	91 70       	andi	r25, 0x01	; 1
    1c8a:	aa 27       	eor	r26, r26
    1c8c:	bb 27       	eor	r27, r27
    1c8e:	89 2b       	or	r24, r25
    1c90:	8a 2b       	or	r24, r26
    1c92:	8b 2b       	or	r24, r27
    1c94:	09 f0       	breq	.+2      	; 0x1c98 <f_write+0x8a>
    1c96:	e6 c0       	rjmp	.+460    	; 0x1e64 <f_write+0x256>
    1c98:	e8 81       	ld	r30, Y
    1c9a:	f9 81       	ldd	r31, Y+1	; 0x01
    1c9c:	12 81       	ldd	r17, Z+2	; 0x02
    1c9e:	11 50       	subi	r17, 0x01	; 1
    1ca0:	db 01       	movw	r26, r22
    1ca2:	ca 01       	movw	r24, r20
    1ca4:	07 2e       	mov	r0, r23
    1ca6:	79 e0       	ldi	r23, 0x09	; 9
    1ca8:	b6 95       	lsr	r27
    1caa:	a7 95       	ror	r26
    1cac:	97 95       	ror	r25
    1cae:	87 95       	ror	r24
    1cb0:	7a 95       	dec	r23
    1cb2:	d1 f7       	brne	.-12     	; 0x1ca8 <f_write+0x9a>
    1cb4:	70 2d       	mov	r23, r0
    1cb6:	18 23       	and	r17, r24
    1cb8:	09 f0       	breq	.+2      	; 0x1cbc <f_write+0xae>
    1cba:	40 c0       	rjmp	.+128    	; 0x1d3c <f_write+0x12e>
    1cbc:	45 2b       	or	r20, r21
    1cbe:	46 2b       	or	r20, r22
    1cc0:	47 2b       	or	r20, r23
    1cc2:	79 f4       	brne	.+30     	; 0x1ce2 <f_write+0xd4>
    1cc4:	6e 85       	ldd	r22, Y+14	; 0x0e
    1cc6:	7f 85       	ldd	r23, Y+15	; 0x0f
    1cc8:	88 89       	ldd	r24, Y+16	; 0x10
    1cca:	99 89       	ldd	r25, Y+17	; 0x11
    1ccc:	61 15       	cp	r22, r1
    1cce:	71 05       	cpc	r23, r1
    1cd0:	81 05       	cpc	r24, r1
    1cd2:	91 05       	cpc	r25, r1
    1cd4:	91 f4       	brne	.+36     	; 0x1cfa <f_write+0xec>
    1cd6:	40 e0       	ldi	r20, 0x00	; 0
    1cd8:	50 e0       	ldi	r21, 0x00	; 0
    1cda:	ba 01       	movw	r22, r20
    1cdc:	cf 01       	movw	r24, r30
    1cde:	69 d9       	rcall	.-3374   	; 0xfb2 <create_chain>
    1ce0:	06 c0       	rjmp	.+12     	; 0x1cee <f_write+0xe0>
    1ce2:	4a 89       	ldd	r20, Y+18	; 0x12
    1ce4:	5b 89       	ldd	r21, Y+19	; 0x13
    1ce6:	6c 89       	ldd	r22, Y+20	; 0x14
    1ce8:	7d 89       	ldd	r23, Y+21	; 0x15
    1cea:	cf 01       	movw	r24, r30
    1cec:	62 d9       	rcall	.-3388   	; 0xfb2 <create_chain>
    1cee:	61 15       	cp	r22, r1
    1cf0:	71 05       	cpc	r23, r1
    1cf2:	81 05       	cpc	r24, r1
    1cf4:	91 05       	cpc	r25, r1
    1cf6:	09 f4       	brne	.+2      	; 0x1cfa <f_write+0xec>
    1cf8:	fb c0       	rjmp	.+502    	; 0x1ef0 <f_write+0x2e2>
    1cfa:	61 30       	cpi	r22, 0x01	; 1
    1cfc:	71 05       	cpc	r23, r1
    1cfe:	81 05       	cpc	r24, r1
    1d00:	91 05       	cpc	r25, r1
    1d02:	19 f4       	brne	.+6      	; 0x1d0a <f_write+0xfc>
    1d04:	82 e0       	ldi	r24, 0x02	; 2
    1d06:	8d 83       	std	Y+5, r24	; 0x05
    1d08:	0a c1       	rjmp	.+532    	; 0x1f1e <f_write+0x310>
    1d0a:	6f 3f       	cpi	r22, 0xFF	; 255
    1d0c:	ff ef       	ldi	r31, 0xFF	; 255
    1d0e:	7f 07       	cpc	r23, r31
    1d10:	8f 07       	cpc	r24, r31
    1d12:	9f 07       	cpc	r25, r31
    1d14:	19 f4       	brne	.+6      	; 0x1d1c <f_write+0x10e>
    1d16:	81 e0       	ldi	r24, 0x01	; 1
    1d18:	8d 83       	std	Y+5, r24	; 0x05
    1d1a:	01 c1       	rjmp	.+514    	; 0x1f1e <f_write+0x310>
    1d1c:	6a 8b       	std	Y+18, r22	; 0x12
    1d1e:	7b 8b       	std	Y+19, r23	; 0x13
    1d20:	8c 8b       	std	Y+20, r24	; 0x14
    1d22:	9d 8b       	std	Y+21, r25	; 0x15
    1d24:	4e 84       	ldd	r4, Y+14	; 0x0e
    1d26:	5f 84       	ldd	r5, Y+15	; 0x0f
    1d28:	68 88       	ldd	r6, Y+16	; 0x10
    1d2a:	79 88       	ldd	r7, Y+17	; 0x11
    1d2c:	45 28       	or	r4, r5
    1d2e:	46 28       	or	r4, r6
    1d30:	47 28       	or	r4, r7
    1d32:	21 f4       	brne	.+8      	; 0x1d3c <f_write+0x12e>
    1d34:	6e 87       	std	Y+14, r22	; 0x0e
    1d36:	7f 87       	std	Y+15, r23	; 0x0f
    1d38:	88 8b       	std	Y+16, r24	; 0x10
    1d3a:	99 8b       	std	Y+17, r25	; 0x11
    1d3c:	e8 81       	ld	r30, Y
    1d3e:	f9 81       	ldd	r31, Y+1	; 0x01
    1d40:	42 a5       	ldd	r20, Z+42	; 0x2a
    1d42:	53 a5       	ldd	r21, Z+43	; 0x2b
    1d44:	64 a5       	ldd	r22, Z+44	; 0x2c
    1d46:	75 a5       	ldd	r23, Z+45	; 0x2d
    1d48:	8e 89       	ldd	r24, Y+22	; 0x16
    1d4a:	9f 89       	ldd	r25, Y+23	; 0x17
    1d4c:	a8 8d       	ldd	r26, Y+24	; 0x18
    1d4e:	b9 8d       	ldd	r27, Y+25	; 0x19
    1d50:	48 17       	cp	r20, r24
    1d52:	59 07       	cpc	r21, r25
    1d54:	6a 07       	cpc	r22, r26
    1d56:	7b 07       	cpc	r23, r27
    1d58:	41 f4       	brne	.+16     	; 0x1d6a <f_write+0x15c>
    1d5a:	cf 01       	movw	r24, r30
    1d5c:	0e 94 fd 00 	call	0x1fa	; 0x1fa <sync_window>
    1d60:	88 23       	and	r24, r24
    1d62:	19 f0       	breq	.+6      	; 0x1d6a <f_write+0x15c>
    1d64:	81 e0       	ldi	r24, 0x01	; 1
    1d66:	8d 83       	std	Y+5, r24	; 0x05
    1d68:	da c0       	rjmp	.+436    	; 0x1f1e <f_write+0x310>
    1d6a:	28 80       	ld	r2, Y
    1d6c:	39 80       	ldd	r3, Y+1	; 0x01
    1d6e:	4a 89       	ldd	r20, Y+18	; 0x12
    1d70:	5b 89       	ldd	r21, Y+19	; 0x13
    1d72:	6c 89       	ldd	r22, Y+20	; 0x14
    1d74:	7d 89       	ldd	r23, Y+21	; 0x15
    1d76:	c1 01       	movw	r24, r2
    1d78:	0e 94 ec 04 	call	0x9d8	; 0x9d8 <clust2sect>
    1d7c:	61 15       	cp	r22, r1
    1d7e:	71 05       	cpc	r23, r1
    1d80:	81 05       	cpc	r24, r1
    1d82:	91 05       	cpc	r25, r1
    1d84:	19 f4       	brne	.+6      	; 0x1d8c <f_write+0x17e>
    1d86:	82 e0       	ldi	r24, 0x02	; 2
    1d88:	8d 83       	std	Y+5, r24	; 0x05
    1d8a:	c9 c0       	rjmp	.+402    	; 0x1f1e <f_write+0x310>
    1d8c:	2b 01       	movw	r4, r22
    1d8e:	3c 01       	movw	r6, r24
    1d90:	41 0e       	add	r4, r17
    1d92:	51 1c       	adc	r5, r1
    1d94:	61 1c       	adc	r6, r1
    1d96:	71 1c       	adc	r7, r1
    1d98:	76 01       	movw	r14, r12
    1d9a:	ef 2c       	mov	r14, r15
    1d9c:	ff 24       	eor	r15, r15
    1d9e:	e6 94       	lsr	r14
    1da0:	e1 14       	cp	r14, r1
    1da2:	f1 04       	cpc	r15, r1
    1da4:	09 f4       	brne	.+2      	; 0x1da8 <f_write+0x19a>
    1da6:	3f c0       	rjmp	.+126    	; 0x1e26 <f_write+0x218>
    1da8:	f1 01       	movw	r30, r2
    1daa:	42 81       	ldd	r20, Z+2	; 0x02
    1dac:	24 2f       	mov	r18, r20
    1dae:	30 e0       	ldi	r19, 0x00	; 0
    1db0:	c7 01       	movw	r24, r14
    1db2:	81 0f       	add	r24, r17
    1db4:	91 1d       	adc	r25, r1
    1db6:	28 17       	cp	r18, r24
    1db8:	39 07       	cpc	r19, r25
    1dba:	18 f4       	brcc	.+6      	; 0x1dc2 <f_write+0x1b4>
    1dbc:	79 01       	movw	r14, r18
    1dbe:	e1 1a       	sub	r14, r17
    1dc0:	f1 08       	sbc	r15, r1
    1dc2:	87 01       	movw	r16, r14
    1dc4:	a3 01       	movw	r20, r6
    1dc6:	92 01       	movw	r18, r4
    1dc8:	b4 01       	movw	r22, r8
    1dca:	f1 01       	movw	r30, r2
    1dcc:	81 81       	ldd	r24, Z+1	; 0x01
    1dce:	0e 94 c9 32 	call	0x6592	; 0x6592 <disk_write>
    1dd2:	88 23       	and	r24, r24
    1dd4:	19 f0       	breq	.+6      	; 0x1ddc <f_write+0x1ce>
    1dd6:	81 e0       	ldi	r24, 0x01	; 1
    1dd8:	8d 83       	std	Y+5, r24	; 0x05
    1dda:	a1 c0       	rjmp	.+322    	; 0x1f1e <f_write+0x310>
    1ddc:	e8 81       	ld	r30, Y
    1dde:	f9 81       	ldd	r31, Y+1	; 0x01
    1de0:	82 a5       	ldd	r24, Z+42	; 0x2a
    1de2:	93 a5       	ldd	r25, Z+43	; 0x2b
    1de4:	a4 a5       	ldd	r26, Z+44	; 0x2c
    1de6:	b5 a5       	ldd	r27, Z+45	; 0x2d
    1de8:	84 19       	sub	r24, r4
    1dea:	95 09       	sbc	r25, r5
    1dec:	a6 09       	sbc	r26, r6
    1dee:	b7 09       	sbc	r27, r7
    1df0:	a7 01       	movw	r20, r14
    1df2:	60 e0       	ldi	r22, 0x00	; 0
    1df4:	70 e0       	ldi	r23, 0x00	; 0
    1df6:	84 17       	cp	r24, r20
    1df8:	95 07       	cpc	r25, r21
    1dfa:	a6 07       	cpc	r26, r22
    1dfc:	b7 07       	cpc	r27, r23
    1dfe:	78 f4       	brcc	.+30     	; 0x1e1e <f_write+0x210>
    1e00:	98 2f       	mov	r25, r24
    1e02:	88 27       	eor	r24, r24
    1e04:	99 0f       	add	r25, r25
    1e06:	b4 01       	movw	r22, r8
    1e08:	68 0f       	add	r22, r24
    1e0a:	79 1f       	adc	r23, r25
    1e0c:	40 e0       	ldi	r20, 0x00	; 0
    1e0e:	52 e0       	ldi	r21, 0x02	; 2
    1e10:	cf 01       	movw	r24, r30
    1e12:	8e 96       	adiw	r24, 0x2e	; 46
    1e14:	0e 94 9a 00 	call	0x134	; 0x134 <mem_cpy>
    1e18:	e8 81       	ld	r30, Y
    1e1a:	f9 81       	ldd	r31, Y+1	; 0x01
    1e1c:	14 82       	std	Z+4, r1	; 0x04
    1e1e:	fe 2c       	mov	r15, r14
    1e20:	ee 24       	eor	r14, r14
    1e22:	ff 0c       	add	r15, r15
    1e24:	4c c0       	rjmp	.+152    	; 0x1ebe <f_write+0x2b0>
    1e26:	4e 81       	ldd	r20, Y+6	; 0x06
    1e28:	5f 81       	ldd	r21, Y+7	; 0x07
    1e2a:	68 85       	ldd	r22, Y+8	; 0x08
    1e2c:	79 85       	ldd	r23, Y+9	; 0x09
    1e2e:	8a 85       	ldd	r24, Y+10	; 0x0a
    1e30:	9b 85       	ldd	r25, Y+11	; 0x0b
    1e32:	ac 85       	ldd	r26, Y+12	; 0x0c
    1e34:	bd 85       	ldd	r27, Y+13	; 0x0d
    1e36:	48 17       	cp	r20, r24
    1e38:	59 07       	cpc	r21, r25
    1e3a:	6a 07       	cpc	r22, r26
    1e3c:	7b 07       	cpc	r23, r27
    1e3e:	70 f0       	brcs	.+28     	; 0x1e5c <f_write+0x24e>
    1e40:	c1 01       	movw	r24, r2
    1e42:	0e 94 fd 00 	call	0x1fa	; 0x1fa <sync_window>
    1e46:	88 23       	and	r24, r24
    1e48:	19 f0       	breq	.+6      	; 0x1e50 <f_write+0x242>
    1e4a:	81 e0       	ldi	r24, 0x01	; 1
    1e4c:	8d 83       	std	Y+5, r24	; 0x05
    1e4e:	67 c0       	rjmp	.+206    	; 0x1f1e <f_write+0x310>
    1e50:	e8 81       	ld	r30, Y
    1e52:	f9 81       	ldd	r31, Y+1	; 0x01
    1e54:	42 a6       	std	Z+42, r4	; 0x2a
    1e56:	53 a6       	std	Z+43, r5	; 0x2b
    1e58:	64 a6       	std	Z+44, r6	; 0x2c
    1e5a:	75 a6       	std	Z+45, r7	; 0x2d
    1e5c:	4e 8a       	std	Y+22, r4	; 0x16
    1e5e:	5f 8a       	std	Y+23, r5	; 0x17
    1e60:	68 8e       	std	Y+24, r6	; 0x18
    1e62:	79 8e       	std	Y+25, r7	; 0x19
    1e64:	2e 81       	ldd	r18, Y+6	; 0x06
    1e66:	3f 81       	ldd	r19, Y+7	; 0x07
    1e68:	31 70       	andi	r19, 0x01	; 1
    1e6a:	80 e0       	ldi	r24, 0x00	; 0
    1e6c:	92 e0       	ldi	r25, 0x02	; 2
    1e6e:	82 1b       	sub	r24, r18
    1e70:	93 0b       	sbc	r25, r19
    1e72:	76 01       	movw	r14, r12
    1e74:	8c 15       	cp	r24, r12
    1e76:	9d 05       	cpc	r25, r13
    1e78:	08 f4       	brcc	.+2      	; 0x1e7c <f_write+0x26e>
    1e7a:	7c 01       	movw	r14, r24
    1e7c:	4e 89       	ldd	r20, Y+22	; 0x16
    1e7e:	5f 89       	ldd	r21, Y+23	; 0x17
    1e80:	68 8d       	ldd	r22, Y+24	; 0x18
    1e82:	79 8d       	ldd	r23, Y+25	; 0x19
    1e84:	88 81       	ld	r24, Y
    1e86:	99 81       	ldd	r25, Y+1	; 0x01
    1e88:	0e 94 68 01 	call	0x2d0	; 0x2d0 <move_window>
    1e8c:	88 23       	and	r24, r24
    1e8e:	19 f0       	breq	.+6      	; 0x1e96 <f_write+0x288>
    1e90:	81 e0       	ldi	r24, 0x01	; 1
    1e92:	8d 83       	std	Y+5, r24	; 0x05
    1e94:	44 c0       	rjmp	.+136    	; 0x1f1e <f_write+0x310>
    1e96:	8e 81       	ldd	r24, Y+6	; 0x06
    1e98:	9f 81       	ldd	r25, Y+7	; 0x07
    1e9a:	a8 85       	ldd	r26, Y+8	; 0x08
    1e9c:	b9 85       	ldd	r27, Y+9	; 0x09
    1e9e:	91 70       	andi	r25, 0x01	; 1
    1ea0:	aa 27       	eor	r26, r26
    1ea2:	bb 27       	eor	r27, r27
    1ea4:	8e 96       	adiw	r24, 0x2e	; 46
    1ea6:	28 81       	ld	r18, Y
    1ea8:	39 81       	ldd	r19, Y+1	; 0x01
    1eaa:	a7 01       	movw	r20, r14
    1eac:	b4 01       	movw	r22, r8
    1eae:	82 0f       	add	r24, r18
    1eb0:	93 1f       	adc	r25, r19
    1eb2:	0e 94 9a 00 	call	0x134	; 0x134 <mem_cpy>
    1eb6:	e8 81       	ld	r30, Y
    1eb8:	f9 81       	ldd	r31, Y+1	; 0x01
    1eba:	21 e0       	ldi	r18, 0x01	; 1
    1ebc:	24 83       	std	Z+4, r18	; 0x04
    1ebe:	8e 0c       	add	r8, r14
    1ec0:	9f 1c       	adc	r9, r15
    1ec2:	8e 81       	ldd	r24, Y+6	; 0x06
    1ec4:	9f 81       	ldd	r25, Y+7	; 0x07
    1ec6:	a8 85       	ldd	r26, Y+8	; 0x08
    1ec8:	b9 85       	ldd	r27, Y+9	; 0x09
    1eca:	8e 0d       	add	r24, r14
    1ecc:	9f 1d       	adc	r25, r15
    1ece:	a1 1d       	adc	r26, r1
    1ed0:	b1 1d       	adc	r27, r1
    1ed2:	8e 83       	std	Y+6, r24	; 0x06
    1ed4:	9f 83       	std	Y+7, r25	; 0x07
    1ed6:	a8 87       	std	Y+8, r26	; 0x08
    1ed8:	b9 87       	std	Y+9, r27	; 0x09
    1eda:	f5 01       	movw	r30, r10
    1edc:	80 81       	ld	r24, Z
    1ede:	91 81       	ldd	r25, Z+1	; 0x01
    1ee0:	8e 0d       	add	r24, r14
    1ee2:	9f 1d       	adc	r25, r15
    1ee4:	91 83       	std	Z+1, r25	; 0x01
    1ee6:	80 83       	st	Z, r24
    1ee8:	ce 18       	sub	r12, r14
    1eea:	df 08       	sbc	r13, r15
    1eec:	09 f0       	breq	.+2      	; 0x1ef0 <f_write+0x2e2>
    1eee:	c6 ce       	rjmp	.-628    	; 0x1c7c <f_write+0x6e>
    1ef0:	8e 81       	ldd	r24, Y+6	; 0x06
    1ef2:	9f 81       	ldd	r25, Y+7	; 0x07
    1ef4:	a8 85       	ldd	r26, Y+8	; 0x08
    1ef6:	b9 85       	ldd	r27, Y+9	; 0x09
    1ef8:	4a 85       	ldd	r20, Y+10	; 0x0a
    1efa:	5b 85       	ldd	r21, Y+11	; 0x0b
    1efc:	6c 85       	ldd	r22, Y+12	; 0x0c
    1efe:	7d 85       	ldd	r23, Y+13	; 0x0d
    1f00:	48 17       	cp	r20, r24
    1f02:	59 07       	cpc	r21, r25
    1f04:	6a 07       	cpc	r22, r26
    1f06:	7b 07       	cpc	r23, r27
    1f08:	20 f4       	brcc	.+8      	; 0x1f12 <f_write+0x304>
    1f0a:	8a 87       	std	Y+10, r24	; 0x0a
    1f0c:	9b 87       	std	Y+11, r25	; 0x0b
    1f0e:	ac 87       	std	Y+12, r26	; 0x0c
    1f10:	bd 87       	std	Y+13, r27	; 0x0d
    1f12:	8c 81       	ldd	r24, Y+4	; 0x04
    1f14:	80 62       	ori	r24, 0x20	; 32
    1f16:	8c 83       	std	Y+4, r24	; 0x04
    1f18:	80 e0       	ldi	r24, 0x00	; 0
    1f1a:	01 c0       	rjmp	.+2      	; 0x1f1e <f_write+0x310>
    1f1c:	87 e0       	ldi	r24, 0x07	; 7
    1f1e:	df 91       	pop	r29
    1f20:	cf 91       	pop	r28
    1f22:	1f 91       	pop	r17
    1f24:	0f 91       	pop	r16
    1f26:	ff 90       	pop	r15
    1f28:	ef 90       	pop	r14
    1f2a:	df 90       	pop	r13
    1f2c:	cf 90       	pop	r12
    1f2e:	bf 90       	pop	r11
    1f30:	af 90       	pop	r10
    1f32:	9f 90       	pop	r9
    1f34:	8f 90       	pop	r8
    1f36:	7f 90       	pop	r7
    1f38:	6f 90       	pop	r6
    1f3a:	5f 90       	pop	r5
    1f3c:	4f 90       	pop	r4
    1f3e:	3f 90       	pop	r3
    1f40:	2f 90       	pop	r2
    1f42:	08 95       	ret

00001f44 <f_sync>:
    1f44:	0f 93       	push	r16
    1f46:	1f 93       	push	r17
    1f48:	cf 93       	push	r28
    1f4a:	df 93       	push	r29
    1f4c:	ec 01       	movw	r28, r24
    1f4e:	0e 94 df 01 	call	0x3be	; 0x3be <validate>
    1f52:	98 2f       	mov	r25, r24
    1f54:	81 11       	cpse	r24, r1
    1f56:	98 c0       	rjmp	.+304    	; 0x2088 <f_sync+0x144>
    1f58:	8c 81       	ldd	r24, Y+4	; 0x04
    1f5a:	85 ff       	sbrs	r24, 5
    1f5c:	95 c0       	rjmp	.+298    	; 0x2088 <f_sync+0x144>
    1f5e:	4a 8d       	ldd	r20, Y+26	; 0x1a
    1f60:	5b 8d       	ldd	r21, Y+27	; 0x1b
    1f62:	6c 8d       	ldd	r22, Y+28	; 0x1c
    1f64:	7d 8d       	ldd	r23, Y+29	; 0x1d
    1f66:	88 81       	ld	r24, Y
    1f68:	99 81       	ldd	r25, Y+1	; 0x01
    1f6a:	0e 94 68 01 	call	0x2d0	; 0x2d0 <move_window>
    1f6e:	98 2f       	mov	r25, r24
    1f70:	81 11       	cpse	r24, r1
    1f72:	8a c0       	rjmp	.+276    	; 0x2088 <f_sync+0x144>
    1f74:	ee 8d       	ldd	r30, Y+30	; 0x1e
    1f76:	ff 8d       	ldd	r31, Y+31	; 0x1f
    1f78:	83 85       	ldd	r24, Z+11	; 0x0b
    1f7a:	80 62       	ori	r24, 0x20	; 32
    1f7c:	83 87       	std	Z+11, r24	; 0x0b
    1f7e:	8a 85       	ldd	r24, Y+10	; 0x0a
    1f80:	9b 85       	ldd	r25, Y+11	; 0x0b
    1f82:	ac 85       	ldd	r26, Y+12	; 0x0c
    1f84:	bd 85       	ldd	r27, Y+13	; 0x0d
    1f86:	84 8f       	std	Z+28, r24	; 0x1c
    1f88:	95 8f       	std	Z+29, r25	; 0x1d
    1f8a:	a6 8f       	std	Z+30, r26	; 0x1e
    1f8c:	b7 8f       	std	Z+31, r27	; 0x1f
    1f8e:	8e 85       	ldd	r24, Y+14	; 0x0e
    1f90:	9f 85       	ldd	r25, Y+15	; 0x0f
    1f92:	a8 89       	ldd	r26, Y+16	; 0x10
    1f94:	b9 89       	ldd	r27, Y+17	; 0x11
    1f96:	93 8f       	std	Z+27, r25	; 0x1b
    1f98:	82 8f       	std	Z+26, r24	; 0x1a
    1f9a:	b5 8b       	std	Z+21, r27	; 0x15
    1f9c:	a4 8b       	std	Z+20, r26	; 0x14
    1f9e:	80 e0       	ldi	r24, 0x00	; 0
    1fa0:	90 e0       	ldi	r25, 0x00	; 0
    1fa2:	a5 e8       	ldi	r26, 0x85	; 133
    1fa4:	b8 e4       	ldi	r27, 0x48	; 72
    1fa6:	86 8b       	std	Z+22, r24	; 0x16
    1fa8:	97 8b       	std	Z+23, r25	; 0x17
    1faa:	a0 8f       	std	Z+24, r26	; 0x18
    1fac:	b1 8f       	std	Z+25, r27	; 0x19
    1fae:	13 8a       	std	Z+19, r1	; 0x13
    1fb0:	12 8a       	std	Z+18, r1	; 0x12
    1fb2:	8c 81       	ldd	r24, Y+4	; 0x04
    1fb4:	8f 7d       	andi	r24, 0xDF	; 223
    1fb6:	8c 83       	std	Y+4, r24	; 0x04
    1fb8:	e8 81       	ld	r30, Y
    1fba:	f9 81       	ldd	r31, Y+1	; 0x01
    1fbc:	81 e0       	ldi	r24, 0x01	; 1
    1fbe:	84 83       	std	Z+4, r24	; 0x04
    1fc0:	09 90       	ld	r0, Y+
    1fc2:	d8 81       	ld	r29, Y
    1fc4:	c0 2d       	mov	r28, r0
    1fc6:	ce 01       	movw	r24, r28
    1fc8:	0e 94 fd 00 	call	0x1fa	; 0x1fa <sync_window>
    1fcc:	98 2f       	mov	r25, r24
    1fce:	81 11       	cpse	r24, r1
    1fd0:	5b c0       	rjmp	.+182    	; 0x2088 <f_sync+0x144>
    1fd2:	88 81       	ld	r24, Y
    1fd4:	83 30       	cpi	r24, 0x03	; 3
    1fd6:	09 f0       	breq	.+2      	; 0x1fda <f_sync+0x96>
    1fd8:	4d c0       	rjmp	.+154    	; 0x2074 <f_sync+0x130>
    1fda:	8d 81       	ldd	r24, Y+5	; 0x05
    1fdc:	81 30       	cpi	r24, 0x01	; 1
    1fde:	09 f0       	breq	.+2      	; 0x1fe2 <f_sync+0x9e>
    1fe0:	49 c0       	rjmp	.+146    	; 0x2074 <f_sync+0x130>
    1fe2:	be 01       	movw	r22, r28
    1fe4:	62 5d       	subi	r22, 0xD2	; 210
    1fe6:	7f 4f       	sbci	r23, 0xFF	; 255
    1fe8:	fb 01       	movw	r30, r22
    1fea:	ce 01       	movw	r24, r28
    1fec:	82 5d       	subi	r24, 0xD2	; 210
    1fee:	9d 4f       	sbci	r25, 0xFD	; 253
    1ff0:	11 92       	st	Z+, r1
    1ff2:	e8 17       	cp	r30, r24
    1ff4:	f9 07       	cpc	r31, r25
    1ff6:	e1 f7       	brne	.-8      	; 0x1ff0 <f_sync+0xac>
    1ff8:	85 e5       	ldi	r24, 0x55	; 85
    1ffa:	9a ea       	ldi	r25, 0xAA	; 170
    1ffc:	fe 01       	movw	r30, r28
    1ffe:	e4 5d       	subi	r30, 0xD4	; 212
    2000:	fd 4f       	sbci	r31, 0xFD	; 253
    2002:	91 83       	std	Z+1, r25	; 0x01
    2004:	80 83       	st	Z, r24
    2006:	82 e5       	ldi	r24, 0x52	; 82
    2008:	92 e5       	ldi	r25, 0x52	; 82
    200a:	a1 e6       	ldi	r26, 0x61	; 97
    200c:	b1 e4       	ldi	r27, 0x41	; 65
    200e:	8e a7       	std	Y+46, r24	; 0x2e
    2010:	9f a7       	std	Y+47, r25	; 0x2f
    2012:	a8 ab       	std	Y+48, r26	; 0x30
    2014:	b9 ab       	std	Y+49, r27	; 0x31
    2016:	82 e7       	ldi	r24, 0x72	; 114
    2018:	92 e7       	ldi	r25, 0x72	; 114
    201a:	a1 e4       	ldi	r26, 0x41	; 65
    201c:	b1 e6       	ldi	r27, 0x61	; 97
    201e:	7a 97       	sbiw	r30, 0x1a	; 26
    2020:	80 83       	st	Z, r24
    2022:	91 83       	std	Z+1, r25	; 0x01
    2024:	a2 83       	std	Z+2, r26	; 0x02
    2026:	b3 83       	std	Z+3, r27	; 0x03
    2028:	8e 85       	ldd	r24, Y+14	; 0x0e
    202a:	9f 85       	ldd	r25, Y+15	; 0x0f
    202c:	a8 89       	ldd	r26, Y+16	; 0x10
    202e:	b9 89       	ldd	r27, Y+17	; 0x11
    2030:	34 96       	adiw	r30, 0x04	; 4
    2032:	80 83       	st	Z, r24
    2034:	91 83       	std	Z+1, r25	; 0x01
    2036:	a2 83       	std	Z+2, r26	; 0x02
    2038:	b3 83       	std	Z+3, r27	; 0x03
    203a:	8a 85       	ldd	r24, Y+10	; 0x0a
    203c:	9b 85       	ldd	r25, Y+11	; 0x0b
    203e:	ac 85       	ldd	r26, Y+12	; 0x0c
    2040:	bd 85       	ldd	r27, Y+13	; 0x0d
    2042:	34 96       	adiw	r30, 0x04	; 4
    2044:	80 83       	st	Z, r24
    2046:	91 83       	std	Z+1, r25	; 0x01
    2048:	a2 83       	std	Z+2, r26	; 0x02
    204a:	b3 83       	std	Z+3, r27	; 0x03
    204c:	8a 8d       	ldd	r24, Y+26	; 0x1a
    204e:	9b 8d       	ldd	r25, Y+27	; 0x1b
    2050:	ac 8d       	ldd	r26, Y+28	; 0x1c
    2052:	bd 8d       	ldd	r27, Y+29	; 0x1d
    2054:	9c 01       	movw	r18, r24
    2056:	ad 01       	movw	r20, r26
    2058:	2f 5f       	subi	r18, 0xFF	; 255
    205a:	3f 4f       	sbci	r19, 0xFF	; 255
    205c:	4f 4f       	sbci	r20, 0xFF	; 255
    205e:	5f 4f       	sbci	r21, 0xFF	; 255
    2060:	2a a7       	std	Y+42, r18	; 0x2a
    2062:	3b a7       	std	Y+43, r19	; 0x2b
    2064:	4c a7       	std	Y+44, r20	; 0x2c
    2066:	5d a7       	std	Y+45, r21	; 0x2d
    2068:	01 e0       	ldi	r16, 0x01	; 1
    206a:	10 e0       	ldi	r17, 0x00	; 0
    206c:	89 81       	ldd	r24, Y+1	; 0x01
    206e:	0e 94 c9 32 	call	0x6592	; 0x6592 <disk_write>
    2072:	1d 82       	std	Y+5, r1	; 0x05
    2074:	40 e0       	ldi	r20, 0x00	; 0
    2076:	50 e0       	ldi	r21, 0x00	; 0
    2078:	60 e0       	ldi	r22, 0x00	; 0
    207a:	89 81       	ldd	r24, Y+1	; 0x01
    207c:	0e 94 2b 33 	call	0x6656	; 0x6656 <disk_ioctl>
    2080:	91 e0       	ldi	r25, 0x01	; 1
    2082:	81 11       	cpse	r24, r1
    2084:	01 c0       	rjmp	.+2      	; 0x2088 <f_sync+0x144>
    2086:	90 e0       	ldi	r25, 0x00	; 0
    2088:	89 2f       	mov	r24, r25
    208a:	df 91       	pop	r29
    208c:	cf 91       	pop	r28
    208e:	1f 91       	pop	r17
    2090:	0f 91       	pop	r16
    2092:	08 95       	ret

00002094 <f_close>:
    2094:	cf 93       	push	r28
    2096:	df 93       	push	r29
    2098:	ec 01       	movw	r28, r24
    209a:	54 df       	rcall	.-344    	; 0x1f44 <f_sync>
    209c:	81 11       	cpse	r24, r1
    209e:	07 c0       	rjmp	.+14     	; 0x20ae <f_close+0x1a>
    20a0:	ce 01       	movw	r24, r28
    20a2:	0e 94 df 01 	call	0x3be	; 0x3be <validate>
    20a6:	81 11       	cpse	r24, r1
    20a8:	02 c0       	rjmp	.+4      	; 0x20ae <f_close+0x1a>
    20aa:	19 82       	std	Y+1, r1	; 0x01
    20ac:	18 82       	st	Y, r1
    20ae:	df 91       	pop	r29
    20b0:	cf 91       	pop	r28
    20b2:	08 95       	ret

000020b4 <f_lseek>:
    20b4:	2f 92       	push	r2
    20b6:	3f 92       	push	r3
    20b8:	4f 92       	push	r4
    20ba:	5f 92       	push	r5
    20bc:	6f 92       	push	r6
    20be:	7f 92       	push	r7
    20c0:	8f 92       	push	r8
    20c2:	9f 92       	push	r9
    20c4:	af 92       	push	r10
    20c6:	bf 92       	push	r11
    20c8:	cf 92       	push	r12
    20ca:	df 92       	push	r13
    20cc:	ef 92       	push	r14
    20ce:	ff 92       	push	r15
    20d0:	0f 93       	push	r16
    20d2:	1f 93       	push	r17
    20d4:	cf 93       	push	r28
    20d6:	df 93       	push	r29
    20d8:	00 d0       	rcall	.+0      	; 0x20da <f_lseek+0x26>
    20da:	1f 92       	push	r1
    20dc:	cd b7       	in	r28, 0x3d	; 61
    20de:	de b7       	in	r29, 0x3e	; 62
    20e0:	1c 01       	movw	r2, r24
    20e2:	6a 01       	movw	r12, r20
    20e4:	7b 01       	movw	r14, r22
    20e6:	0e 94 df 01 	call	0x3be	; 0x3be <validate>
    20ea:	81 11       	cpse	r24, r1
    20ec:	83 c1       	rjmp	.+774    	; 0x23f4 <__stack+0x1f5>
    20ee:	d1 01       	movw	r26, r2
    20f0:	15 96       	adiw	r26, 0x05	; 5
    20f2:	8c 91       	ld	r24, X
    20f4:	15 97       	sbiw	r26, 0x05	; 5
    20f6:	81 11       	cpse	r24, r1
    20f8:	7d c1       	rjmp	.+762    	; 0x23f4 <__stack+0x1f5>
    20fa:	1a 96       	adiw	r26, 0x0a	; 10
    20fc:	8d 91       	ld	r24, X+
    20fe:	9d 91       	ld	r25, X+
    2100:	0d 90       	ld	r0, X+
    2102:	bc 91       	ld	r27, X
    2104:	a0 2d       	mov	r26, r0
    2106:	8c 15       	cp	r24, r12
    2108:	9d 05       	cpc	r25, r13
    210a:	ae 05       	cpc	r26, r14
    210c:	bf 05       	cpc	r27, r15
    210e:	30 f4       	brcc	.+12     	; 0x211c <f_lseek+0x68>
    2110:	f1 01       	movw	r30, r2
    2112:	24 81       	ldd	r18, Z+4	; 0x04
    2114:	21 fd       	sbrc	r18, 1
    2116:	02 c0       	rjmp	.+4      	; 0x211c <f_lseek+0x68>
    2118:	6c 01       	movw	r12, r24
    211a:	7d 01       	movw	r14, r26
    211c:	d1 01       	movw	r26, r2
    211e:	16 96       	adiw	r26, 0x06	; 6
    2120:	4d 90       	ld	r4, X+
    2122:	5d 90       	ld	r5, X+
    2124:	6d 90       	ld	r6, X+
    2126:	7c 90       	ld	r7, X
    2128:	19 97       	sbiw	r26, 0x09	; 9
    212a:	f1 01       	movw	r30, r2
    212c:	16 82       	std	Z+6, r1	; 0x06
    212e:	17 82       	std	Z+7, r1	; 0x07
    2130:	10 86       	std	Z+8, r1	; 0x08
    2132:	11 86       	std	Z+9, r1	; 0x09
    2134:	c1 14       	cp	r12, r1
    2136:	d1 04       	cpc	r13, r1
    2138:	e1 04       	cpc	r14, r1
    213a:	f1 04       	cpc	r15, r1
    213c:	09 f4       	brne	.+2      	; 0x2140 <f_lseek+0x8c>
    213e:	57 c1       	rjmp	.+686    	; 0x23ee <__stack+0x1ef>
    2140:	00 81       	ld	r16, Z
    2142:	11 81       	ldd	r17, Z+1	; 0x01
    2144:	d8 01       	movw	r26, r16
    2146:	12 96       	adiw	r26, 0x02	; 2
    2148:	8c 90       	ld	r8, X
    214a:	91 2c       	mov	r9, r1
    214c:	a1 2c       	mov	r10, r1
    214e:	b1 2c       	mov	r11, r1
    2150:	07 2e       	mov	r0, r23
    2152:	79 e0       	ldi	r23, 0x09	; 9
    2154:	88 0c       	add	r8, r8
    2156:	99 1c       	adc	r9, r9
    2158:	aa 1c       	adc	r10, r10
    215a:	bb 1c       	adc	r11, r11
    215c:	7a 95       	dec	r23
    215e:	d1 f7       	brne	.-12     	; 0x2154 <f_lseek+0xa0>
    2160:	70 2d       	mov	r23, r0
    2162:	41 14       	cp	r4, r1
    2164:	51 04       	cpc	r5, r1
    2166:	61 04       	cpc	r6, r1
    2168:	71 04       	cpc	r7, r1
    216a:	09 f4       	brne	.+2      	; 0x216e <f_lseek+0xba>
    216c:	3f c0       	rjmp	.+126    	; 0x21ec <f_lseek+0x138>
    216e:	b1 e0       	ldi	r27, 0x01	; 1
    2170:	4b 1a       	sub	r4, r27
    2172:	51 08       	sbc	r5, r1
    2174:	61 08       	sbc	r6, r1
    2176:	71 08       	sbc	r7, r1
    2178:	c7 01       	movw	r24, r14
    217a:	b6 01       	movw	r22, r12
    217c:	61 50       	subi	r22, 0x01	; 1
    217e:	71 09       	sbc	r23, r1
    2180:	81 09       	sbc	r24, r1
    2182:	91 09       	sbc	r25, r1
    2184:	a5 01       	movw	r20, r10
    2186:	94 01       	movw	r18, r8
    2188:	0e 94 0d 36 	call	0x6c1a	; 0x6c1a <__udivmodsi4>
    218c:	29 83       	std	Y+1, r18	; 0x01
    218e:	3a 83       	std	Y+2, r19	; 0x02
    2190:	4b 83       	std	Y+3, r20	; 0x03
    2192:	5c 83       	std	Y+4, r21	; 0x04
    2194:	c3 01       	movw	r24, r6
    2196:	b2 01       	movw	r22, r4
    2198:	a5 01       	movw	r20, r10
    219a:	94 01       	movw	r18, r8
    219c:	0e 94 0d 36 	call	0x6c1a	; 0x6c1a <__udivmodsi4>
    21a0:	89 81       	ldd	r24, Y+1	; 0x01
    21a2:	9a 81       	ldd	r25, Y+2	; 0x02
    21a4:	ab 81       	ldd	r26, Y+3	; 0x03
    21a6:	bc 81       	ldd	r27, Y+4	; 0x04
    21a8:	82 17       	cp	r24, r18
    21aa:	93 07       	cpc	r25, r19
    21ac:	a4 07       	cpc	r26, r20
    21ae:	b5 07       	cpc	r27, r21
    21b0:	e8 f0       	brcs	.+58     	; 0x21ec <f_lseek+0x138>
    21b2:	88 27       	eor	r24, r24
    21b4:	99 27       	eor	r25, r25
    21b6:	dc 01       	movw	r26, r24
    21b8:	88 19       	sub	r24, r8
    21ba:	99 09       	sbc	r25, r9
    21bc:	aa 09       	sbc	r26, r10
    21be:	bb 09       	sbc	r27, r11
    21c0:	48 22       	and	r4, r24
    21c2:	59 22       	and	r5, r25
    21c4:	6a 22       	and	r6, r26
    21c6:	7b 22       	and	r7, r27
    21c8:	d1 01       	movw	r26, r2
    21ca:	16 96       	adiw	r26, 0x06	; 6
    21cc:	4d 92       	st	X+, r4
    21ce:	5d 92       	st	X+, r5
    21d0:	6d 92       	st	X+, r6
    21d2:	7c 92       	st	X, r7
    21d4:	19 97       	sbiw	r26, 0x09	; 9
    21d6:	c4 18       	sub	r12, r4
    21d8:	d5 08       	sbc	r13, r5
    21da:	e6 08       	sbc	r14, r6
    21dc:	f7 08       	sbc	r15, r7
    21de:	52 96       	adiw	r26, 0x12	; 18
    21e0:	4d 91       	ld	r20, X+
    21e2:	5d 91       	ld	r21, X+
    21e4:	6d 91       	ld	r22, X+
    21e6:	7c 91       	ld	r23, X
    21e8:	55 97       	sbiw	r26, 0x15	; 21
    21ea:	32 c0       	rjmp	.+100    	; 0x2250 <__stack+0x51>
    21ec:	f1 01       	movw	r30, r2
    21ee:	46 85       	ldd	r20, Z+14	; 0x0e
    21f0:	57 85       	ldd	r21, Z+15	; 0x0f
    21f2:	60 89       	ldd	r22, Z+16	; 0x10
    21f4:	71 89       	ldd	r23, Z+17	; 0x11
    21f6:	41 15       	cp	r20, r1
    21f8:	51 05       	cpc	r21, r1
    21fa:	61 05       	cpc	r22, r1
    21fc:	71 05       	cpc	r23, r1
    21fe:	19 f5       	brne	.+70     	; 0x2246 <__stack+0x47>
    2200:	40 e0       	ldi	r20, 0x00	; 0
    2202:	50 e0       	ldi	r21, 0x00	; 0
    2204:	ba 01       	movw	r22, r20
    2206:	c8 01       	movw	r24, r16
    2208:	0e 94 d9 07 	call	0xfb2	; 0xfb2 <create_chain>
    220c:	ab 01       	movw	r20, r22
    220e:	bc 01       	movw	r22, r24
    2210:	41 30       	cpi	r20, 0x01	; 1
    2212:	51 05       	cpc	r21, r1
    2214:	61 05       	cpc	r22, r1
    2216:	71 05       	cpc	r23, r1
    2218:	29 f4       	brne	.+10     	; 0x2224 <__stack+0x25>
    221a:	82 e0       	ldi	r24, 0x02	; 2
    221c:	d1 01       	movw	r26, r2
    221e:	15 96       	adiw	r26, 0x05	; 5
    2220:	8c 93       	st	X, r24
    2222:	e8 c0       	rjmp	.+464    	; 0x23f4 <__stack+0x1f5>
    2224:	4f 3f       	cpi	r20, 0xFF	; 255
    2226:	bf ef       	ldi	r27, 0xFF	; 255
    2228:	5b 07       	cpc	r21, r27
    222a:	6b 07       	cpc	r22, r27
    222c:	7b 07       	cpc	r23, r27
    222e:	21 f4       	brne	.+8      	; 0x2238 <__stack+0x39>
    2230:	81 e0       	ldi	r24, 0x01	; 1
    2232:	f1 01       	movw	r30, r2
    2234:	85 83       	std	Z+5, r24	; 0x05
    2236:	de c0       	rjmp	.+444    	; 0x23f4 <__stack+0x1f5>
    2238:	d1 01       	movw	r26, r2
    223a:	1e 96       	adiw	r26, 0x0e	; 14
    223c:	4d 93       	st	X+, r20
    223e:	5d 93       	st	X+, r21
    2240:	6d 93       	st	X+, r22
    2242:	7c 93       	st	X, r23
    2244:	51 97       	sbiw	r26, 0x11	; 17
    2246:	f1 01       	movw	r30, r2
    2248:	42 8b       	std	Z+18, r20	; 0x12
    224a:	53 8b       	std	Z+19, r21	; 0x13
    224c:	64 8b       	std	Z+20, r22	; 0x14
    224e:	75 8b       	std	Z+21, r23	; 0x15
    2250:	41 15       	cp	r20, r1
    2252:	51 05       	cpc	r21, r1
    2254:	61 05       	cpc	r22, r1
    2256:	71 05       	cpc	r23, r1
    2258:	09 f4       	brne	.+2      	; 0x225c <__stack+0x5d>
    225a:	94 c0       	rjmp	.+296    	; 0x2384 <__stack+0x185>
    225c:	8c 14       	cp	r8, r12
    225e:	9d 04       	cpc	r9, r13
    2260:	ae 04       	cpc	r10, r14
    2262:	bf 04       	cpc	r11, r15
    2264:	08 f0       	brcs	.+2      	; 0x2268 <__stack+0x69>
    2266:	5c c0       	rjmp	.+184    	; 0x2320 <__stack+0x121>
    2268:	d1 01       	movw	r26, r2
    226a:	14 96       	adiw	r26, 0x04	; 4
    226c:	8c 91       	ld	r24, X
    226e:	14 97       	sbiw	r26, 0x04	; 4
    2270:	81 ff       	sbrs	r24, 1
    2272:	0c c0       	rjmp	.+24     	; 0x228c <__stack+0x8d>
    2274:	8d 91       	ld	r24, X+
    2276:	9c 91       	ld	r25, X
    2278:	0e 94 d9 07 	call	0xfb2	; 0xfb2 <create_chain>
    227c:	ab 01       	movw	r20, r22
    227e:	bc 01       	movw	r22, r24
    2280:	41 15       	cp	r20, r1
    2282:	51 05       	cpc	r21, r1
    2284:	61 05       	cpc	r22, r1
    2286:	71 05       	cpc	r23, r1
    2288:	41 f4       	brne	.+16     	; 0x229a <__stack+0x9b>
    228a:	48 c0       	rjmp	.+144    	; 0x231c <__stack+0x11d>
    228c:	f1 01       	movw	r30, r2
    228e:	80 81       	ld	r24, Z
    2290:	91 81       	ldd	r25, Z+1	; 0x01
    2292:	0e 94 1a 05 	call	0xa34	; 0xa34 <get_fat>
    2296:	ab 01       	movw	r20, r22
    2298:	bc 01       	movw	r22, r24
    229a:	4f 3f       	cpi	r20, 0xFF	; 255
    229c:	ff ef       	ldi	r31, 0xFF	; 255
    229e:	5f 07       	cpc	r21, r31
    22a0:	6f 07       	cpc	r22, r31
    22a2:	7f 07       	cpc	r23, r31
    22a4:	29 f4       	brne	.+10     	; 0x22b0 <__stack+0xb1>
    22a6:	81 e0       	ldi	r24, 0x01	; 1
    22a8:	d1 01       	movw	r26, r2
    22aa:	15 96       	adiw	r26, 0x05	; 5
    22ac:	8c 93       	st	X, r24
    22ae:	a2 c0       	rjmp	.+324    	; 0x23f4 <__stack+0x1f5>
    22b0:	42 30       	cpi	r20, 0x02	; 2
    22b2:	51 05       	cpc	r21, r1
    22b4:	61 05       	cpc	r22, r1
    22b6:	71 05       	cpc	r23, r1
    22b8:	60 f0       	brcs	.+24     	; 0x22d2 <__stack+0xd3>
    22ba:	d1 01       	movw	r26, r2
    22bc:	ed 91       	ld	r30, X+
    22be:	fc 91       	ld	r31, X
    22c0:	82 89       	ldd	r24, Z+18	; 0x12
    22c2:	93 89       	ldd	r25, Z+19	; 0x13
    22c4:	a4 89       	ldd	r26, Z+20	; 0x14
    22c6:	b5 89       	ldd	r27, Z+21	; 0x15
    22c8:	48 17       	cp	r20, r24
    22ca:	59 07       	cpc	r21, r25
    22cc:	6a 07       	cpc	r22, r26
    22ce:	7b 07       	cpc	r23, r27
    22d0:	20 f0       	brcs	.+8      	; 0x22da <__stack+0xdb>
    22d2:	82 e0       	ldi	r24, 0x02	; 2
    22d4:	f1 01       	movw	r30, r2
    22d6:	85 83       	std	Z+5, r24	; 0x05
    22d8:	8d c0       	rjmp	.+282    	; 0x23f4 <__stack+0x1f5>
    22da:	d1 01       	movw	r26, r2
    22dc:	52 96       	adiw	r26, 0x12	; 18
    22de:	4d 93       	st	X+, r20
    22e0:	5d 93       	st	X+, r21
    22e2:	6d 93       	st	X+, r22
    22e4:	7c 93       	st	X, r23
    22e6:	55 97       	sbiw	r26, 0x15	; 21
    22e8:	16 96       	adiw	r26, 0x06	; 6
    22ea:	8d 91       	ld	r24, X+
    22ec:	9d 91       	ld	r25, X+
    22ee:	0d 90       	ld	r0, X+
    22f0:	bc 91       	ld	r27, X
    22f2:	a0 2d       	mov	r26, r0
    22f4:	88 0d       	add	r24, r8
    22f6:	99 1d       	adc	r25, r9
    22f8:	aa 1d       	adc	r26, r10
    22fa:	bb 1d       	adc	r27, r11
    22fc:	f1 01       	movw	r30, r2
    22fe:	86 83       	std	Z+6, r24	; 0x06
    2300:	97 83       	std	Z+7, r25	; 0x07
    2302:	a0 87       	std	Z+8, r26	; 0x08
    2304:	b1 87       	std	Z+9, r27	; 0x09
    2306:	c8 18       	sub	r12, r8
    2308:	d9 08       	sbc	r13, r9
    230a:	ea 08       	sbc	r14, r10
    230c:	fb 08       	sbc	r15, r11
    230e:	8c 14       	cp	r8, r12
    2310:	9d 04       	cpc	r9, r13
    2312:	ae 04       	cpc	r10, r14
    2314:	bf 04       	cpc	r11, r15
    2316:	08 f4       	brcc	.+2      	; 0x231a <__stack+0x11b>
    2318:	a7 cf       	rjmp	.-178    	; 0x2268 <__stack+0x69>
    231a:	02 c0       	rjmp	.+4      	; 0x2320 <__stack+0x121>
    231c:	75 01       	movw	r14, r10
    231e:	64 01       	movw	r12, r8
    2320:	f1 01       	movw	r30, r2
    2322:	86 81       	ldd	r24, Z+6	; 0x06
    2324:	97 81       	ldd	r25, Z+7	; 0x07
    2326:	a0 85       	ldd	r26, Z+8	; 0x08
    2328:	b1 85       	ldd	r27, Z+9	; 0x09
    232a:	8c 0d       	add	r24, r12
    232c:	9d 1d       	adc	r25, r13
    232e:	ae 1d       	adc	r26, r14
    2330:	bf 1d       	adc	r27, r15
    2332:	86 83       	std	Z+6, r24	; 0x06
    2334:	97 83       	std	Z+7, r25	; 0x07
    2336:	a0 87       	std	Z+8, r26	; 0x08
    2338:	b1 87       	std	Z+9, r27	; 0x09
    233a:	d7 01       	movw	r26, r14
    233c:	c6 01       	movw	r24, r12
    233e:	91 70       	andi	r25, 0x01	; 1
    2340:	aa 27       	eor	r26, r26
    2342:	bb 27       	eor	r27, r27
    2344:	89 2b       	or	r24, r25
    2346:	8a 2b       	or	r24, r26
    2348:	8b 2b       	or	r24, r27
    234a:	01 f1       	breq	.+64     	; 0x238c <__stack+0x18d>
    234c:	80 81       	ld	r24, Z
    234e:	91 81       	ldd	r25, Z+1	; 0x01
    2350:	0e 94 ec 04 	call	0x9d8	; 0x9d8 <clust2sect>
    2354:	61 15       	cp	r22, r1
    2356:	71 05       	cpc	r23, r1
    2358:	81 05       	cpc	r24, r1
    235a:	91 05       	cpc	r25, r1
    235c:	29 f4       	brne	.+10     	; 0x2368 <__stack+0x169>
    235e:	82 e0       	ldi	r24, 0x02	; 2
    2360:	d1 01       	movw	r26, r2
    2362:	15 96       	adiw	r26, 0x05	; 5
    2364:	8c 93       	st	X, r24
    2366:	46 c0       	rjmp	.+140    	; 0x23f4 <__stack+0x1f5>
    2368:	0b 2e       	mov	r0, r27
    236a:	b9 e0       	ldi	r27, 0x09	; 9
    236c:	f6 94       	lsr	r15
    236e:	e7 94       	ror	r14
    2370:	d7 94       	ror	r13
    2372:	c7 94       	ror	r12
    2374:	ba 95       	dec	r27
    2376:	d1 f7       	brne	.-12     	; 0x236c <__stack+0x16d>
    2378:	b0 2d       	mov	r27, r0
    237a:	c6 0e       	add	r12, r22
    237c:	d7 1e       	adc	r13, r23
    237e:	e8 1e       	adc	r14, r24
    2380:	f9 1e       	adc	r15, r25
    2382:	07 c0       	rjmp	.+14     	; 0x2392 <__stack+0x193>
    2384:	c1 2c       	mov	r12, r1
    2386:	d1 2c       	mov	r13, r1
    2388:	76 01       	movw	r14, r12
    238a:	03 c0       	rjmp	.+6      	; 0x2392 <__stack+0x193>
    238c:	c1 2c       	mov	r12, r1
    238e:	d1 2c       	mov	r13, r1
    2390:	76 01       	movw	r14, r12
    2392:	f1 01       	movw	r30, r2
    2394:	86 81       	ldd	r24, Z+6	; 0x06
    2396:	97 81       	ldd	r25, Z+7	; 0x07
    2398:	a0 85       	ldd	r26, Z+8	; 0x08
    239a:	b1 85       	ldd	r27, Z+9	; 0x09
    239c:	ac 01       	movw	r20, r24
    239e:	bd 01       	movw	r22, r26
    23a0:	51 70       	andi	r21, 0x01	; 1
    23a2:	66 27       	eor	r22, r22
    23a4:	77 27       	eor	r23, r23
    23a6:	45 2b       	or	r20, r21
    23a8:	46 2b       	or	r20, r22
    23aa:	47 2b       	or	r20, r23
    23ac:	69 f0       	breq	.+26     	; 0x23c8 <__stack+0x1c9>
    23ae:	46 89       	ldd	r20, Z+22	; 0x16
    23b0:	57 89       	ldd	r21, Z+23	; 0x17
    23b2:	60 8d       	ldd	r22, Z+24	; 0x18
    23b4:	71 8d       	ldd	r23, Z+25	; 0x19
    23b6:	4c 15       	cp	r20, r12
    23b8:	5d 05       	cpc	r21, r13
    23ba:	6e 05       	cpc	r22, r14
    23bc:	7f 05       	cpc	r23, r15
    23be:	21 f0       	breq	.+8      	; 0x23c8 <__stack+0x1c9>
    23c0:	c6 8a       	std	Z+22, r12	; 0x16
    23c2:	d7 8a       	std	Z+23, r13	; 0x17
    23c4:	e0 8e       	std	Z+24, r14	; 0x18
    23c6:	f1 8e       	std	Z+25, r15	; 0x19
    23c8:	f1 01       	movw	r30, r2
    23ca:	42 85       	ldd	r20, Z+10	; 0x0a
    23cc:	53 85       	ldd	r21, Z+11	; 0x0b
    23ce:	64 85       	ldd	r22, Z+12	; 0x0c
    23d0:	75 85       	ldd	r23, Z+13	; 0x0d
    23d2:	48 17       	cp	r20, r24
    23d4:	59 07       	cpc	r21, r25
    23d6:	6a 07       	cpc	r22, r26
    23d8:	7b 07       	cpc	r23, r27
    23da:	58 f4       	brcc	.+22     	; 0x23f2 <__stack+0x1f3>
    23dc:	82 87       	std	Z+10, r24	; 0x0a
    23de:	93 87       	std	Z+11, r25	; 0x0b
    23e0:	a4 87       	std	Z+12, r26	; 0x0c
    23e2:	b5 87       	std	Z+13, r27	; 0x0d
    23e4:	84 81       	ldd	r24, Z+4	; 0x04
    23e6:	80 62       	ori	r24, 0x20	; 32
    23e8:	84 83       	std	Z+4, r24	; 0x04
    23ea:	80 e0       	ldi	r24, 0x00	; 0
    23ec:	03 c0       	rjmp	.+6      	; 0x23f4 <__stack+0x1f5>
    23ee:	80 e0       	ldi	r24, 0x00	; 0
    23f0:	01 c0       	rjmp	.+2      	; 0x23f4 <__stack+0x1f5>
    23f2:	80 e0       	ldi	r24, 0x00	; 0
    23f4:	0f 90       	pop	r0
    23f6:	0f 90       	pop	r0
    23f8:	0f 90       	pop	r0
    23fa:	0f 90       	pop	r0
    23fc:	df 91       	pop	r29
    23fe:	cf 91       	pop	r28
    2400:	1f 91       	pop	r17
    2402:	0f 91       	pop	r16
    2404:	ff 90       	pop	r15
    2406:	ef 90       	pop	r14
    2408:	df 90       	pop	r13
    240a:	cf 90       	pop	r12
    240c:	bf 90       	pop	r11
    240e:	af 90       	pop	r10
    2410:	9f 90       	pop	r9
    2412:	8f 90       	pop	r8
    2414:	7f 90       	pop	r7
    2416:	6f 90       	pop	r6
    2418:	5f 90       	pop	r5
    241a:	4f 90       	pop	r4
    241c:	3f 90       	pop	r3
    241e:	2f 90       	pop	r2
    2420:	08 95       	ret

00002422 <__vector_25>:
char volatile rec_GPS_flag = 0;
char volatile ov_flag = 0;
char fil_nm[15];

ISR(USART0_RX_vect)
{
    2422:	1f 92       	push	r1
    2424:	0f 92       	push	r0
    2426:	0f b6       	in	r0, 0x3f	; 63
    2428:	0f 92       	push	r0
    242a:	11 24       	eor	r1, r1
    242c:	0b b6       	in	r0, 0x3b	; 59
    242e:	0f 92       	push	r0
    2430:	8f 93       	push	r24
    2432:	ef 93       	push	r30
    2434:	ff 93       	push	r31
	rec_dylos[strlen(rec_dylos)] = UDR0;
    2436:	ef e1       	ldi	r30, 0x1F	; 31
    2438:	f8 e0       	ldi	r31, 0x08	; 8
    243a:	01 90       	ld	r0, Z+
    243c:	00 20       	and	r0, r0
    243e:	e9 f7       	brne	.-6      	; 0x243a <__vector_25+0x18>
    2440:	80 91 c6 00 	lds	r24, 0x00C6
    2444:	31 97       	sbiw	r30, 0x01	; 1
    2446:	80 83       	st	Z, r24
	rec_dylos_flag = 1;
    2448:	81 e0       	ldi	r24, 0x01	; 1
    244a:	80 93 7c 05 	sts	0x057C, r24
}
    244e:	ff 91       	pop	r31
    2450:	ef 91       	pop	r30
    2452:	8f 91       	pop	r24
    2454:	0f 90       	pop	r0
    2456:	0b be       	out	0x3b, r0	; 59
    2458:	0f 90       	pop	r0
    245a:	0f be       	out	0x3f, r0	; 63
    245c:	0f 90       	pop	r0
    245e:	1f 90       	pop	r1
    2460:	18 95       	reti

00002462 <__vector_36>:

ISR(USART1_RX_vect)
{
    2462:	1f 92       	push	r1
    2464:	0f 92       	push	r0
    2466:	0f b6       	in	r0, 0x3f	; 63
    2468:	0f 92       	push	r0
    246a:	11 24       	eor	r1, r1
    246c:	0b b6       	in	r0, 0x3b	; 59
    246e:	0f 92       	push	r0
    2470:	8f 93       	push	r24
    2472:	ef 93       	push	r30
    2474:	ff 93       	push	r31
	rec_GPS[strlen(rec_GPS)] = UDR1;
    2476:	eb eb       	ldi	r30, 0xBB	; 187
    2478:	f7 e0       	ldi	r31, 0x07	; 7
    247a:	01 90       	ld	r0, Z+
    247c:	00 20       	and	r0, r0
    247e:	e9 f7       	brne	.-6      	; 0x247a <__vector_36+0x18>
    2480:	80 91 ce 00 	lds	r24, 0x00CE
    2484:	31 97       	sbiw	r30, 0x01	; 1
    2486:	80 83       	st	Z, r24
	rec_GPS_flag = 1;
    2488:	81 e0       	ldi	r24, 0x01	; 1
    248a:	80 93 7b 05 	sts	0x057B, r24
}
    248e:	ff 91       	pop	r31
    2490:	ef 91       	pop	r30
    2492:	8f 91       	pop	r24
    2494:	0f 90       	pop	r0
    2496:	0b be       	out	0x3b, r0	; 59
    2498:	0f 90       	pop	r0
    249a:	0f be       	out	0x3f, r0	; 63
    249c:	0f 90       	pop	r0
    249e:	1f 90       	pop	r1
    24a0:	18 95       	reti

000024a2 <__vector_54>:

ISR(USART3_RX_vect)
{
    24a2:	1f 92       	push	r1
    24a4:	0f 92       	push	r0
    24a6:	0f b6       	in	r0, 0x3f	; 63
    24a8:	0f 92       	push	r0
    24aa:	11 24       	eor	r1, r1
	int x = 0;
}
    24ac:	0f 90       	pop	r0
    24ae:	0f be       	out	0x3f, r0	; 63
    24b0:	0f 90       	pop	r0
    24b2:	1f 90       	pop	r1
    24b4:	18 95       	reti

000024b6 <__vector_20>:

ISR(TIMER1_OVF_vect)
{
    24b6:	1f 92       	push	r1
    24b8:	0f 92       	push	r0
    24ba:	0f b6       	in	r0, 0x3f	; 63
    24bc:	0f 92       	push	r0
    24be:	11 24       	eor	r1, r1
    24c0:	8f 93       	push	r24
    24c2:	9f 93       	push	r25
	ov_flag = 1;
    24c4:	81 e0       	ldi	r24, 0x01	; 1
    24c6:	80 93 7a 05 	sts	0x057A, r24
	TCNT1 = 57723;
    24ca:	8b e7       	ldi	r24, 0x7B	; 123
    24cc:	91 ee       	ldi	r25, 0xE1	; 225
    24ce:	90 93 85 00 	sts	0x0085, r25
    24d2:	80 93 84 00 	sts	0x0084, r24
}
    24d6:	9f 91       	pop	r25
    24d8:	8f 91       	pop	r24
    24da:	0f 90       	pop	r0
    24dc:	0f be       	out	0x3f, r0	; 63
    24de:	0f 90       	pop	r0
    24e0:	1f 90       	pop	r1
    24e2:	18 95       	reti

000024e4 <sd_write>:
	}
	return 0;
}

int sd_write(char* buffer, FIL* Fil, char* fil_nm, int valid)
{
    24e4:	ef 92       	push	r14
    24e6:	ff 92       	push	r15
    24e8:	0f 93       	push	r16
    24ea:	1f 93       	push	r17
    24ec:	cf 93       	push	r28
    24ee:	df 93       	push	r29
    24f0:	1f 92       	push	r1
    24f2:	1f 92       	push	r1
    24f4:	cd b7       	in	r28, 0x3d	; 61
    24f6:	de b7       	in	r29, 0x3e	; 62
	FRESULT fr;
	UINT bw;
	if(valid == 1)
    24f8:	21 30       	cpi	r18, 0x01	; 1
    24fa:	31 05       	cpc	r19, r1
    24fc:	19 f5       	brne	.+70     	; 0x2544 <sd_write+0x60>
    24fe:	9a 01       	movw	r18, r20
    2500:	7b 01       	movw	r14, r22
    2502:	8c 01       	movw	r16, r24
	{
		fr = f_open(Fil, fil_nm, FA_WRITE | FA_OPEN_ALWAYS);	/* Create a file */
    2504:	42 e1       	ldi	r20, 0x12	; 18
    2506:	b9 01       	movw	r22, r18
    2508:	c7 01       	movw	r24, r14
    250a:	7e d9       	rcall	.-3332   	; 0x1808 <f_open>
		if(fr)
    250c:	81 11       	cpse	r24, r1
    250e:	1d c0       	rjmp	.+58     	; 0x254a <sd_write+0x66>
			return 1;
		f_lseek(Fil, f_size(Fil));
    2510:	f7 01       	movw	r30, r14
    2512:	42 85       	ldd	r20, Z+10	; 0x0a
    2514:	53 85       	ldd	r21, Z+11	; 0x0b
    2516:	64 85       	ldd	r22, Z+12	; 0x0c
    2518:	75 85       	ldd	r23, Z+13	; 0x0d
    251a:	c7 01       	movw	r24, r14
    251c:	cb dd       	rcall	.-1130   	; 0x20b4 <f_lseek>
		f_write(Fil, buffer, strlen(buffer), &bw);
    251e:	f8 01       	movw	r30, r16
    2520:	01 90       	ld	r0, Z+
    2522:	00 20       	and	r0, r0
    2524:	e9 f7       	brne	.-6      	; 0x2520 <sd_write+0x3c>
    2526:	31 97       	sbiw	r30, 0x01	; 1
    2528:	af 01       	movw	r20, r30
    252a:	40 1b       	sub	r20, r16
    252c:	51 0b       	sbc	r21, r17
    252e:	9e 01       	movw	r18, r28
    2530:	2f 5f       	subi	r18, 0xFF	; 255
    2532:	3f 4f       	sbci	r19, 0xFF	; 255
    2534:	b8 01       	movw	r22, r16
    2536:	c7 01       	movw	r24, r14
    2538:	6a db       	rcall	.-2348   	; 0x1c0e <f_write>
		f_close(Fil);								/* Close the file */
    253a:	c7 01       	movw	r24, r14
    253c:	ab dd       	rcall	.-1194   	; 0x2094 <f_close>
	}
	return 0;
    253e:	80 e0       	ldi	r24, 0x00	; 0
    2540:	90 e0       	ldi	r25, 0x00	; 0
    2542:	05 c0       	rjmp	.+10     	; 0x254e <sd_write+0x6a>
    2544:	80 e0       	ldi	r24, 0x00	; 0
    2546:	90 e0       	ldi	r25, 0x00	; 0
    2548:	02 c0       	rjmp	.+4      	; 0x254e <sd_write+0x6a>
	UINT bw;
	if(valid == 1)
	{
		fr = f_open(Fil, fil_nm, FA_WRITE | FA_OPEN_ALWAYS);	/* Create a file */
		if(fr)
			return 1;
    254a:	81 e0       	ldi	r24, 0x01	; 1
    254c:	90 e0       	ldi	r25, 0x00	; 0
		f_lseek(Fil, f_size(Fil));
		f_write(Fil, buffer, strlen(buffer), &bw);
		f_close(Fil);								/* Close the file */
	}
	return 0;
}
    254e:	0f 90       	pop	r0
    2550:	0f 90       	pop	r0
    2552:	df 91       	pop	r29
    2554:	cf 91       	pop	r28
    2556:	1f 91       	pop	r17
    2558:	0f 91       	pop	r16
    255a:	ff 90       	pop	r15
    255c:	ef 90       	pop	r14
    255e:	08 95       	ret

00002560 <read_temp>:

int read_temp()
{
	ADCSRA = 0x87;
    2560:	ea e7       	ldi	r30, 0x7A	; 122
    2562:	f0 e0       	ldi	r31, 0x00	; 0
    2564:	87 e8       	ldi	r24, 0x87	; 135
    2566:	80 83       	st	Z, r24
	ADMUX = 0x04; //Use ADC4
    2568:	84 e0       	ldi	r24, 0x04	; 4
    256a:	80 93 7c 00 	sts	0x007C, r24
	ADCSRA |= (1<<ADSC);
    256e:	80 81       	ld	r24, Z
    2570:	80 64       	ori	r24, 0x40	; 64
    2572:	80 83       	st	Z, r24
	while((ADCSRA & (1<<ADIF))==0);
    2574:	80 81       	ld	r24, Z
    2576:	84 ff       	sbrs	r24, 4
    2578:	fd cf       	rjmp	.-6      	; 0x2574 <read_temp+0x14>
	double t = ADC;	
    257a:	60 91 78 00 	lds	r22, 0x0078
    257e:	70 91 79 00 	lds	r23, 0x0079
    2582:	80 e0       	ldi	r24, 0x00	; 0
    2584:	90 e0       	ldi	r25, 0x00	; 0
    2586:	0e 94 e1 34 	call	0x69c2	; 0x69c2 <__floatunsisf>
	t *= 225;
    258a:	20 e0       	ldi	r18, 0x00	; 0
    258c:	30 e0       	ldi	r19, 0x00	; 0
    258e:	41 e6       	ldi	r20, 0x61	; 97
    2590:	53 e4       	ldi	r21, 0x43	; 67
    2592:	0e 94 97 35 	call	0x6b2e	; 0x6b2e <__mulsf3>
	t /= 256;
    2596:	20 e0       	ldi	r18, 0x00	; 0
    2598:	30 e0       	ldi	r19, 0x00	; 0
    259a:	40 e8       	ldi	r20, 0x80	; 128
    259c:	5b e3       	ldi	r21, 0x3B	; 59
    259e:	0e 94 97 35 	call	0x6b2e	; 0x6b2e <__mulsf3>
	t -= 58;
    25a2:	20 e0       	ldi	r18, 0x00	; 0
    25a4:	30 e0       	ldi	r19, 0x00	; 0
    25a6:	48 e6       	ldi	r20, 0x68	; 104
    25a8:	52 e4       	ldi	r21, 0x42	; 66
    25aa:	0e 94 df 33 	call	0x67be	; 0x67be <__subsf3>
	return t;
    25ae:	0e 94 b0 34 	call	0x6960	; 0x6960 <__fixsfsi>
}
    25b2:	cb 01       	movw	r24, r22
    25b4:	08 95       	ret

000025b6 <read_MQ2>:

int read_MQ2() //C3H8 sensor
{
    25b6:	cf 92       	push	r12
    25b8:	df 92       	push	r13
    25ba:	ef 92       	push	r14
    25bc:	ff 92       	push	r15
	double rs = -1;
	int adc = 0;
	int RL = 9800;
	int RO = 6600;
	ADCSRA = 0x87;
    25be:	ea e7       	ldi	r30, 0x7A	; 122
    25c0:	f0 e0       	ldi	r31, 0x00	; 0
    25c2:	87 e8       	ldi	r24, 0x87	; 135
    25c4:	80 83       	st	Z, r24
	ADMUX = 0x00; //Use ADC0
    25c6:	10 92 7c 00 	sts	0x007C, r1
	ADCSRA |= (1<<ADSC);
    25ca:	80 81       	ld	r24, Z
    25cc:	80 64       	ori	r24, 0x40	; 64
    25ce:	80 83       	st	Z, r24
	while((ADCSRA & (1<<ADIF))==0);
    25d0:	80 81       	ld	r24, Z
    25d2:	84 ff       	sbrs	r24, 4
    25d4:	fd cf       	rjmp	.-6      	; 0x25d0 <read_MQ2+0x1a>
	adc = ADC;
    25d6:	80 91 78 00 	lds	r24, 0x0078
    25da:	90 91 79 00 	lds	r25, 0x0079
	if(adc != 0)
    25de:	00 97       	sbiw	r24, 0x00	; 0
    25e0:	09 f4       	brne	.+2      	; 0x25e4 <read_MQ2+0x2e>
    25e2:	4c c0       	rjmp	.+152    	; 0x267c <read_MQ2+0xc6>
	{
		adc *= 5;
    25e4:	bc 01       	movw	r22, r24
    25e6:	66 0f       	add	r22, r22
    25e8:	77 1f       	adc	r23, r23
    25ea:	66 0f       	add	r22, r22
    25ec:	77 1f       	adc	r23, r23
    25ee:	68 0f       	add	r22, r24
    25f0:	79 1f       	adc	r23, r25
		rs = 5*1024;
		rs -= adc;
    25f2:	07 2e       	mov	r0, r23
    25f4:	00 0c       	add	r0, r0
    25f6:	88 0b       	sbc	r24, r24
    25f8:	99 0b       	sbc	r25, r25
    25fa:	0e 94 e3 34 	call	0x69c6	; 0x69c6 <__floatsisf>
    25fe:	6b 01       	movw	r12, r22
    2600:	7c 01       	movw	r14, r24
    2602:	9b 01       	movw	r18, r22
    2604:	ac 01       	movw	r20, r24
    2606:	60 e0       	ldi	r22, 0x00	; 0
    2608:	70 e0       	ldi	r23, 0x00	; 0
    260a:	80 ea       	ldi	r24, 0xA0	; 160
    260c:	95 e4       	ldi	r25, 0x45	; 69
    260e:	0e 94 df 33 	call	0x67be	; 0x67be <__subsf3>
		rs *= RL;
    2612:	20 e0       	ldi	r18, 0x00	; 0
    2614:	30 e2       	ldi	r19, 0x20	; 32
    2616:	49 e1       	ldi	r20, 0x19	; 25
    2618:	56 e4       	ldi	r21, 0x46	; 70
    261a:	0e 94 97 35 	call	0x6b2e	; 0x6b2e <__mulsf3>
		rs /= adc;
    261e:	a7 01       	movw	r20, r14
    2620:	96 01       	movw	r18, r12
    2622:	0e 94 48 34 	call	0x6890	; 0x6890 <__divsf3>
		rs *= 100;
    2626:	20 e0       	ldi	r18, 0x00	; 0
    2628:	30 e0       	ldi	r19, 0x00	; 0
    262a:	48 ec       	ldi	r20, 0xC8	; 200
    262c:	52 e4       	ldi	r21, 0x42	; 66
    262e:	0e 94 97 35 	call	0x6b2e	; 0x6b2e <__mulsf3>
		rs /= RO;
    2632:	20 e0       	ldi	r18, 0x00	; 0
    2634:	30 e4       	ldi	r19, 0x40	; 64
    2636:	4e ec       	ldi	r20, 0xCE	; 206
    2638:	55 e4       	ldi	r21, 0x45	; 69
    263a:	0e 94 48 34 	call	0x6890	; 0x6890 <__divsf3>
		rs -= 27;
    263e:	20 e0       	ldi	r18, 0x00	; 0
    2640:	30 e0       	ldi	r19, 0x00	; 0
    2642:	48 ed       	ldi	r20, 0xD8	; 216
    2644:	51 e4       	ldi	r21, 0x41	; 65
    2646:	0e 94 df 33 	call	0x67be	; 0x67be <__subsf3>
    264a:	6b 01       	movw	r12, r22
    264c:	7c 01       	movw	r14, r24
	}
	if(rs < 0)
    264e:	20 e0       	ldi	r18, 0x00	; 0
    2650:	30 e0       	ldi	r19, 0x00	; 0
    2652:	a9 01       	movw	r20, r18
    2654:	0e 94 44 34 	call	0x6888	; 0x6888 <__cmpsf2>
    2658:	88 23       	and	r24, r24
    265a:	9c f0       	brlt	.+38     	; 0x2682 <read_MQ2+0xcc>
		return -2;
	else if(rs > 150)
    265c:	20 e0       	ldi	r18, 0x00	; 0
    265e:	30 e0       	ldi	r19, 0x00	; 0
    2660:	46 e1       	ldi	r20, 0x16	; 22
    2662:	53 e4       	ldi	r21, 0x43	; 67
    2664:	c7 01       	movw	r24, r14
    2666:	b6 01       	movw	r22, r12
    2668:	0e 94 93 35 	call	0x6b26	; 0x6b26 <__gesf2>
    266c:	18 16       	cp	r1, r24
    266e:	64 f0       	brlt	.+24     	; 0x2688 <read_MQ2+0xd2>
		return -1;
	else
		return rs;
    2670:	c7 01       	movw	r24, r14
    2672:	b6 01       	movw	r22, r12
    2674:	0e 94 b0 34 	call	0x6960	; 0x6960 <__fixsfsi>
    2678:	cb 01       	movw	r24, r22
    267a:	08 c0       	rjmp	.+16     	; 0x268c <read_MQ2+0xd6>
		rs *= 100;
		rs /= RO;
		rs -= 27;
	}
	if(rs < 0)
		return -2;
    267c:	8e ef       	ldi	r24, 0xFE	; 254
    267e:	9f ef       	ldi	r25, 0xFF	; 255
    2680:	05 c0       	rjmp	.+10     	; 0x268c <read_MQ2+0xd6>
    2682:	8e ef       	ldi	r24, 0xFE	; 254
    2684:	9f ef       	ldi	r25, 0xFF	; 255
    2686:	02 c0       	rjmp	.+4      	; 0x268c <read_MQ2+0xd6>
	else if(rs > 150)
		return -1;
    2688:	8f ef       	ldi	r24, 0xFF	; 255
    268a:	9f ef       	ldi	r25, 0xFF	; 255
	else
		return rs;
}
    268c:	ff 90       	pop	r15
    268e:	ef 90       	pop	r14
    2690:	df 90       	pop	r13
    2692:	cf 90       	pop	r12
    2694:	08 95       	ret

00002696 <read_MQ5>:

int read_MQ5() // CH4 sensor
{
    2696:	cf 92       	push	r12
    2698:	df 92       	push	r13
    269a:	ef 92       	push	r14
    269c:	ff 92       	push	r15
	double rs = -1;
	int adc = 0;
	int RL = 19900;
	int RO = 15750;

	ADCSRA = 0x87;
    269e:	ea e7       	ldi	r30, 0x7A	; 122
    26a0:	f0 e0       	ldi	r31, 0x00	; 0
    26a2:	87 e8       	ldi	r24, 0x87	; 135
    26a4:	80 83       	st	Z, r24
	ADMUX = 0x01; //Use ADC1
    26a6:	81 e0       	ldi	r24, 0x01	; 1
    26a8:	80 93 7c 00 	sts	0x007C, r24
	ADCSRA |= (1<<ADSC);
    26ac:	80 81       	ld	r24, Z
    26ae:	80 64       	ori	r24, 0x40	; 64
    26b0:	80 83       	st	Z, r24
	while((ADCSRA & (1<<ADIF))==0);
    26b2:	80 81       	ld	r24, Z
    26b4:	84 ff       	sbrs	r24, 4
    26b6:	fd cf       	rjmp	.-6      	; 0x26b2 <read_MQ5+0x1c>
	adc = ADC; // solve for Vout
    26b8:	80 91 78 00 	lds	r24, 0x0078
    26bc:	90 91 79 00 	lds	r25, 0x0079
	if(adc != 0)
    26c0:	00 97       	sbiw	r24, 0x00	; 0
    26c2:	09 f4       	brne	.+2      	; 0x26c6 <read_MQ5+0x30>
    26c4:	52 c0       	rjmp	.+164    	; 0x276a <read_MQ5+0xd4>
	{
		adc *= 5;
    26c6:	bc 01       	movw	r22, r24
    26c8:	66 0f       	add	r22, r22
    26ca:	77 1f       	adc	r23, r23
    26cc:	66 0f       	add	r22, r22
    26ce:	77 1f       	adc	r23, r23
    26d0:	68 0f       	add	r22, r24
    26d2:	79 1f       	adc	r23, r25
		rs = 5*1024;
		rs -= adc;
    26d4:	07 2e       	mov	r0, r23
    26d6:	00 0c       	add	r0, r0
    26d8:	88 0b       	sbc	r24, r24
    26da:	99 0b       	sbc	r25, r25
    26dc:	0e 94 e3 34 	call	0x69c6	; 0x69c6 <__floatsisf>
    26e0:	6b 01       	movw	r12, r22
    26e2:	7c 01       	movw	r14, r24
    26e4:	9b 01       	movw	r18, r22
    26e6:	ac 01       	movw	r20, r24
    26e8:	60 e0       	ldi	r22, 0x00	; 0
    26ea:	70 e0       	ldi	r23, 0x00	; 0
    26ec:	80 ea       	ldi	r24, 0xA0	; 160
    26ee:	95 e4       	ldi	r25, 0x45	; 69
    26f0:	0e 94 df 33 	call	0x67be	; 0x67be <__subsf3>
		rs *= RL;
    26f4:	20 e0       	ldi	r18, 0x00	; 0
    26f6:	38 e7       	ldi	r19, 0x78	; 120
    26f8:	4b e9       	ldi	r20, 0x9B	; 155
    26fa:	56 e4       	ldi	r21, 0x46	; 70
    26fc:	0e 94 97 35 	call	0x6b2e	; 0x6b2e <__mulsf3>
		rs /= adc;
    2700:	a7 01       	movw	r20, r14
    2702:	96 01       	movw	r18, r12
    2704:	0e 94 48 34 	call	0x6890	; 0x6890 <__divsf3>
		rs *= 1000;
    2708:	20 e0       	ldi	r18, 0x00	; 0
    270a:	30 e0       	ldi	r19, 0x00	; 0
    270c:	4a e7       	ldi	r20, 0x7A	; 122
    270e:	54 e4       	ldi	r21, 0x44	; 68
    2710:	0e 94 97 35 	call	0x6b2e	; 0x6b2e <__mulsf3>
		rs /= RO;
    2714:	20 e0       	ldi	r18, 0x00	; 0
    2716:	38 e1       	ldi	r19, 0x18	; 24
    2718:	46 e7       	ldi	r20, 0x76	; 118
    271a:	56 e4       	ldi	r21, 0x46	; 70
    271c:	0e 94 48 34 	call	0x6890	; 0x6890 <__divsf3>
		rs /= 5;
    2720:	20 e0       	ldi	r18, 0x00	; 0
    2722:	30 e0       	ldi	r19, 0x00	; 0
    2724:	40 ea       	ldi	r20, 0xA0	; 160
    2726:	50 e4       	ldi	r21, 0x40	; 64
    2728:	0e 94 48 34 	call	0x6890	; 0x6890 <__divsf3>
		rs -= 42;
    272c:	20 e0       	ldi	r18, 0x00	; 0
    272e:	30 e0       	ldi	r19, 0x00	; 0
    2730:	48 e2       	ldi	r20, 0x28	; 40
    2732:	52 e4       	ldi	r21, 0x42	; 66
    2734:	0e 94 df 33 	call	0x67be	; 0x67be <__subsf3>
    2738:	6b 01       	movw	r12, r22
    273a:	7c 01       	movw	r14, r24
	}
	if(rs < 0)
    273c:	20 e0       	ldi	r18, 0x00	; 0
    273e:	30 e0       	ldi	r19, 0x00	; 0
    2740:	a9 01       	movw	r20, r18
    2742:	0e 94 44 34 	call	0x6888	; 0x6888 <__cmpsf2>
    2746:	88 23       	and	r24, r24
    2748:	9c f0       	brlt	.+38     	; 0x2770 <read_MQ5+0xda>
		return -2;
	else if(rs > 150)
    274a:	20 e0       	ldi	r18, 0x00	; 0
    274c:	30 e0       	ldi	r19, 0x00	; 0
    274e:	46 e1       	ldi	r20, 0x16	; 22
    2750:	53 e4       	ldi	r21, 0x43	; 67
    2752:	c7 01       	movw	r24, r14
    2754:	b6 01       	movw	r22, r12
    2756:	0e 94 93 35 	call	0x6b26	; 0x6b26 <__gesf2>
    275a:	18 16       	cp	r1, r24
    275c:	64 f0       	brlt	.+24     	; 0x2776 <read_MQ5+0xe0>
		return -1;
	else
		return rs;
    275e:	c7 01       	movw	r24, r14
    2760:	b6 01       	movw	r22, r12
    2762:	0e 94 b0 34 	call	0x6960	; 0x6960 <__fixsfsi>
    2766:	cb 01       	movw	r24, r22
    2768:	08 c0       	rjmp	.+16     	; 0x277a <read_MQ5+0xe4>
		rs /= RO;
		rs /= 5;
		rs -= 42;
	}
	if(rs < 0)
		return -2;
    276a:	8e ef       	ldi	r24, 0xFE	; 254
    276c:	9f ef       	ldi	r25, 0xFF	; 255
    276e:	05 c0       	rjmp	.+10     	; 0x277a <read_MQ5+0xe4>
    2770:	8e ef       	ldi	r24, 0xFE	; 254
    2772:	9f ef       	ldi	r25, 0xFF	; 255
    2774:	02 c0       	rjmp	.+4      	; 0x277a <read_MQ5+0xe4>
	else if(rs > 150)
		return -1;
    2776:	8f ef       	ldi	r24, 0xFF	; 255
    2778:	9f ef       	ldi	r25, 0xFF	; 255
	else
		return rs;
}
    277a:	ff 90       	pop	r15
    277c:	ef 90       	pop	r14
    277e:	df 90       	pop	r13
    2780:	cf 90       	pop	r12
    2782:	08 95       	ret

00002784 <read_MQ7>:

int read_MQ7() //C0 sensor
{
    2784:	cf 92       	push	r12
    2786:	df 92       	push	r13
    2788:	ef 92       	push	r14
    278a:	ff 92       	push	r15
	double rs = -1;
	int adc = 0;
	int RL = 9900;
	int RO = 2000;
	ADCSRA = 0x87;
    278c:	ea e7       	ldi	r30, 0x7A	; 122
    278e:	f0 e0       	ldi	r31, 0x00	; 0
    2790:	87 e8       	ldi	r24, 0x87	; 135
    2792:	80 83       	st	Z, r24
	ADMUX = 0x02; //Use ADC2
    2794:	82 e0       	ldi	r24, 0x02	; 2
    2796:	80 93 7c 00 	sts	0x007C, r24
	ADCSRA |= (1<<ADSC);
    279a:	80 81       	ld	r24, Z
    279c:	80 64       	ori	r24, 0x40	; 64
    279e:	80 83       	st	Z, r24
	while((ADCSRA & (1<<ADIF))==0);
    27a0:	80 81       	ld	r24, Z
    27a2:	84 ff       	sbrs	r24, 4
    27a4:	fd cf       	rjmp	.-6      	; 0x27a0 <read_MQ7+0x1c>
	adc = ADC; // solve for Vout
    27a6:	80 91 78 00 	lds	r24, 0x0078
    27aa:	90 91 79 00 	lds	r25, 0x0079
	if(adc != 0)
    27ae:	00 97       	sbiw	r24, 0x00	; 0
    27b0:	09 f4       	brne	.+2      	; 0x27b4 <read_MQ7+0x30>
    27b2:	4c c0       	rjmp	.+152    	; 0x284c <read_MQ7+0xc8>
	{
		adc *= 5;
    27b4:	bc 01       	movw	r22, r24
    27b6:	66 0f       	add	r22, r22
    27b8:	77 1f       	adc	r23, r23
    27ba:	66 0f       	add	r22, r22
    27bc:	77 1f       	adc	r23, r23
    27be:	68 0f       	add	r22, r24
    27c0:	79 1f       	adc	r23, r25
		rs = 5*1024;
		rs -= adc;
    27c2:	07 2e       	mov	r0, r23
    27c4:	00 0c       	add	r0, r0
    27c6:	88 0b       	sbc	r24, r24
    27c8:	99 0b       	sbc	r25, r25
    27ca:	0e 94 e3 34 	call	0x69c6	; 0x69c6 <__floatsisf>
    27ce:	6b 01       	movw	r12, r22
    27d0:	7c 01       	movw	r14, r24
    27d2:	9b 01       	movw	r18, r22
    27d4:	ac 01       	movw	r20, r24
    27d6:	60 e0       	ldi	r22, 0x00	; 0
    27d8:	70 e0       	ldi	r23, 0x00	; 0
    27da:	80 ea       	ldi	r24, 0xA0	; 160
    27dc:	95 e4       	ldi	r25, 0x45	; 69
    27de:	0e 94 df 33 	call	0x67be	; 0x67be <__subsf3>
		rs *= RL;
    27e2:	20 e0       	ldi	r18, 0x00	; 0
    27e4:	30 eb       	ldi	r19, 0xB0	; 176
    27e6:	4a e1       	ldi	r20, 0x1A	; 26
    27e8:	56 e4       	ldi	r21, 0x46	; 70
    27ea:	0e 94 97 35 	call	0x6b2e	; 0x6b2e <__mulsf3>
		rs /= adc;
    27ee:	a7 01       	movw	r20, r14
    27f0:	96 01       	movw	r18, r12
    27f2:	0e 94 48 34 	call	0x6890	; 0x6890 <__divsf3>
		rs *= 100;
    27f6:	20 e0       	ldi	r18, 0x00	; 0
    27f8:	30 e0       	ldi	r19, 0x00	; 0
    27fa:	48 ec       	ldi	r20, 0xC8	; 200
    27fc:	52 e4       	ldi	r21, 0x42	; 66
    27fe:	0e 94 97 35 	call	0x6b2e	; 0x6b2e <__mulsf3>
		rs /= RO;
    2802:	20 e0       	ldi	r18, 0x00	; 0
    2804:	30 e0       	ldi	r19, 0x00	; 0
    2806:	4a ef       	ldi	r20, 0xFA	; 250
    2808:	54 e4       	ldi	r21, 0x44	; 68
    280a:	0e 94 48 34 	call	0x6890	; 0x6890 <__divsf3>
		rs-= 9;
    280e:	20 e0       	ldi	r18, 0x00	; 0
    2810:	30 e0       	ldi	r19, 0x00	; 0
    2812:	40 e1       	ldi	r20, 0x10	; 16
    2814:	51 e4       	ldi	r21, 0x41	; 65
    2816:	0e 94 df 33 	call	0x67be	; 0x67be <__subsf3>
    281a:	6b 01       	movw	r12, r22
    281c:	7c 01       	movw	r14, r24
	}
	if(rs < 0)
    281e:	20 e0       	ldi	r18, 0x00	; 0
    2820:	30 e0       	ldi	r19, 0x00	; 0
    2822:	a9 01       	movw	r20, r18
    2824:	0e 94 44 34 	call	0x6888	; 0x6888 <__cmpsf2>
    2828:	88 23       	and	r24, r24
    282a:	9c f0       	brlt	.+38     	; 0x2852 <read_MQ7+0xce>
		return -2;
	else if(rs > 150)
    282c:	20 e0       	ldi	r18, 0x00	; 0
    282e:	30 e0       	ldi	r19, 0x00	; 0
    2830:	46 e1       	ldi	r20, 0x16	; 22
    2832:	53 e4       	ldi	r21, 0x43	; 67
    2834:	c7 01       	movw	r24, r14
    2836:	b6 01       	movw	r22, r12
    2838:	0e 94 93 35 	call	0x6b26	; 0x6b26 <__gesf2>
    283c:	18 16       	cp	r1, r24
    283e:	64 f0       	brlt	.+24     	; 0x2858 <read_MQ7+0xd4>
		return -1;
	else
		return rs;
    2840:	c7 01       	movw	r24, r14
    2842:	b6 01       	movw	r22, r12
    2844:	0e 94 b0 34 	call	0x6960	; 0x6960 <__fixsfsi>
    2848:	cb 01       	movw	r24, r22
    284a:	08 c0       	rjmp	.+16     	; 0x285c <read_MQ7+0xd8>
		rs *= 100;
		rs /= RO;
		rs-= 9;
	}
	if(rs < 0)
		return -2;
    284c:	8e ef       	ldi	r24, 0xFE	; 254
    284e:	9f ef       	ldi	r25, 0xFF	; 255
    2850:	05 c0       	rjmp	.+10     	; 0x285c <read_MQ7+0xd8>
    2852:	8e ef       	ldi	r24, 0xFE	; 254
    2854:	9f ef       	ldi	r25, 0xFF	; 255
    2856:	02 c0       	rjmp	.+4      	; 0x285c <read_MQ7+0xd8>
	else if(rs > 150)
		return -1;
    2858:	8f ef       	ldi	r24, 0xFF	; 255
    285a:	9f ef       	ldi	r25, 0xFF	; 255
	else
		return rs;
}
    285c:	ff 90       	pop	r15
    285e:	ef 90       	pop	r14
    2860:	df 90       	pop	r13
    2862:	cf 90       	pop	r12
    2864:	08 95       	ret

00002866 <read_MQ136>:

int read_MQ136() //H2S sensor
{
    2866:	cf 92       	push	r12
    2868:	df 92       	push	r13
    286a:	ef 92       	push	r14
    286c:	ff 92       	push	r15
	double rs = -1;
	int adc = 0;
	int RL = 19600;
	int RO = 4150;
	ADCSRA = 0x87;
    286e:	ea e7       	ldi	r30, 0x7A	; 122
    2870:	f0 e0       	ldi	r31, 0x00	; 0
    2872:	87 e8       	ldi	r24, 0x87	; 135
    2874:	80 83       	st	Z, r24
	ADMUX = 0x03; //Use ADC3
    2876:	83 e0       	ldi	r24, 0x03	; 3
    2878:	80 93 7c 00 	sts	0x007C, r24
	ADCSRA |= (1<<ADSC);
    287c:	80 81       	ld	r24, Z
    287e:	80 64       	ori	r24, 0x40	; 64
    2880:	80 83       	st	Z, r24
	while((ADCSRA & (1<<ADIF))==0);
    2882:	80 81       	ld	r24, Z
    2884:	84 ff       	sbrs	r24, 4
    2886:	fd cf       	rjmp	.-6      	; 0x2882 <read_MQ136+0x1c>
	adc = ADC;
    2888:	80 91 78 00 	lds	r24, 0x0078
    288c:	90 91 79 00 	lds	r25, 0x0079
	if(adc != 0)
    2890:	00 97       	sbiw	r24, 0x00	; 0
    2892:	09 f4       	brne	.+2      	; 0x2896 <read_MQ136+0x30>
    2894:	4c c0       	rjmp	.+152    	; 0x292e <read_MQ136+0xc8>
	{
		adc *= 5;
    2896:	bc 01       	movw	r22, r24
    2898:	66 0f       	add	r22, r22
    289a:	77 1f       	adc	r23, r23
    289c:	66 0f       	add	r22, r22
    289e:	77 1f       	adc	r23, r23
    28a0:	68 0f       	add	r22, r24
    28a2:	79 1f       	adc	r23, r25
		rs = 5*1024;
		rs -= adc;
    28a4:	07 2e       	mov	r0, r23
    28a6:	00 0c       	add	r0, r0
    28a8:	88 0b       	sbc	r24, r24
    28aa:	99 0b       	sbc	r25, r25
    28ac:	0e 94 e3 34 	call	0x69c6	; 0x69c6 <__floatsisf>
    28b0:	6b 01       	movw	r12, r22
    28b2:	7c 01       	movw	r14, r24
    28b4:	9b 01       	movw	r18, r22
    28b6:	ac 01       	movw	r20, r24
    28b8:	60 e0       	ldi	r22, 0x00	; 0
    28ba:	70 e0       	ldi	r23, 0x00	; 0
    28bc:	80 ea       	ldi	r24, 0xA0	; 160
    28be:	95 e4       	ldi	r25, 0x45	; 69
    28c0:	0e 94 df 33 	call	0x67be	; 0x67be <__subsf3>
		rs *= RL;
    28c4:	20 e0       	ldi	r18, 0x00	; 0
    28c6:	30 e2       	ldi	r19, 0x20	; 32
    28c8:	49 e9       	ldi	r20, 0x99	; 153
    28ca:	56 e4       	ldi	r21, 0x46	; 70
    28cc:	0e 94 97 35 	call	0x6b2e	; 0x6b2e <__mulsf3>
		rs /= adc;
    28d0:	a7 01       	movw	r20, r14
    28d2:	96 01       	movw	r18, r12
    28d4:	0e 94 48 34 	call	0x6890	; 0x6890 <__divsf3>
		rs *= 200;
    28d8:	20 e0       	ldi	r18, 0x00	; 0
    28da:	30 e0       	ldi	r19, 0x00	; 0
    28dc:	48 e4       	ldi	r20, 0x48	; 72
    28de:	53 e4       	ldi	r21, 0x43	; 67
    28e0:	0e 94 97 35 	call	0x6b2e	; 0x6b2e <__mulsf3>
		rs /= RO;
    28e4:	20 e0       	ldi	r18, 0x00	; 0
    28e6:	30 eb       	ldi	r19, 0xB0	; 176
    28e8:	41 e8       	ldi	r20, 0x81	; 129
    28ea:	55 e4       	ldi	r21, 0x45	; 69
    28ec:	0e 94 48 34 	call	0x6890	; 0x6890 <__divsf3>
		rs -= 120;
    28f0:	20 e0       	ldi	r18, 0x00	; 0
    28f2:	30 e0       	ldi	r19, 0x00	; 0
    28f4:	40 ef       	ldi	r20, 0xF0	; 240
    28f6:	52 e4       	ldi	r21, 0x42	; 66
    28f8:	0e 94 df 33 	call	0x67be	; 0x67be <__subsf3>
    28fc:	6b 01       	movw	r12, r22
    28fe:	7c 01       	movw	r14, r24
	}
	if(rs < 0)
    2900:	20 e0       	ldi	r18, 0x00	; 0
    2902:	30 e0       	ldi	r19, 0x00	; 0
    2904:	a9 01       	movw	r20, r18
    2906:	0e 94 44 34 	call	0x6888	; 0x6888 <__cmpsf2>
    290a:	88 23       	and	r24, r24
    290c:	9c f0       	brlt	.+38     	; 0x2934 <read_MQ136+0xce>
	return -2;
	else if(rs > 160)
    290e:	20 e0       	ldi	r18, 0x00	; 0
    2910:	30 e0       	ldi	r19, 0x00	; 0
    2912:	40 e2       	ldi	r20, 0x20	; 32
    2914:	53 e4       	ldi	r21, 0x43	; 67
    2916:	c7 01       	movw	r24, r14
    2918:	b6 01       	movw	r22, r12
    291a:	0e 94 93 35 	call	0x6b26	; 0x6b26 <__gesf2>
    291e:	18 16       	cp	r1, r24
    2920:	64 f0       	brlt	.+24     	; 0x293a <read_MQ136+0xd4>
	return -1;
	else
	return rs;
    2922:	c7 01       	movw	r24, r14
    2924:	b6 01       	movw	r22, r12
    2926:	0e 94 b0 34 	call	0x6960	; 0x6960 <__fixsfsi>
    292a:	cb 01       	movw	r24, r22
    292c:	08 c0       	rjmp	.+16     	; 0x293e <read_MQ136+0xd8>
		rs *= 200;
		rs /= RO;
		rs -= 120;
	}
	if(rs < 0)
	return -2;
    292e:	8e ef       	ldi	r24, 0xFE	; 254
    2930:	9f ef       	ldi	r25, 0xFF	; 255
    2932:	05 c0       	rjmp	.+10     	; 0x293e <read_MQ136+0xd8>
    2934:	8e ef       	ldi	r24, 0xFE	; 254
    2936:	9f ef       	ldi	r25, 0xFF	; 255
    2938:	02 c0       	rjmp	.+4      	; 0x293e <read_MQ136+0xd8>
	else if(rs > 160)
	return -1;
    293a:	8f ef       	ldi	r24, 0xFF	; 255
    293c:	9f ef       	ldi	r25, 0xFF	; 255
	else
	return rs;
}
    293e:	ff 90       	pop	r15
    2940:	ef 90       	pop	r14
    2942:	df 90       	pop	r13
    2944:	cf 90       	pop	r12
    2946:	08 95       	ret

00002948 <usart_init>:

void usart_init(int n)
{
	switch(n)
    2948:	81 30       	cpi	r24, 0x01	; 1
    294a:	91 05       	cpc	r25, r1
    294c:	b9 f0       	breq	.+46     	; 0x297c <usart_init+0x34>
    294e:	1c f4       	brge	.+6      	; 0x2956 <usart_init+0xe>
    2950:	89 2b       	or	r24, r25
    2952:	39 f0       	breq	.+14     	; 0x2962 <usart_init+0x1a>
    2954:	08 95       	ret
    2956:	82 30       	cpi	r24, 0x02	; 2
    2958:	91 05       	cpc	r25, r1
    295a:	e9 f0       	breq	.+58     	; 0x2996 <usart_init+0x4e>
    295c:	03 97       	sbiw	r24, 0x03	; 3
    295e:	41 f1       	breq	.+80     	; 0x29b0 <usart_init+0x68>
    2960:	08 95       	ret
	{
		case 0:
			UCSR0B = (1<<TXEN0) | (1<<RXEN0) | (1<<RXCIE0); // TX Enable, RX Enable, RX Interrupt enabled
    2962:	88 e9       	ldi	r24, 0x98	; 152
    2964:	80 93 c1 00 	sts	0x00C1, r24
			UCSR0C = (1<<UCSZ01) | (1<<UCSZ00); // 8 bit data segment
    2968:	86 e0       	ldi	r24, 0x06	; 6
    296a:	80 93 c2 00 	sts	0x00C2, r24
			UBRR0 = 0x33; // Baud rate
    296e:	83 e3       	ldi	r24, 0x33	; 51
    2970:	90 e0       	ldi	r25, 0x00	; 0
    2972:	90 93 c5 00 	sts	0x00C5, r25
    2976:	80 93 c4 00 	sts	0x00C4, r24
			break;
    297a:	08 95       	ret
		case 1:
			UCSR1B = (1<<TXEN1) | (1<<RXEN1) | (1<<RXCIE1); // TX Enable, RX Enable, RX Interrupt enabled
    297c:	88 e9       	ldi	r24, 0x98	; 152
    297e:	80 93 c9 00 	sts	0x00C9, r24
			UCSR1C = (1<<UCSZ11) | (1<<UCSZ10); // 8 bit data segment
    2982:	86 e0       	ldi	r24, 0x06	; 6
    2984:	80 93 ca 00 	sts	0x00CA, r24
			UBRR1 = 0x33; // Baud rate
    2988:	83 e3       	ldi	r24, 0x33	; 51
    298a:	90 e0       	ldi	r25, 0x00	; 0
    298c:	90 93 cd 00 	sts	0x00CD, r25
    2990:	80 93 cc 00 	sts	0x00CC, r24
			break;
    2994:	08 95       	ret
		case 2:
			UCSR2B = (1<<TXEN2) | (1<<RXEN2) | (1<<RXCIE2); // TX Enable, RX Enable, RX Interrupt enabled
    2996:	88 e9       	ldi	r24, 0x98	; 152
    2998:	80 93 d1 00 	sts	0x00D1, r24
			UCSR2C = (1<<UCSZ21) | (1<<UCSZ20); // 8 bit data segment
    299c:	86 e0       	ldi	r24, 0x06	; 6
    299e:	80 93 d2 00 	sts	0x00D2, r24
			UBRR2 = 0x33; // Baud rate
    29a2:	83 e3       	ldi	r24, 0x33	; 51
    29a4:	90 e0       	ldi	r25, 0x00	; 0
    29a6:	90 93 d5 00 	sts	0x00D5, r25
    29aa:	80 93 d4 00 	sts	0x00D4, r24
			break;
    29ae:	08 95       	ret
		case 3:
			UCSR3B = (1<<TXEN3) | (1<<RXEN3) | (1<<RXCIE3); // TX Enable, RX Enable, RX Interrupt enabled
    29b0:	88 e9       	ldi	r24, 0x98	; 152
    29b2:	80 93 31 01 	sts	0x0131, r24
			UCSR3C = (1<<UCSZ31) | (1<<UCSZ30); // 8 bit data segment
    29b6:	86 e0       	ldi	r24, 0x06	; 6
    29b8:	80 93 32 01 	sts	0x0132, r24
			UBRR3 = 0x33; // Baud rate
    29bc:	83 e3       	ldi	r24, 0x33	; 51
    29be:	90 e0       	ldi	r25, 0x00	; 0
    29c0:	90 93 35 01 	sts	0x0135, r25
    29c4:	80 93 34 01 	sts	0x0134, r24
    29c8:	08 95       	ret

000029ca <usart_send>:
		break;
	}
}

void usart_send (int n, char* data)
{
    29ca:	cf 93       	push	r28
    29cc:	df 93       	push	r29
    29ce:	db 01       	movw	r26, r22
	switch(n)
    29d0:	81 30       	cpi	r24, 0x01	; 1
    29d2:	91 05       	cpc	r25, r1
    29d4:	d1 f0       	breq	.+52     	; 0x2a0a <usart_send+0x40>
    29d6:	1c f4       	brge	.+6      	; 0x29de <usart_send+0x14>
    29d8:	89 2b       	or	r24, r25
    29da:	f9 f0       	breq	.+62     	; 0x2a1a <usart_send+0x50>
    29dc:	79 c0       	rjmp	.+242    	; 0x2ad0 <usart_send+0x106>
    29de:	82 30       	cpi	r24, 0x02	; 2
    29e0:	91 05       	cpc	r25, r1
    29e2:	59 f0       	breq	.+22     	; 0x29fa <usart_send+0x30>
    29e4:	03 97       	sbiw	r24, 0x03	; 3
    29e6:	09 f0       	breq	.+2      	; 0x29ea <usart_send+0x20>
    29e8:	73 c0       	rjmp	.+230    	; 0x2ad0 <usart_send+0x106>
    29ea:	ab 01       	movw	r20, r22
    29ec:	20 e0       	ldi	r18, 0x00	; 0
    29ee:	30 e0       	ldi	r19, 0x00	; 0
		}
		break;
		case 3:
		for(int i = 0; i < strlen(data); i++)
		{
			while (! (UCSR3A & (1<<UDRE3)));
    29f0:	e0 e3       	ldi	r30, 0x30	; 48
    29f2:	f1 e0       	ldi	r31, 0x01	; 1
			UDR3 = data[i];
    29f4:	66 e3       	ldi	r22, 0x36	; 54
    29f6:	71 e0       	ldi	r23, 0x01	; 1
    29f8:	61 c0       	rjmp	.+194    	; 0x2abc <usart_send+0xf2>
    29fa:	ab 01       	movw	r20, r22
	}
}

void usart_send (int n, char* data)
{
	switch(n)
    29fc:	20 e0       	ldi	r18, 0x00	; 0
    29fe:	30 e0       	ldi	r19, 0x00	; 0
		}
		break;
		case 2:
		for(int i = 0; i < strlen(data); i++)
		{
			while (! (UCSR2A & (1<<UDRE2)));
    2a00:	e0 ed       	ldi	r30, 0xD0	; 208
    2a02:	f0 e0       	ldi	r31, 0x00	; 0
			UDR2 = data[i];
    2a04:	66 ed       	ldi	r22, 0xD6	; 214
    2a06:	70 e0       	ldi	r23, 0x00	; 0
    2a08:	44 c0       	rjmp	.+136    	; 0x2a92 <usart_send+0xc8>
    2a0a:	ab 01       	movw	r20, r22
	}
}

void usart_send (int n, char* data)
{
	switch(n)
    2a0c:	20 e0       	ldi	r18, 0x00	; 0
    2a0e:	30 e0       	ldi	r19, 0x00	; 0
			}
			break;
		case 1:
		for(int i = 0; i < strlen(data); i++)
		{
			while (! (UCSR1A & (1<<UDRE1)));
    2a10:	e8 ec       	ldi	r30, 0xC8	; 200
    2a12:	f0 e0       	ldi	r31, 0x00	; 0
			UDR1 = data[i];
    2a14:	6e ec       	ldi	r22, 0xCE	; 206
    2a16:	70 e0       	ldi	r23, 0x00	; 0
    2a18:	27 c0       	rjmp	.+78     	; 0x2a68 <usart_send+0x9e>
    2a1a:	ab 01       	movw	r20, r22
	}
}

void usart_send (int n, char* data)
{
	switch(n)
    2a1c:	20 e0       	ldi	r18, 0x00	; 0
    2a1e:	30 e0       	ldi	r19, 0x00	; 0
	{
		case 0:
			for(int i = 0; i < strlen(data); i++)
			{
				while (! (UCSR0A & (1<<UDRE0)));
    2a20:	e0 ec       	ldi	r30, 0xC0	; 192
    2a22:	f0 e0       	ldi	r31, 0x00	; 0
				UDR0 = data[i];
    2a24:	66 ec       	ldi	r22, 0xC6	; 198
    2a26:	70 e0       	ldi	r23, 0x00	; 0
    2a28:	0a c0       	rjmp	.+20     	; 0x2a3e <usart_send+0x74>
	switch(n)
	{
		case 0:
			for(int i = 0; i < strlen(data); i++)
			{
				while (! (UCSR0A & (1<<UDRE0)));
    2a2a:	80 81       	ld	r24, Z
    2a2c:	85 ff       	sbrs	r24, 5
    2a2e:	fd cf       	rjmp	.-6      	; 0x2a2a <usart_send+0x60>
				UDR0 = data[i];
    2a30:	ea 01       	movw	r28, r20
    2a32:	89 91       	ld	r24, Y+
    2a34:	ae 01       	movw	r20, r28
    2a36:	eb 01       	movw	r28, r22
    2a38:	88 83       	st	Y, r24
void usart_send (int n, char* data)
{
	switch(n)
	{
		case 0:
			for(int i = 0; i < strlen(data); i++)
    2a3a:	2f 5f       	subi	r18, 0xFF	; 255
    2a3c:	3f 4f       	sbci	r19, 0xFF	; 255
    2a3e:	ed 01       	movw	r28, r26
    2a40:	09 90       	ld	r0, Y+
    2a42:	00 20       	and	r0, r0
    2a44:	e9 f7       	brne	.-6      	; 0x2a40 <usart_send+0x76>
    2a46:	21 97       	sbiw	r28, 0x01	; 1
    2a48:	ca 1b       	sub	r28, r26
    2a4a:	db 0b       	sbc	r29, r27
    2a4c:	2c 17       	cp	r18, r28
    2a4e:	3d 07       	cpc	r19, r29
    2a50:	60 f3       	brcs	.-40     	; 0x2a2a <usart_send+0x60>
    2a52:	3e c0       	rjmp	.+124    	; 0x2ad0 <usart_send+0x106>
			}
			break;
		case 1:
		for(int i = 0; i < strlen(data); i++)
		{
			while (! (UCSR1A & (1<<UDRE1)));
    2a54:	80 81       	ld	r24, Z
    2a56:	85 ff       	sbrs	r24, 5
    2a58:	fd cf       	rjmp	.-6      	; 0x2a54 <usart_send+0x8a>
			UDR1 = data[i];
    2a5a:	ea 01       	movw	r28, r20
    2a5c:	89 91       	ld	r24, Y+
    2a5e:	ae 01       	movw	r20, r28
    2a60:	eb 01       	movw	r28, r22
    2a62:	88 83       	st	Y, r24
				while (! (UCSR0A & (1<<UDRE0)));
				UDR0 = data[i];
			}
			break;
		case 1:
		for(int i = 0; i < strlen(data); i++)
    2a64:	2f 5f       	subi	r18, 0xFF	; 255
    2a66:	3f 4f       	sbci	r19, 0xFF	; 255
    2a68:	ed 01       	movw	r28, r26
    2a6a:	09 90       	ld	r0, Y+
    2a6c:	00 20       	and	r0, r0
    2a6e:	e9 f7       	brne	.-6      	; 0x2a6a <usart_send+0xa0>
    2a70:	21 97       	sbiw	r28, 0x01	; 1
    2a72:	ca 1b       	sub	r28, r26
    2a74:	db 0b       	sbc	r29, r27
    2a76:	2c 17       	cp	r18, r28
    2a78:	3d 07       	cpc	r19, r29
    2a7a:	60 f3       	brcs	.-40     	; 0x2a54 <usart_send+0x8a>
    2a7c:	29 c0       	rjmp	.+82     	; 0x2ad0 <usart_send+0x106>
		}
		break;
		case 2:
		for(int i = 0; i < strlen(data); i++)
		{
			while (! (UCSR2A & (1<<UDRE2)));
    2a7e:	80 81       	ld	r24, Z
    2a80:	85 ff       	sbrs	r24, 5
    2a82:	fd cf       	rjmp	.-6      	; 0x2a7e <usart_send+0xb4>
			UDR2 = data[i];
    2a84:	ea 01       	movw	r28, r20
    2a86:	89 91       	ld	r24, Y+
    2a88:	ae 01       	movw	r20, r28
    2a8a:	eb 01       	movw	r28, r22
    2a8c:	88 83       	st	Y, r24
			while (! (UCSR1A & (1<<UDRE1)));
			UDR1 = data[i];
		}
		break;
		case 2:
		for(int i = 0; i < strlen(data); i++)
    2a8e:	2f 5f       	subi	r18, 0xFF	; 255
    2a90:	3f 4f       	sbci	r19, 0xFF	; 255
    2a92:	ed 01       	movw	r28, r26
    2a94:	09 90       	ld	r0, Y+
    2a96:	00 20       	and	r0, r0
    2a98:	e9 f7       	brne	.-6      	; 0x2a94 <usart_send+0xca>
    2a9a:	21 97       	sbiw	r28, 0x01	; 1
    2a9c:	ca 1b       	sub	r28, r26
    2a9e:	db 0b       	sbc	r29, r27
    2aa0:	2c 17       	cp	r18, r28
    2aa2:	3d 07       	cpc	r19, r29
    2aa4:	60 f3       	brcs	.-40     	; 0x2a7e <usart_send+0xb4>
    2aa6:	14 c0       	rjmp	.+40     	; 0x2ad0 <usart_send+0x106>
		}
		break;
		case 3:
		for(int i = 0; i < strlen(data); i++)
		{
			while (! (UCSR3A & (1<<UDRE3)));
    2aa8:	80 81       	ld	r24, Z
    2aaa:	85 ff       	sbrs	r24, 5
    2aac:	fd cf       	rjmp	.-6      	; 0x2aa8 <usart_send+0xde>
			UDR3 = data[i];
    2aae:	ea 01       	movw	r28, r20
    2ab0:	89 91       	ld	r24, Y+
    2ab2:	ae 01       	movw	r20, r28
    2ab4:	eb 01       	movw	r28, r22
    2ab6:	88 83       	st	Y, r24
			while (! (UCSR2A & (1<<UDRE2)));
			UDR2 = data[i];
		}
		break;
		case 3:
		for(int i = 0; i < strlen(data); i++)
    2ab8:	2f 5f       	subi	r18, 0xFF	; 255
    2aba:	3f 4f       	sbci	r19, 0xFF	; 255
    2abc:	ed 01       	movw	r28, r26
    2abe:	09 90       	ld	r0, Y+
    2ac0:	00 20       	and	r0, r0
    2ac2:	e9 f7       	brne	.-6      	; 0x2abe <usart_send+0xf4>
    2ac4:	21 97       	sbiw	r28, 0x01	; 1
    2ac6:	ca 1b       	sub	r28, r26
    2ac8:	db 0b       	sbc	r29, r27
    2aca:	2c 17       	cp	r18, r28
    2acc:	3d 07       	cpc	r19, r29
    2ace:	60 f3       	brcs	.-40     	; 0x2aa8 <usart_send+0xde>
			UDR3 = data[i];
		}
		break;
	}
	return;
}
    2ad0:	df 91       	pop	r29
    2ad2:	cf 91       	pop	r28
    2ad4:	08 95       	ret

00002ad6 <parse_GPS>:

void parse_GPS(char* in, int* GPS_data)
{
    2ad6:	4f 92       	push	r4
    2ad8:	5f 92       	push	r5
    2ada:	6f 92       	push	r6
    2adc:	7f 92       	push	r7
    2ade:	8f 92       	push	r8
    2ae0:	9f 92       	push	r9
    2ae2:	af 92       	push	r10
    2ae4:	bf 92       	push	r11
    2ae6:	cf 92       	push	r12
    2ae8:	df 92       	push	r13
    2aea:	ef 92       	push	r14
    2aec:	ff 92       	push	r15
    2aee:	0f 93       	push	r16
    2af0:	1f 93       	push	r17
    2af2:	cf 93       	push	r28
    2af4:	df 93       	push	r29
    2af6:	cd b7       	in	r28, 0x3d	; 61
    2af8:	de b7       	in	r29, 0x3e	; 62
    2afa:	6d 97       	sbiw	r28, 0x1d	; 29
    2afc:	0f b6       	in	r0, 0x3f	; 63
    2afe:	f8 94       	cli
    2b00:	de bf       	out	0x3e, r29	; 62
    2b02:	0f be       	out	0x3f, r0	; 63
    2b04:	cd bf       	out	0x3d, r28	; 61
    2b06:	7c 01       	movw	r14, r24
    2b08:	8b 01       	movw	r16, r22
	int fix = 0;
    2b0a:	1a 82       	std	Y+2, r1	; 0x02
    2b0c:	19 82       	std	Y+1, r1	; 0x01
	int min, sec, latd, lats, latm, lond, lonm, lons, alt1, alt2;
	long hour;
	char ns, ew;
	int temp;
	if(in[3] == 'G')
    2b0e:	fc 01       	movw	r30, r24
    2b10:	83 81       	ldd	r24, Z+3	; 0x03
    2b12:	87 34       	cpi	r24, 0x47	; 71
    2b14:	09 f0       	breq	.+2      	; 0x2b18 <parse_GPS+0x42>
    2b16:	c5 c0       	rjmp	.+394    	; 0x2ca2 <parse_GPS+0x1cc>
	{
		sscanf(in, "$GPGGA,%ld.%d,%d.%d,%c,%d.%d,%c,%d,%d,%d.%d,%d.%d",&hour, &temp, &latd, &lats, &ns, &lond, &lons, &ew, &fix, &temp, &temp, &temp,&alt1, &alt2);
    2b18:	ce 01       	movw	r24, r28
    2b1a:	0d 96       	adiw	r24, 0x0d	; 13
    2b1c:	9f 93       	push	r25
    2b1e:	8f 93       	push	r24
    2b20:	02 97       	sbiw	r24, 0x02	; 2
    2b22:	9f 93       	push	r25
    2b24:	8f 93       	push	r24
    2b26:	0a 96       	adiw	r24, 0x0a	; 10
    2b28:	9f 93       	push	r25
    2b2a:	8f 93       	push	r24
    2b2c:	9f 93       	push	r25
    2b2e:	8f 93       	push	r24
    2b30:	9f 93       	push	r25
    2b32:	8f 93       	push	r24
    2b34:	9e 01       	movw	r18, r28
    2b36:	2f 5f       	subi	r18, 0xFF	; 255
    2b38:	3f 4f       	sbci	r19, 0xFF	; 255
    2b3a:	3f 93       	push	r19
    2b3c:	2f 93       	push	r18
    2b3e:	2d 5e       	subi	r18, 0xED	; 237
    2b40:	3f 4f       	sbci	r19, 0xFF	; 255
    2b42:	3f 93       	push	r19
    2b44:	2f 93       	push	r18
    2b46:	2b 50       	subi	r18, 0x0B	; 11
    2b48:	31 09       	sbc	r19, r1
    2b4a:	3f 93       	push	r19
    2b4c:	2f 93       	push	r18
    2b4e:	22 50       	subi	r18, 0x02	; 2
    2b50:	31 09       	sbc	r19, r1
    2b52:	3f 93       	push	r19
    2b54:	2f 93       	push	r18
    2b56:	24 5f       	subi	r18, 0xF4	; 244
    2b58:	3f 4f       	sbci	r19, 0xFF	; 255
    2b5a:	3f 93       	push	r19
    2b5c:	2f 93       	push	r18
    2b5e:	2e 50       	subi	r18, 0x0E	; 14
    2b60:	31 09       	sbc	r19, r1
    2b62:	3f 93       	push	r19
    2b64:	2f 93       	push	r18
    2b66:	22 50       	subi	r18, 0x02	; 2
    2b68:	31 09       	sbc	r19, r1
    2b6a:	3f 93       	push	r19
    2b6c:	2f 93       	push	r18
    2b6e:	9f 93       	push	r25
    2b70:	8f 93       	push	r24
    2b72:	06 97       	sbiw	r24, 0x06	; 6
    2b74:	9f 93       	push	r25
    2b76:	8f 93       	push	r24
    2b78:	80 e9       	ldi	r24, 0x90	; 144
    2b7a:	92 e0       	ldi	r25, 0x02	; 2
    2b7c:	9f 93       	push	r25
    2b7e:	8f 93       	push	r24
    2b80:	ff 92       	push	r15
    2b82:	ef 92       	push	r14
    2b84:	0e 94 b6 36 	call	0x6d6c	; 0x6d6c <sscanf>
		latm = latd % 100;
    2b88:	8b 81       	ldd	r24, Y+3	; 0x03
    2b8a:	9c 81       	ldd	r25, Y+4	; 0x04
    2b8c:	24 e6       	ldi	r18, 0x64	; 100
    2b8e:	30 e0       	ldi	r19, 0x00	; 0
    2b90:	b9 01       	movw	r22, r18
    2b92:	0e 94 fa 35 	call	0x6bf4	; 0x6bf4 <__divmodhi4>
    2b96:	6b 01       	movw	r12, r22
    2b98:	5c 01       	movw	r10, r24
		latd /= 100;
    2b9a:	7c 83       	std	Y+4, r23	; 0x04
    2b9c:	6b 83       	std	Y+3, r22	; 0x03
		lonm = lond % 100;
    2b9e:	8f 81       	ldd	r24, Y+7	; 0x07
    2ba0:	98 85       	ldd	r25, Y+8	; 0x08
    2ba2:	b9 01       	movw	r22, r18
    2ba4:	0e 94 fa 35 	call	0x6bf4	; 0x6bf4 <__divmodhi4>
    2ba8:	7b 01       	movw	r14, r22
    2baa:	4c 01       	movw	r8, r24
		lond /= 100;
    2bac:	78 87       	std	Y+8, r23	; 0x08
    2bae:	6f 83       	std	Y+7, r22	; 0x07
		sec = hour % 100;
    2bb0:	6f 85       	ldd	r22, Y+15	; 0x0f
    2bb2:	78 89       	ldd	r23, Y+16	; 0x10
    2bb4:	89 89       	ldd	r24, Y+17	; 0x11
    2bb6:	9a 89       	ldd	r25, Y+18	; 0x12
    2bb8:	0f 2e       	mov	r0, r31
    2bba:	f4 e6       	ldi	r31, 0x64	; 100
    2bbc:	4f 2e       	mov	r4, r31
    2bbe:	51 2c       	mov	r5, r1
    2bc0:	61 2c       	mov	r6, r1
    2bc2:	71 2c       	mov	r7, r1
    2bc4:	f0 2d       	mov	r31, r0
    2bc6:	a3 01       	movw	r20, r6
    2bc8:	92 01       	movw	r18, r4
    2bca:	0e 94 2f 36 	call	0x6c5e	; 0x6c5e <__divmodsi4>
    2bce:	6a 8f       	std	Y+26, r22	; 0x1a
    2bd0:	7b 8f       	std	Y+27, r23	; 0x1b
    2bd2:	8c 8f       	std	Y+28, r24	; 0x1c
    2bd4:	9d 8f       	std	Y+29, r25	; 0x1d
		hour /= 100;
		min = hour % 100;
    2bd6:	ca 01       	movw	r24, r20
    2bd8:	b9 01       	movw	r22, r18
    2bda:	a3 01       	movw	r20, r6
    2bdc:	92 01       	movw	r18, r4
    2bde:	0e 94 2f 36 	call	0x6c5e	; 0x6c5e <__divmodsi4>
		hour /= 100;

		if(hour > 6)
    2be2:	0f b6       	in	r0, 0x3f	; 63
    2be4:	f8 94       	cli
    2be6:	de bf       	out	0x3e, r29	; 62
    2be8:	0f be       	out	0x3f, r0	; 63
    2bea:	cd bf       	out	0x3d, r28	; 61
    2bec:	27 30       	cpi	r18, 0x07	; 7
    2bee:	31 05       	cpc	r19, r1
    2bf0:	41 05       	cpc	r20, r1
    2bf2:	51 05       	cpc	r21, r1
    2bf4:	64 f0       	brlt	.+24     	; 0x2c0e <parse_GPS+0x138>
		hour = hour-7;
    2bf6:	29 01       	movw	r4, r18
    2bf8:	3a 01       	movw	r6, r20
    2bfa:	f7 e0       	ldi	r31, 0x07	; 7
    2bfc:	4f 1a       	sub	r4, r31
    2bfe:	51 08       	sbc	r5, r1
    2c00:	61 08       	sbc	r6, r1
    2c02:	71 08       	sbc	r7, r1
    2c04:	4f 86       	std	Y+15, r4	; 0x0f
    2c06:	58 8a       	std	Y+16, r5	; 0x10
    2c08:	69 8a       	std	Y+17, r6	; 0x11
    2c0a:	7a 8a       	std	Y+18, r7	; 0x12
    2c0c:	0b c0       	rjmp	.+22     	; 0x2c24 <parse_GPS+0x14e>
		else
		hour = hour + 17;
    2c0e:	29 01       	movw	r4, r18
    2c10:	3a 01       	movw	r6, r20
    2c12:	e1 e1       	ldi	r30, 0x11	; 17
    2c14:	4e 0e       	add	r4, r30
    2c16:	51 1c       	adc	r5, r1
    2c18:	61 1c       	adc	r6, r1
    2c1a:	71 1c       	adc	r7, r1
    2c1c:	4f 86       	std	Y+15, r4	; 0x0f
    2c1e:	58 8a       	std	Y+16, r5	; 0x10
    2c20:	69 8a       	std	Y+17, r6	; 0x11
    2c22:	7a 8a       	std	Y+18, r7	; 0x12
		if(fix == 1)
    2c24:	49 81       	ldd	r20, Y+1	; 0x01
    2c26:	5a 81       	ldd	r21, Y+2	; 0x02
    2c28:	41 30       	cpi	r20, 0x01	; 1
    2c2a:	51 05       	cpc	r21, r1
    2c2c:	81 f4       	brne	.+32     	; 0x2c4e <parse_GPS+0x178>
		{
			if(ns == 'S')
    2c2e:	2b 89       	ldd	r18, Y+19	; 0x13
    2c30:	23 35       	cpi	r18, 0x53	; 83
    2c32:	29 f4       	brne	.+10     	; 0x2c3e <parse_GPS+0x168>
				latd = -latd;
    2c34:	d1 94       	neg	r13
    2c36:	c1 94       	neg	r12
    2c38:	d1 08       	sbc	r13, r1
    2c3a:	dc 82       	std	Y+4, r13	; 0x04
    2c3c:	cb 82       	std	Y+3, r12	; 0x03
			if(ew == 'W')
    2c3e:	2c 89       	ldd	r18, Y+20	; 0x14
    2c40:	27 35       	cpi	r18, 0x57	; 87
    2c42:	29 f4       	brne	.+10     	; 0x2c4e <parse_GPS+0x178>
				lond = -lond;
    2c44:	f1 94       	neg	r15
    2c46:	e1 94       	neg	r14
    2c48:	f1 08       	sbc	r15, r1
    2c4a:	f8 86       	std	Y+8, r15	; 0x08
    2c4c:	ef 82       	std	Y+7, r14	; 0x07
		}
		GPS_data[0] = hour;
    2c4e:	2f 85       	ldd	r18, Y+15	; 0x0f
    2c50:	38 89       	ldd	r19, Y+16	; 0x10
    2c52:	f8 01       	movw	r30, r16
    2c54:	31 83       	std	Z+1, r19	; 0x01
    2c56:	20 83       	st	Z, r18
		GPS_data[1] = min;
    2c58:	73 83       	std	Z+3, r23	; 0x03
    2c5a:	62 83       	std	Z+2, r22	; 0x02
		GPS_data[2] = sec;
    2c5c:	2a 8d       	ldd	r18, Y+26	; 0x1a
    2c5e:	3b 8d       	ldd	r19, Y+27	; 0x1b
    2c60:	35 83       	std	Z+5, r19	; 0x05
    2c62:	24 83       	std	Z+4, r18	; 0x04
		GPS_data[3]	= latd;
    2c64:	2b 81       	ldd	r18, Y+3	; 0x03
    2c66:	3c 81       	ldd	r19, Y+4	; 0x04
    2c68:	37 83       	std	Z+7, r19	; 0x07
    2c6a:	26 83       	std	Z+6, r18	; 0x06
		GPS_data[4] = latm;
    2c6c:	b1 86       	std	Z+9, r11	; 0x09
    2c6e:	a0 86       	std	Z+8, r10	; 0x08
		GPS_data[5] = lats;
    2c70:	2d 81       	ldd	r18, Y+5	; 0x05
    2c72:	3e 81       	ldd	r19, Y+6	; 0x06
    2c74:	33 87       	std	Z+11, r19	; 0x0b
    2c76:	22 87       	std	Z+10, r18	; 0x0a
		GPS_data[6] = lond;
    2c78:	2f 81       	ldd	r18, Y+7	; 0x07
    2c7a:	38 85       	ldd	r19, Y+8	; 0x08
    2c7c:	35 87       	std	Z+13, r19	; 0x0d
    2c7e:	24 87       	std	Z+12, r18	; 0x0c
		GPS_data[7] = lonm;
    2c80:	97 86       	std	Z+15, r9	; 0x0f
    2c82:	86 86       	std	Z+14, r8	; 0x0e
		GPS_data[8] = lons;
    2c84:	29 85       	ldd	r18, Y+9	; 0x09
    2c86:	3a 85       	ldd	r19, Y+10	; 0x0a
    2c88:	31 8b       	std	Z+17, r19	; 0x11
    2c8a:	20 8b       	std	Z+16, r18	; 0x10
		GPS_data[9] = fix;
    2c8c:	53 8b       	std	Z+19, r21	; 0x13
    2c8e:	42 8b       	std	Z+18, r20	; 0x12
		GPS_data[10] = alt1;
    2c90:	8b 85       	ldd	r24, Y+11	; 0x0b
    2c92:	9c 85       	ldd	r25, Y+12	; 0x0c
    2c94:	95 8b       	std	Z+21, r25	; 0x15
    2c96:	84 8b       	std	Z+20, r24	; 0x14
		GPS_data[11] = alt2;
    2c98:	8d 85       	ldd	r24, Y+13	; 0x0d
    2c9a:	9e 85       	ldd	r25, Y+14	; 0x0e
    2c9c:	97 8b       	std	Z+23, r25	; 0x17
    2c9e:	86 8b       	std	Z+22, r24	; 0x16
    2ca0:	fa c0       	rjmp	.+500    	; 0x2e96 <parse_GPS+0x3c0>
	}
	else if(in[3] == 'R')
    2ca2:	82 35       	cpi	r24, 0x52	; 82
    2ca4:	09 f0       	breq	.+2      	; 0x2ca8 <parse_GPS+0x1d2>
    2ca6:	f7 c0       	rjmp	.+494    	; 0x2e96 <parse_GPS+0x3c0>
	{
		sscanf(in, "$GPRMC,%ld", &hour);
    2ca8:	ce 01       	movw	r24, r28
    2caa:	0f 96       	adiw	r24, 0x0f	; 15
    2cac:	9f 93       	push	r25
    2cae:	8f 93       	push	r24
    2cb0:	82 ec       	ldi	r24, 0xC2	; 194
    2cb2:	92 e0       	ldi	r25, 0x02	; 2
    2cb4:	9f 93       	push	r25
    2cb6:	8f 93       	push	r24
    2cb8:	ff 92       	push	r15
    2cba:	ef 92       	push	r14
    2cbc:	0e 94 b6 36 	call	0x6d6c	; 0x6d6c <sscanf>
		sec = hour % 100;
    2cc0:	6f 85       	ldd	r22, Y+15	; 0x0f
    2cc2:	78 89       	ldd	r23, Y+16	; 0x10
    2cc4:	89 89       	ldd	r24, Y+17	; 0x11
    2cc6:	9a 89       	ldd	r25, Y+18	; 0x12
    2cc8:	0f 2e       	mov	r0, r31
    2cca:	f4 e6       	ldi	r31, 0x64	; 100
    2ccc:	4f 2e       	mov	r4, r31
    2cce:	51 2c       	mov	r5, r1
    2cd0:	61 2c       	mov	r6, r1
    2cd2:	71 2c       	mov	r7, r1
    2cd4:	f0 2d       	mov	r31, r0
    2cd6:	a3 01       	movw	r20, r6
    2cd8:	92 01       	movw	r18, r4
    2cda:	0e 94 2f 36 	call	0x6c5e	; 0x6c5e <__divmodsi4>
    2cde:	4b 01       	movw	r8, r22
    2ce0:	5c 01       	movw	r10, r24
		hour /= 100;
		min = hour % 100;
    2ce2:	ca 01       	movw	r24, r20
    2ce4:	b9 01       	movw	r22, r18
    2ce6:	a3 01       	movw	r20, r6
    2ce8:	92 01       	movw	r18, r4
    2cea:	0e 94 2f 36 	call	0x6c5e	; 0x6c5e <__divmodsi4>
		hour /= 100;

		if(hour > 6)
    2cee:	0f 90       	pop	r0
    2cf0:	0f 90       	pop	r0
    2cf2:	0f 90       	pop	r0
    2cf4:	0f 90       	pop	r0
    2cf6:	0f 90       	pop	r0
    2cf8:	0f 90       	pop	r0
    2cfa:	27 30       	cpi	r18, 0x07	; 7
    2cfc:	31 05       	cpc	r19, r1
    2cfe:	41 05       	cpc	r20, r1
    2d00:	51 05       	cpc	r21, r1
    2d02:	64 f0       	brlt	.+24     	; 0x2d1c <parse_GPS+0x246>
		hour = hour-7;
    2d04:	29 01       	movw	r4, r18
    2d06:	3a 01       	movw	r6, r20
    2d08:	e7 e0       	ldi	r30, 0x07	; 7
    2d0a:	4e 1a       	sub	r4, r30
    2d0c:	51 08       	sbc	r5, r1
    2d0e:	61 08       	sbc	r6, r1
    2d10:	71 08       	sbc	r7, r1
    2d12:	4f 86       	std	Y+15, r4	; 0x0f
    2d14:	58 8a       	std	Y+16, r5	; 0x10
    2d16:	69 8a       	std	Y+17, r6	; 0x11
    2d18:	7a 8a       	std	Y+18, r7	; 0x12
    2d1a:	0b c0       	rjmp	.+22     	; 0x2d32 <parse_GPS+0x25c>
		else
		hour = hour + 17;
    2d1c:	29 01       	movw	r4, r18
    2d1e:	3a 01       	movw	r6, r20
    2d20:	f1 e1       	ldi	r31, 0x11	; 17
    2d22:	4f 0e       	add	r4, r31
    2d24:	51 1c       	adc	r5, r1
    2d26:	61 1c       	adc	r6, r1
    2d28:	71 1c       	adc	r7, r1
    2d2a:	4f 86       	std	Y+15, r4	; 0x0f
    2d2c:	58 8a       	std	Y+16, r5	; 0x10
    2d2e:	69 8a       	std	Y+17, r6	; 0x11
    2d30:	7a 8a       	std	Y+18, r7	; 0x12
		GPS_data[0] = hour;
    2d32:	2f 85       	ldd	r18, Y+15	; 0x0f
    2d34:	38 89       	ldd	r19, Y+16	; 0x10
    2d36:	f8 01       	movw	r30, r16
    2d38:	31 83       	std	Z+1, r19	; 0x01
    2d3a:	20 83       	st	Z, r18
		GPS_data[1] = min;
    2d3c:	73 83       	std	Z+3, r23	; 0x03
    2d3e:	62 83       	std	Z+2, r22	; 0x02
		GPS_data[2] = sec;	
    2d40:	95 82       	std	Z+5, r9	; 0x05
    2d42:	84 82       	std	Z+4, r8	; 0x04
		int i = 0;
		int comma = 9;
		char temp[3];
		while(comma > 7)
		{
			while(in[i] != ',')
    2d44:	f7 01       	movw	r30, r14
    2d46:	80 81       	ld	r24, Z
    2d48:	8c 32       	cpi	r24, 0x2C	; 44
    2d4a:	41 f0       	breq	.+16     	; 0x2d5c <parse_GPS+0x286>
    2d4c:	31 96       	adiw	r30, 0x01	; 1
		hour = hour + 17;
		GPS_data[0] = hour;
		GPS_data[1] = min;
		GPS_data[2] = sec;	

		int i = 0;
    2d4e:	80 e0       	ldi	r24, 0x00	; 0
    2d50:	90 e0       	ldi	r25, 0x00	; 0
		int comma = 9;
		char temp[3];
		while(comma > 7)
		{
			while(in[i] != ',')
				i++;
    2d52:	01 96       	adiw	r24, 0x01	; 1
		int i = 0;
		int comma = 9;
		char temp[3];
		while(comma > 7)
		{
			while(in[i] != ',')
    2d54:	21 91       	ld	r18, Z+
    2d56:	2c 32       	cpi	r18, 0x2C	; 44
    2d58:	e1 f7       	brne	.-8      	; 0x2d52 <parse_GPS+0x27c>
    2d5a:	02 c0       	rjmp	.+4      	; 0x2d60 <parse_GPS+0x28a>
		hour = hour + 17;
		GPS_data[0] = hour;
		GPS_data[1] = min;
		GPS_data[2] = sec;	

		int i = 0;
    2d5c:	80 e0       	ldi	r24, 0x00	; 0
    2d5e:	90 e0       	ldi	r25, 0x00	; 0
		while(comma > 7)
		{
			while(in[i] != ',')
				i++;
			comma--;
			i++;
    2d60:	9c 01       	movw	r18, r24
    2d62:	2f 5f       	subi	r18, 0xFF	; 255
    2d64:	3f 4f       	sbci	r19, 0xFF	; 255
		int i = 0;
		int comma = 9;
		char temp[3];
		while(comma > 7)
		{
			while(in[i] != ',')
    2d66:	f7 01       	movw	r30, r14
    2d68:	e2 0f       	add	r30, r18
    2d6a:	f3 1f       	adc	r31, r19
    2d6c:	40 81       	ld	r20, Z
    2d6e:	4c 32       	cpi	r20, 0x2C	; 44
    2d70:	81 f4       	brne	.+32     	; 0x2d92 <parse_GPS+0x2bc>
    2d72:	05 c0       	rjmp	.+10     	; 0x2d7e <parse_GPS+0x2a8>
				i++;
    2d74:	2f 5f       	subi	r18, 0xFF	; 255
    2d76:	3f 4f       	sbci	r19, 0xFF	; 255
		int i = 0;
		int comma = 9;
		char temp[3];
		while(comma > 7)
		{
			while(in[i] != ',')
    2d78:	81 91       	ld	r24, Z+
    2d7a:	8c 32       	cpi	r24, 0x2C	; 44
    2d7c:	d9 f7       	brne	.-10     	; 0x2d74 <parse_GPS+0x29e>
				i++;
			comma--;
			i++;
    2d7e:	2f 5f       	subi	r18, 0xFF	; 255
    2d80:	3f 4f       	sbci	r19, 0xFF	; 255
		}
		if(in[i] == 'A')
    2d82:	f7 01       	movw	r30, r14
    2d84:	e2 0f       	add	r30, r18
    2d86:	f3 1f       	adc	r31, r19
    2d88:	80 81       	ld	r24, Z
    2d8a:	81 34       	cpi	r24, 0x41	; 65
    2d8c:	09 f0       	breq	.+2      	; 0x2d90 <parse_GPS+0x2ba>
    2d8e:	83 c0       	rjmp	.+262    	; 0x2e96 <parse_GPS+0x3c0>
    2d90:	05 c0       	rjmp	.+10     	; 0x2d9c <parse_GPS+0x2c6>
    2d92:	02 96       	adiw	r24, 0x02	; 2
    2d94:	f7 01       	movw	r30, r14
    2d96:	e8 0f       	add	r30, r24
    2d98:	f9 1f       	adc	r31, r25
    2d9a:	ec cf       	rjmp	.-40     	; 0x2d74 <parse_GPS+0x29e>
		{
			GPS_data[9] = 1;
    2d9c:	81 e0       	ldi	r24, 0x01	; 1
    2d9e:	90 e0       	ldi	r25, 0x00	; 0
    2da0:	f8 01       	movw	r30, r16
    2da2:	93 8b       	std	Z+19, r25	; 0x13
    2da4:	82 8b       	std	Z+18, r24	; 0x12
    2da6:	47 e0       	ldi	r20, 0x07	; 7
    2da8:	50 e0       	ldi	r21, 0x00	; 0
    2daa:	53 c0       	rjmp	.+166    	; 0x2e52 <parse_GPS+0x37c>
			while(comma > 0)
			{
				while(in[i] != ',')
					i++;
    2dac:	2f 5f       	subi	r18, 0xFF	; 255
    2dae:	3f 4f       	sbci	r19, 0xFF	; 255
		if(in[i] == 'A')
		{
			GPS_data[9] = 1;
			while(comma > 0)
			{
				while(in[i] != ',')
    2db0:	91 91       	ld	r25, Z+
    2db2:	9c 32       	cpi	r25, 0x2C	; 44
    2db4:	d9 f7       	brne	.-10     	; 0x2dac <parse_GPS+0x2d6>
					i++;
				comma--;
				i++;
    2db6:	2f 5f       	subi	r18, 0xFF	; 255
    2db8:	3f 4f       	sbci	r19, 0xFF	; 255
    2dba:	41 50       	subi	r20, 0x01	; 1
    2dbc:	51 09       	sbc	r21, r1
			i++;
		}
		if(in[i] == 'A')
		{
			GPS_data[9] = 1;
			while(comma > 0)
    2dbe:	09 f0       	breq	.+2      	; 0x2dc2 <parse_GPS+0x2ec>
    2dc0:	48 c0       	rjmp	.+144    	; 0x2e52 <parse_GPS+0x37c>
				while(in[i] != ',')
					i++;
				comma--;
				i++;
			}
			temp[0] = in[i++];
    2dc2:	e2 0e       	add	r14, r18
    2dc4:	f3 1e       	adc	r15, r19
    2dc6:	f7 01       	movw	r30, r14
    2dc8:	80 81       	ld	r24, Z
    2dca:	8f 8b       	std	Y+23, r24	; 0x17
			temp[1] = in[i++];
    2dcc:	81 81       	ldd	r24, Z+1	; 0x01
    2dce:	88 8f       	std	Y+24, r24	; 0x18
			temp[2] = 0;
    2dd0:	19 8e       	std	Y+25, r1	; 0x19
			sscanf(temp, "%d", &GPS_data[13]);
    2dd2:	c8 01       	movw	r24, r16
    2dd4:	4a 96       	adiw	r24, 0x1a	; 26
    2dd6:	9f 93       	push	r25
    2dd8:	8f 93       	push	r24
    2dda:	0f 2e       	mov	r0, r31
    2ddc:	f4 e0       	ldi	r31, 0x04	; 4
    2dde:	af 2e       	mov	r10, r31
    2de0:	f3 e0       	ldi	r31, 0x03	; 3
    2de2:	bf 2e       	mov	r11, r31
    2de4:	f0 2d       	mov	r31, r0
    2de6:	bf 92       	push	r11
    2de8:	af 92       	push	r10
    2dea:	6e 01       	movw	r12, r28
    2dec:	f7 e1       	ldi	r31, 0x17	; 23
    2dee:	cf 0e       	add	r12, r31
    2df0:	d1 1c       	adc	r13, r1
    2df2:	df 92       	push	r13
    2df4:	cf 92       	push	r12
    2df6:	0e 94 b6 36 	call	0x6d6c	; 0x6d6c <sscanf>
			temp[0] = in[i++];
    2dfa:	f7 01       	movw	r30, r14
    2dfc:	82 81       	ldd	r24, Z+2	; 0x02
    2dfe:	8f 8b       	std	Y+23, r24	; 0x17
			temp[1] = in[i++];
    2e00:	83 81       	ldd	r24, Z+3	; 0x03
    2e02:	88 8f       	std	Y+24, r24	; 0x18
			temp[2] = 0;
    2e04:	19 8e       	std	Y+25, r1	; 0x19
			sscanf(temp, "%d", &GPS_data[12]);
    2e06:	c8 01       	movw	r24, r16
    2e08:	48 96       	adiw	r24, 0x18	; 24
    2e0a:	9f 93       	push	r25
    2e0c:	8f 93       	push	r24
    2e0e:	bf 92       	push	r11
    2e10:	af 92       	push	r10
    2e12:	df 92       	push	r13
    2e14:	cf 92       	push	r12
    2e16:	0e 94 b6 36 	call	0x6d6c	; 0x6d6c <sscanf>
			temp[0] = in[i++];
    2e1a:	f7 01       	movw	r30, r14
    2e1c:	84 81       	ldd	r24, Z+4	; 0x04
    2e1e:	8f 8b       	std	Y+23, r24	; 0x17
			temp[1] = in[i++];
    2e20:	85 81       	ldd	r24, Z+5	; 0x05
    2e22:	88 8f       	std	Y+24, r24	; 0x18
			temp[2] = 0;
    2e24:	19 8e       	std	Y+25, r1	; 0x19
			sscanf(temp, "%d", &GPS_data[14]);
    2e26:	c8 01       	movw	r24, r16
    2e28:	4c 96       	adiw	r24, 0x1c	; 28
    2e2a:	9f 93       	push	r25
    2e2c:	8f 93       	push	r24
    2e2e:	bf 92       	push	r11
    2e30:	af 92       	push	r10
    2e32:	df 92       	push	r13
    2e34:	cf 92       	push	r12
    2e36:	0e 94 b6 36 	call	0x6d6c	; 0x6d6c <sscanf>
			if(GPS_data[12] > 0 && GPS_data[12] < 13)
    2e3a:	f8 01       	movw	r30, r16
    2e3c:	80 8d       	ldd	r24, Z+24	; 0x18
    2e3e:	91 8d       	ldd	r25, Z+25	; 0x19
    2e40:	01 97       	sbiw	r24, 0x01	; 1
    2e42:	0f b6       	in	r0, 0x3f	; 63
    2e44:	f8 94       	cli
    2e46:	de bf       	out	0x3e, r29	; 62
    2e48:	0f be       	out	0x3f, r0	; 63
    2e4a:	cd bf       	out	0x3d, r28	; 61
    2e4c:	0c 97       	sbiw	r24, 0x0c	; 12
    2e4e:	90 f4       	brcc	.+36     	; 0x2e74 <parse_GPS+0x39e>
    2e50:	0c c0       	rjmp	.+24     	; 0x2e6a <parse_GPS+0x394>
		if(in[i] == 'A')
		{
			GPS_data[9] = 1;
			while(comma > 0)
			{
				while(in[i] != ',')
    2e52:	f7 01       	movw	r30, r14
    2e54:	e2 0f       	add	r30, r18
    2e56:	f3 1f       	adc	r31, r19
    2e58:	80 81       	ld	r24, Z
    2e5a:	8c 32       	cpi	r24, 0x2C	; 44
    2e5c:	09 f4       	brne	.+2      	; 0x2e60 <parse_GPS+0x38a>
    2e5e:	ab cf       	rjmp	.-170    	; 0x2db6 <parse_GPS+0x2e0>
    2e60:	f9 01       	movw	r30, r18
    2e62:	31 96       	adiw	r30, 0x01	; 1
    2e64:	ee 0d       	add	r30, r14
    2e66:	ff 1d       	adc	r31, r15
    2e68:	a1 cf       	rjmp	.-190    	; 0x2dac <parse_GPS+0x2d6>
			temp[0] = in[i++];
			temp[1] = in[i++];
			temp[2] = 0;
			sscanf(temp, "%d", &GPS_data[14]);
			if(GPS_data[12] > 0 && GPS_data[12] < 13)
				usart_send(1,"$PMTK314,0,0,0,1,0,0,0,0,0,0,0,0,0,0,0,0,0,0,0*29\r\n");
    2e6a:	6d ec       	ldi	r22, 0xCD	; 205
    2e6c:	72 e0       	ldi	r23, 0x02	; 2
    2e6e:	81 e0       	ldi	r24, 0x01	; 1
    2e70:	90 e0       	ldi	r25, 0x00	; 0
    2e72:	ab dd       	rcall	.-1194   	; 0x29ca <usart_send>
			if(hour > 16 && hour < 24)
    2e74:	8f 85       	ldd	r24, Y+15	; 0x0f
    2e76:	98 89       	ldd	r25, Y+16	; 0x10
    2e78:	a9 89       	ldd	r26, Y+17	; 0x11
    2e7a:	ba 89       	ldd	r27, Y+18	; 0x12
    2e7c:	41 97       	sbiw	r24, 0x11	; 17
    2e7e:	a1 09       	sbc	r26, r1
    2e80:	b1 09       	sbc	r27, r1
    2e82:	07 97       	sbiw	r24, 0x07	; 7
    2e84:	a1 05       	cpc	r26, r1
    2e86:	b1 05       	cpc	r27, r1
    2e88:	30 f4       	brcc	.+12     	; 0x2e96 <parse_GPS+0x3c0>
				GPS_data[13]--;
    2e8a:	f8 01       	movw	r30, r16
    2e8c:	82 8d       	ldd	r24, Z+26	; 0x1a
    2e8e:	93 8d       	ldd	r25, Z+27	; 0x1b
    2e90:	01 97       	sbiw	r24, 0x01	; 1
    2e92:	93 8f       	std	Z+27, r25	; 0x1b
    2e94:	82 8f       	std	Z+26, r24	; 0x1a
		}
	}
	return;
}
    2e96:	6d 96       	adiw	r28, 0x1d	; 29
    2e98:	0f b6       	in	r0, 0x3f	; 63
    2e9a:	f8 94       	cli
    2e9c:	de bf       	out	0x3e, r29	; 62
    2e9e:	0f be       	out	0x3f, r0	; 63
    2ea0:	cd bf       	out	0x3d, r28	; 61
    2ea2:	df 91       	pop	r29
    2ea4:	cf 91       	pop	r28
    2ea6:	1f 91       	pop	r17
    2ea8:	0f 91       	pop	r16
    2eaa:	ff 90       	pop	r15
    2eac:	ef 90       	pop	r14
    2eae:	df 90       	pop	r13
    2eb0:	cf 90       	pop	r12
    2eb2:	bf 90       	pop	r11
    2eb4:	af 90       	pop	r10
    2eb6:	9f 90       	pop	r9
    2eb8:	8f 90       	pop	r8
    2eba:	7f 90       	pop	r7
    2ebc:	6f 90       	pop	r6
    2ebe:	5f 90       	pop	r5
    2ec0:	4f 90       	pop	r4
    2ec2:	08 95       	ret

00002ec4 <parse_dylos>:

void parse_dylos(char* in, int* dylos_data)
{
    2ec4:	0f 93       	push	r16
    2ec6:	1f 93       	push	r17
    2ec8:	cf 93       	push	r28
    2eca:	df 93       	push	r29
    2ecc:	00 d0       	rcall	.+0      	; 0x2ece <parse_dylos+0xa>
    2ece:	1f 92       	push	r1
    2ed0:	cd b7       	in	r28, 0x3d	; 61
    2ed2:	de b7       	in	r29, 0x3e	; 62
    2ed4:	8b 01       	movw	r16, r22
	int small, large;
	sscanf(in, "%d,%d", &small, &large);	
    2ed6:	9e 01       	movw	r18, r28
    2ed8:	2d 5f       	subi	r18, 0xFD	; 253
    2eda:	3f 4f       	sbci	r19, 0xFF	; 255
    2edc:	3f 93       	push	r19
    2ede:	2f 93       	push	r18
    2ee0:	22 50       	subi	r18, 0x02	; 2
    2ee2:	31 09       	sbc	r19, r1
    2ee4:	3f 93       	push	r19
    2ee6:	2f 93       	push	r18
    2ee8:	21 e0       	ldi	r18, 0x01	; 1
    2eea:	33 e0       	ldi	r19, 0x03	; 3
    2eec:	3f 93       	push	r19
    2eee:	2f 93       	push	r18
    2ef0:	9f 93       	push	r25
    2ef2:	8f 93       	push	r24
    2ef4:	0e 94 b6 36 	call	0x6d6c	; 0x6d6c <sscanf>
	dylos_data[0] = small;
    2ef8:	89 81       	ldd	r24, Y+1	; 0x01
    2efa:	9a 81       	ldd	r25, Y+2	; 0x02
    2efc:	f8 01       	movw	r30, r16
    2efe:	91 83       	std	Z+1, r25	; 0x01
    2f00:	80 83       	st	Z, r24
	dylos_data[1] = large;
    2f02:	8b 81       	ldd	r24, Y+3	; 0x03
    2f04:	9c 81       	ldd	r25, Y+4	; 0x04
    2f06:	93 83       	std	Z+3, r25	; 0x03
    2f08:	82 83       	std	Z+2, r24	; 0x02
    2f0a:	0f b6       	in	r0, 0x3f	; 63
    2f0c:	f8 94       	cli
    2f0e:	de bf       	out	0x3e, r29	; 62
    2f10:	0f be       	out	0x3f, r0	; 63
    2f12:	cd bf       	out	0x3d, r28	; 61
	return;
}
    2f14:	0f 90       	pop	r0
    2f16:	0f 90       	pop	r0
    2f18:	0f 90       	pop	r0
    2f1a:	0f 90       	pop	r0
    2f1c:	df 91       	pop	r29
    2f1e:	cf 91       	pop	r28
    2f20:	1f 91       	pop	r17
    2f22:	0f 91       	pop	r16
    2f24:	08 95       	ret

00002f26 <strclr>:

void strclr(char* s)
{	
	for(int i = strlen(s); i > 0; i--)
    2f26:	fc 01       	movw	r30, r24
    2f28:	01 90       	ld	r0, Z+
    2f2a:	00 20       	and	r0, r0
    2f2c:	e9 f7       	brne	.-6      	; 0x2f28 <strclr+0x2>
    2f2e:	31 97       	sbiw	r30, 0x01	; 1
    2f30:	e8 1b       	sub	r30, r24
    2f32:	f9 0b       	sbc	r31, r25
    2f34:	1e 16       	cp	r1, r30
    2f36:	1f 06       	cpc	r1, r31
    2f38:	34 f4       	brge	.+12     	; 0x2f46 <strclr+0x20>
    2f3a:	e8 0f       	add	r30, r24
    2f3c:	f9 1f       	adc	r31, r25
		s[i-1] = 0;
    2f3e:	12 92       	st	-Z, r1
	return;
}

void strclr(char* s)
{	
	for(int i = strlen(s); i > 0; i--)
    2f40:	e8 17       	cp	r30, r24
    2f42:	f9 07       	cpc	r31, r25
    2f44:	e1 f7       	brne	.-8      	; 0x2f3e <strclr+0x18>
    2f46:	08 95       	ret

00002f48 <init_GPS>:
		s[i-1] = 0;
}

void init_GPS()
{
	usart_send(1,"$PGCMD,33,0*6D\r\n");
    2f48:	67 e0       	ldi	r22, 0x07	; 7
    2f4a:	73 e0       	ldi	r23, 0x03	; 3
    2f4c:	81 e0       	ldi	r24, 0x01	; 1
    2f4e:	90 e0       	ldi	r25, 0x00	; 0
    2f50:	3c dd       	rcall	.-1416   	; 0x29ca <usart_send>
	usart_send(1,"$PMTK220,500*2B\r\n");
    2f52:	68 e1       	ldi	r22, 0x18	; 24
    2f54:	73 e0       	ldi	r23, 0x03	; 3
    2f56:	81 e0       	ldi	r24, 0x01	; 1
    2f58:	90 e0       	ldi	r25, 0x00	; 0
    2f5a:	37 dd       	rcall	.-1426   	; 0x29ca <usart_send>
	usart_send(1,"$PMTK314,0,1,0,0,0,0,0,0,0,0,0,0,0,0,0,0,0,0,0*29\r\n");
    2f5c:	6a e2       	ldi	r22, 0x2A	; 42
    2f5e:	73 e0       	ldi	r23, 0x03	; 3
    2f60:	81 e0       	ldi	r24, 0x01	; 1
    2f62:	90 e0       	ldi	r25, 0x00	; 0
    2f64:	32 cd       	rjmp	.-1436   	; 0x29ca <usart_send>
    2f66:	08 95       	ret

00002f68 <main>:
	ov_flag = 1;
	TCNT1 = 57723;
}

int main(void)
{
    2f68:	cf 93       	push	r28
    2f6a:	df 93       	push	r29
    2f6c:	cd b7       	in	r28, 0x3d	; 61
    2f6e:	de b7       	in	r29, 0x3e	; 62
    2f70:	c2 51       	subi	r28, 0x12	; 18
    2f72:	d6 40       	sbci	r29, 0x06	; 6
    2f74:	0f b6       	in	r0, 0x3f	; 63
    2f76:	f8 94       	cli
    2f78:	de bf       	out	0x3e, r29	; 62
    2f7a:	0f be       	out	0x3f, r0	; 63
    2f7c:	cd bf       	out	0x3d, r28	; 61
	DDRF = 0;
    2f7e:	10 ba       	out	0x10, r1	; 16
	char new_GPS_data = 0;
	char new_dylos_data = 0;
	FRESULT fr;

	int ppm2[151];
	ppm2[0] =	10478;
    2f80:	8e ee       	ldi	r24, 0xEE	; 238
    2f82:	98 e2       	ldi	r25, 0x28	; 40
    2f84:	cb 5b       	subi	r28, 0xBB	; 187
    2f86:	de 4f       	sbci	r29, 0xFE	; 254
    2f88:	99 83       	std	Y+1, r25	; 0x01
    2f8a:	88 83       	st	Y, r24
    2f8c:	c5 54       	subi	r28, 0x45	; 69
    2f8e:	d1 40       	sbci	r29, 0x01	; 1
	ppm2[1] =	9706;
    2f90:	8a ee       	ldi	r24, 0xEA	; 234
    2f92:	95 e2       	ldi	r25, 0x25	; 37
    2f94:	c9 5b       	subi	r28, 0xB9	; 185
    2f96:	de 4f       	sbci	r29, 0xFE	; 254
    2f98:	99 83       	std	Y+1, r25	; 0x01
    2f9a:	88 83       	st	Y, r24
    2f9c:	c7 54       	subi	r28, 0x47	; 71
    2f9e:	d1 40       	sbci	r29, 0x01	; 1
	ppm2[2] =	9015;
    2fa0:	87 e3       	ldi	r24, 0x37	; 55
    2fa2:	93 e2       	ldi	r25, 0x23	; 35
    2fa4:	c7 5b       	subi	r28, 0xB7	; 183
    2fa6:	de 4f       	sbci	r29, 0xFE	; 254
    2fa8:	99 83       	std	Y+1, r25	; 0x01
    2faa:	88 83       	st	Y, r24
    2fac:	c9 54       	subi	r28, 0x49	; 73
    2fae:	d1 40       	sbci	r29, 0x01	; 1
	ppm2[3] =	8394;
    2fb0:	8a ec       	ldi	r24, 0xCA	; 202
    2fb2:	90 e2       	ldi	r25, 0x20	; 32
    2fb4:	c5 5b       	subi	r28, 0xB5	; 181
    2fb6:	de 4f       	sbci	r29, 0xFE	; 254
    2fb8:	99 83       	std	Y+1, r25	; 0x01
    2fba:	88 83       	st	Y, r24
    2fbc:	cb 54       	subi	r28, 0x4B	; 75
    2fbe:	d1 40       	sbci	r29, 0x01	; 1
	ppm2[4] =	7834;
    2fc0:	8a e9       	ldi	r24, 0x9A	; 154
    2fc2:	9e e1       	ldi	r25, 0x1E	; 30
    2fc4:	c3 5b       	subi	r28, 0xB3	; 179
    2fc6:	de 4f       	sbci	r29, 0xFE	; 254
    2fc8:	99 83       	std	Y+1, r25	; 0x01
    2fca:	88 83       	st	Y, r24
    2fcc:	cd 54       	subi	r28, 0x4D	; 77
    2fce:	d1 40       	sbci	r29, 0x01	; 1
	ppm2[5] =	7327;
    2fd0:	8f e9       	ldi	r24, 0x9F	; 159
    2fd2:	9c e1       	ldi	r25, 0x1C	; 28
    2fd4:	c1 5b       	subi	r28, 0xB1	; 177
    2fd6:	de 4f       	sbci	r29, 0xFE	; 254
    2fd8:	99 83       	std	Y+1, r25	; 0x01
    2fda:	88 83       	st	Y, r24
    2fdc:	cf 54       	subi	r28, 0x4F	; 79
    2fde:	d1 40       	sbci	r29, 0x01	; 1
	ppm2[6] =	6868;
    2fe0:	84 ed       	ldi	r24, 0xD4	; 212
    2fe2:	9a e1       	ldi	r25, 0x1A	; 26
    2fe4:	cf 5a       	subi	r28, 0xAF	; 175
    2fe6:	de 4f       	sbci	r29, 0xFE	; 254
    2fe8:	99 83       	std	Y+1, r25	; 0x01
    2fea:	88 83       	st	Y, r24
    2fec:	c1 55       	subi	r28, 0x51	; 81
    2fee:	d1 40       	sbci	r29, 0x01	; 1
	ppm2[7] =	6449;
    2ff0:	81 e3       	ldi	r24, 0x31	; 49
    2ff2:	99 e1       	ldi	r25, 0x19	; 25
    2ff4:	cd 5a       	subi	r28, 0xAD	; 173
    2ff6:	de 4f       	sbci	r29, 0xFE	; 254
    2ff8:	99 83       	std	Y+1, r25	; 0x01
    2ffa:	88 83       	st	Y, r24
    2ffc:	c3 55       	subi	r28, 0x53	; 83
    2ffe:	d1 40       	sbci	r29, 0x01	; 1
	ppm2[8] =	6068;
    3000:	84 eb       	ldi	r24, 0xB4	; 180
    3002:	97 e1       	ldi	r25, 0x17	; 23
    3004:	cb 5a       	subi	r28, 0xAB	; 171
    3006:	de 4f       	sbci	r29, 0xFE	; 254
    3008:	99 83       	std	Y+1, r25	; 0x01
    300a:	88 83       	st	Y, r24
    300c:	c5 55       	subi	r28, 0x55	; 85
    300e:	d1 40       	sbci	r29, 0x01	; 1
	ppm2[9] =	5718;
    3010:	86 e5       	ldi	r24, 0x56	; 86
    3012:	96 e1       	ldi	r25, 0x16	; 22
    3014:	c9 5a       	subi	r28, 0xA9	; 169
    3016:	de 4f       	sbci	r29, 0xFE	; 254
    3018:	99 83       	std	Y+1, r25	; 0x01
    301a:	88 83       	st	Y, r24
    301c:	c7 55       	subi	r28, 0x57	; 87
    301e:	d1 40       	sbci	r29, 0x01	; 1
	ppm2[10] =	5398;
    3020:	86 e1       	ldi	r24, 0x16	; 22
    3022:	95 e1       	ldi	r25, 0x15	; 21
    3024:	c7 5a       	subi	r28, 0xA7	; 167
    3026:	de 4f       	sbci	r29, 0xFE	; 254
    3028:	99 83       	std	Y+1, r25	; 0x01
    302a:	88 83       	st	Y, r24
    302c:	c9 55       	subi	r28, 0x59	; 89
    302e:	d1 40       	sbci	r29, 0x01	; 1
	ppm2[11] =	5103;
    3030:	8f ee       	ldi	r24, 0xEF	; 239
    3032:	93 e1       	ldi	r25, 0x13	; 19
    3034:	c5 5a       	subi	r28, 0xA5	; 165
    3036:	de 4f       	sbci	r29, 0xFE	; 254
    3038:	99 83       	std	Y+1, r25	; 0x01
    303a:	88 83       	st	Y, r24
    303c:	cb 55       	subi	r28, 0x5B	; 91
    303e:	d1 40       	sbci	r29, 0x01	; 1
	ppm2[12] =	4831;
    3040:	8f ed       	ldi	r24, 0xDF	; 223
    3042:	92 e1       	ldi	r25, 0x12	; 18
    3044:	c3 5a       	subi	r28, 0xA3	; 163
    3046:	de 4f       	sbci	r29, 0xFE	; 254
    3048:	99 83       	std	Y+1, r25	; 0x01
    304a:	88 83       	st	Y, r24
    304c:	cd 55       	subi	r28, 0x5D	; 93
    304e:	d1 40       	sbci	r29, 0x01	; 1
	ppm2[13] =	4581;
    3050:	85 ee       	ldi	r24, 0xE5	; 229
    3052:	91 e1       	ldi	r25, 0x11	; 17
    3054:	c1 5a       	subi	r28, 0xA1	; 161
    3056:	de 4f       	sbci	r29, 0xFE	; 254
    3058:	99 83       	std	Y+1, r25	; 0x01
    305a:	88 83       	st	Y, r24
    305c:	cf 55       	subi	r28, 0x5F	; 95
    305e:	d1 40       	sbci	r29, 0x01	; 1
	ppm2[14] =	4349;
    3060:	8d ef       	ldi	r24, 0xFD	; 253
    3062:	90 e1       	ldi	r25, 0x10	; 16
    3064:	cf 59       	subi	r28, 0x9F	; 159
    3066:	de 4f       	sbci	r29, 0xFE	; 254
    3068:	99 83       	std	Y+1, r25	; 0x01
    306a:	88 83       	st	Y, r24
    306c:	c1 56       	subi	r28, 0x61	; 97
    306e:	d1 40       	sbci	r29, 0x01	; 1
	ppm2[15] =	4133;
    3070:	85 e2       	ldi	r24, 0x25	; 37
    3072:	90 e1       	ldi	r25, 0x10	; 16
    3074:	cd 59       	subi	r28, 0x9D	; 157
    3076:	de 4f       	sbci	r29, 0xFE	; 254
    3078:	99 83       	std	Y+1, r25	; 0x01
    307a:	88 83       	st	Y, r24
    307c:	c3 56       	subi	r28, 0x63	; 99
    307e:	d1 40       	sbci	r29, 0x01	; 1
	ppm2[16] =	3934;
    3080:	8e e5       	ldi	r24, 0x5E	; 94
    3082:	9f e0       	ldi	r25, 0x0F	; 15
    3084:	cb 59       	subi	r28, 0x9B	; 155
    3086:	de 4f       	sbci	r29, 0xFE	; 254
    3088:	99 83       	std	Y+1, r25	; 0x01
    308a:	88 83       	st	Y, r24
    308c:	c5 56       	subi	r28, 0x65	; 101
    308e:	d1 40       	sbci	r29, 0x01	; 1
	ppm2[17] =	3748;
    3090:	84 ea       	ldi	r24, 0xA4	; 164
    3092:	9e e0       	ldi	r25, 0x0E	; 14
    3094:	c9 59       	subi	r28, 0x99	; 153
    3096:	de 4f       	sbci	r29, 0xFE	; 254
    3098:	99 83       	std	Y+1, r25	; 0x01
    309a:	88 83       	st	Y, r24
    309c:	c7 56       	subi	r28, 0x67	; 103
    309e:	d1 40       	sbci	r29, 0x01	; 1
	ppm2[18] =	3575;
    30a0:	87 ef       	ldi	r24, 0xF7	; 247
    30a2:	9d e0       	ldi	r25, 0x0D	; 13
    30a4:	c7 59       	subi	r28, 0x97	; 151
    30a6:	de 4f       	sbci	r29, 0xFE	; 254
    30a8:	99 83       	std	Y+1, r25	; 0x01
    30aa:	88 83       	st	Y, r24
    30ac:	c9 56       	subi	r28, 0x69	; 105
    30ae:	d1 40       	sbci	r29, 0x01	; 1
	ppm2[19] =	3413;
    30b0:	85 e5       	ldi	r24, 0x55	; 85
    30b2:	9d e0       	ldi	r25, 0x0D	; 13
    30b4:	c5 59       	subi	r28, 0x95	; 149
    30b6:	de 4f       	sbci	r29, 0xFE	; 254
    30b8:	99 83       	std	Y+1, r25	; 0x01
    30ba:	88 83       	st	Y, r24
    30bc:	cb 56       	subi	r28, 0x6B	; 107
    30be:	d1 40       	sbci	r29, 0x01	; 1
	ppm2[20] =	3262;
    30c0:	8e eb       	ldi	r24, 0xBE	; 190
    30c2:	9c e0       	ldi	r25, 0x0C	; 12
    30c4:	c3 59       	subi	r28, 0x93	; 147
    30c6:	de 4f       	sbci	r29, 0xFE	; 254
    30c8:	99 83       	std	Y+1, r25	; 0x01
    30ca:	88 83       	st	Y, r24
    30cc:	cd 56       	subi	r28, 0x6D	; 109
    30ce:	d1 40       	sbci	r29, 0x01	; 1
	ppm2[21] =	3121;
    30d0:	81 e3       	ldi	r24, 0x31	; 49
    30d2:	9c e0       	ldi	r25, 0x0C	; 12
    30d4:	c1 59       	subi	r28, 0x91	; 145
    30d6:	de 4f       	sbci	r29, 0xFE	; 254
    30d8:	99 83       	std	Y+1, r25	; 0x01
    30da:	88 83       	st	Y, r24
    30dc:	cf 56       	subi	r28, 0x6F	; 111
    30de:	d1 40       	sbci	r29, 0x01	; 1
	ppm2[22] =	2988;
    30e0:	6c ea       	ldi	r22, 0xAC	; 172
    30e2:	7b e0       	ldi	r23, 0x0B	; 11
    30e4:	cf 58       	subi	r28, 0x8F	; 143
    30e6:	de 4f       	sbci	r29, 0xFE	; 254
    30e8:	79 83       	std	Y+1, r23	; 0x01
    30ea:	68 83       	st	Y, r22
    30ec:	c1 57       	subi	r28, 0x71	; 113
    30ee:	d1 40       	sbci	r29, 0x01	; 1
	ppm2[23] =	2864;
    30f0:	80 e3       	ldi	r24, 0x30	; 48
    30f2:	9b e0       	ldi	r25, 0x0B	; 11
    30f4:	cd 58       	subi	r28, 0x8D	; 141
    30f6:	de 4f       	sbci	r29, 0xFE	; 254
    30f8:	99 83       	std	Y+1, r25	; 0x01
    30fa:	88 83       	st	Y, r24
    30fc:	c3 57       	subi	r28, 0x73	; 115
    30fe:	d1 40       	sbci	r29, 0x01	; 1
	ppm2[24] =	2747;
    3100:	8b eb       	ldi	r24, 0xBB	; 187
    3102:	9a e0       	ldi	r25, 0x0A	; 10
    3104:	cb 58       	subi	r28, 0x8B	; 139
    3106:	de 4f       	sbci	r29, 0xFE	; 254
    3108:	99 83       	std	Y+1, r25	; 0x01
    310a:	88 83       	st	Y, r24
    310c:	c5 57       	subi	r28, 0x75	; 117
    310e:	d1 40       	sbci	r29, 0x01	; 1
	ppm2[25] =	2637;
    3110:	8d e4       	ldi	r24, 0x4D	; 77
    3112:	9a e0       	ldi	r25, 0x0A	; 10
    3114:	c9 58       	subi	r28, 0x89	; 137
    3116:	de 4f       	sbci	r29, 0xFE	; 254
    3118:	99 83       	std	Y+1, r25	; 0x01
    311a:	88 83       	st	Y, r24
    311c:	c7 57       	subi	r28, 0x77	; 119
    311e:	d1 40       	sbci	r29, 0x01	; 1
	ppm2[26] =	2533;
    3120:	85 ee       	ldi	r24, 0xE5	; 229
    3122:	99 e0       	ldi	r25, 0x09	; 9
    3124:	c7 58       	subi	r28, 0x87	; 135
    3126:	de 4f       	sbci	r29, 0xFE	; 254
    3128:	99 83       	std	Y+1, r25	; 0x01
    312a:	88 83       	st	Y, r24
    312c:	c9 57       	subi	r28, 0x79	; 121
    312e:	d1 40       	sbci	r29, 0x01	; 1
	ppm2[27] =	2435;
    3130:	83 e8       	ldi	r24, 0x83	; 131
    3132:	99 e0       	ldi	r25, 0x09	; 9
    3134:	c5 58       	subi	r28, 0x85	; 133
    3136:	de 4f       	sbci	r29, 0xFE	; 254
    3138:	99 83       	std	Y+1, r25	; 0x01
    313a:	88 83       	st	Y, r24
    313c:	cb 57       	subi	r28, 0x7B	; 123
    313e:	d1 40       	sbci	r29, 0x01	; 1
	ppm2[28] =	2343;
    3140:	87 e2       	ldi	r24, 0x27	; 39
    3142:	99 e0       	ldi	r25, 0x09	; 9
    3144:	c3 58       	subi	r28, 0x83	; 131
    3146:	de 4f       	sbci	r29, 0xFE	; 254
    3148:	99 83       	std	Y+1, r25	; 0x01
    314a:	88 83       	st	Y, r24
    314c:	cd 57       	subi	r28, 0x7D	; 125
    314e:	d1 40       	sbci	r29, 0x01	; 1
	ppm2[29] =	2256;
    3150:	80 ed       	ldi	r24, 0xD0	; 208
    3152:	98 e0       	ldi	r25, 0x08	; 8
    3154:	c1 58       	subi	r28, 0x81	; 129
    3156:	de 4f       	sbci	r29, 0xFE	; 254
    3158:	99 83       	std	Y+1, r25	; 0x01
    315a:	88 83       	st	Y, r24
    315c:	cf 57       	subi	r28, 0x7F	; 127
    315e:	d1 40       	sbci	r29, 0x01	; 1
	ppm2[30] =	2173;
    3160:	8d e7       	ldi	r24, 0x7D	; 125
    3162:	98 e0       	ldi	r25, 0x08	; 8
    3164:	cf 57       	subi	r28, 0x7F	; 127
    3166:	de 4f       	sbci	r29, 0xFE	; 254
    3168:	99 83       	std	Y+1, r25	; 0x01
    316a:	88 83       	st	Y, r24
    316c:	c1 58       	subi	r28, 0x81	; 129
    316e:	d1 40       	sbci	r29, 0x01	; 1
	ppm2[31] =	2095;
    3170:	8f e2       	ldi	r24, 0x2F	; 47
    3172:	98 e0       	ldi	r25, 0x08	; 8
    3174:	cd 57       	subi	r28, 0x7D	; 125
    3176:	de 4f       	sbci	r29, 0xFE	; 254
    3178:	99 83       	std	Y+1, r25	; 0x01
    317a:	88 83       	st	Y, r24
    317c:	c3 58       	subi	r28, 0x83	; 131
    317e:	d1 40       	sbci	r29, 0x01	; 1
	ppm2[32] =	2021;
    3180:	85 ee       	ldi	r24, 0xE5	; 229
    3182:	97 e0       	ldi	r25, 0x07	; 7
    3184:	cb 57       	subi	r28, 0x7B	; 123
    3186:	de 4f       	sbci	r29, 0xFE	; 254
    3188:	99 83       	std	Y+1, r25	; 0x01
    318a:	88 83       	st	Y, r24
    318c:	c5 58       	subi	r28, 0x85	; 133
    318e:	d1 40       	sbci	r29, 0x01	; 1
	ppm2[33] =	1951;
    3190:	8f e9       	ldi	r24, 0x9F	; 159
    3192:	97 e0       	ldi	r25, 0x07	; 7
    3194:	c9 57       	subi	r28, 0x79	; 121
    3196:	de 4f       	sbci	r29, 0xFE	; 254
    3198:	99 83       	std	Y+1, r25	; 0x01
    319a:	88 83       	st	Y, r24
    319c:	c7 58       	subi	r28, 0x87	; 135
    319e:	d1 40       	sbci	r29, 0x01	; 1
	ppm2[34] =	1884;
    31a0:	8c e5       	ldi	r24, 0x5C	; 92
    31a2:	97 e0       	ldi	r25, 0x07	; 7
    31a4:	c7 57       	subi	r28, 0x77	; 119
    31a6:	de 4f       	sbci	r29, 0xFE	; 254
    31a8:	99 83       	std	Y+1, r25	; 0x01
    31aa:	88 83       	st	Y, r24
    31ac:	c9 58       	subi	r28, 0x89	; 137
    31ae:	d1 40       	sbci	r29, 0x01	; 1
	ppm2[35] =	1821;
    31b0:	8d e1       	ldi	r24, 0x1D	; 29
    31b2:	97 e0       	ldi	r25, 0x07	; 7
    31b4:	c5 57       	subi	r28, 0x75	; 117
    31b6:	de 4f       	sbci	r29, 0xFE	; 254
    31b8:	99 83       	std	Y+1, r25	; 0x01
    31ba:	88 83       	st	Y, r24
    31bc:	cb 58       	subi	r28, 0x8B	; 139
    31be:	d1 40       	sbci	r29, 0x01	; 1
	ppm2[36] =	1760;
    31c0:	80 ee       	ldi	r24, 0xE0	; 224
    31c2:	96 e0       	ldi	r25, 0x06	; 6
    31c4:	c3 57       	subi	r28, 0x73	; 115
    31c6:	de 4f       	sbci	r29, 0xFE	; 254
    31c8:	99 83       	std	Y+1, r25	; 0x01
    31ca:	88 83       	st	Y, r24
    31cc:	cd 58       	subi	r28, 0x8D	; 141
    31ce:	d1 40       	sbci	r29, 0x01	; 1
	ppm2[37] =	1703;
    31d0:	87 ea       	ldi	r24, 0xA7	; 167
    31d2:	96 e0       	ldi	r25, 0x06	; 6
    31d4:	c1 57       	subi	r28, 0x71	; 113
    31d6:	de 4f       	sbci	r29, 0xFE	; 254
    31d8:	99 83       	std	Y+1, r25	; 0x01
    31da:	88 83       	st	Y, r24
    31dc:	cf 58       	subi	r28, 0x8F	; 143
    31de:	d1 40       	sbci	r29, 0x01	; 1
	ppm2[38] =	1648;
    31e0:	80 e7       	ldi	r24, 0x70	; 112
    31e2:	96 e0       	ldi	r25, 0x06	; 6
    31e4:	cf 56       	subi	r28, 0x6F	; 111
    31e6:	de 4f       	sbci	r29, 0xFE	; 254
    31e8:	99 83       	std	Y+1, r25	; 0x01
    31ea:	88 83       	st	Y, r24
    31ec:	c1 59       	subi	r28, 0x91	; 145
    31ee:	d1 40       	sbci	r29, 0x01	; 1
	ppm2[39] =	1596;
    31f0:	8c e3       	ldi	r24, 0x3C	; 60
    31f2:	96 e0       	ldi	r25, 0x06	; 6
    31f4:	cd 56       	subi	r28, 0x6D	; 109
    31f6:	de 4f       	sbci	r29, 0xFE	; 254
    31f8:	99 83       	std	Y+1, r25	; 0x01
    31fa:	88 83       	st	Y, r24
    31fc:	c3 59       	subi	r28, 0x93	; 147
    31fe:	d1 40       	sbci	r29, 0x01	; 1
	ppm2[40] =	1546;
    3200:	8a e0       	ldi	r24, 0x0A	; 10
    3202:	96 e0       	ldi	r25, 0x06	; 6
    3204:	cb 56       	subi	r28, 0x6B	; 107
    3206:	de 4f       	sbci	r29, 0xFE	; 254
    3208:	99 83       	std	Y+1, r25	; 0x01
    320a:	88 83       	st	Y, r24
    320c:	c5 59       	subi	r28, 0x95	; 149
    320e:	d1 40       	sbci	r29, 0x01	; 1
	ppm2[41] =	1499;
    3210:	8b ed       	ldi	r24, 0xDB	; 219
    3212:	95 e0       	ldi	r25, 0x05	; 5
    3214:	c9 56       	subi	r28, 0x69	; 105
    3216:	de 4f       	sbci	r29, 0xFE	; 254
    3218:	99 83       	std	Y+1, r25	; 0x01
    321a:	88 83       	st	Y, r24
    321c:	c7 59       	subi	r28, 0x97	; 151
    321e:	d1 40       	sbci	r29, 0x01	; 1
	ppm2[42] =	1454;
    3220:	8e ea       	ldi	r24, 0xAE	; 174
    3222:	95 e0       	ldi	r25, 0x05	; 5
    3224:	c7 56       	subi	r28, 0x67	; 103
    3226:	de 4f       	sbci	r29, 0xFE	; 254
    3228:	99 83       	std	Y+1, r25	; 0x01
    322a:	88 83       	st	Y, r24
    322c:	c9 59       	subi	r28, 0x99	; 153
    322e:	d1 40       	sbci	r29, 0x01	; 1
	ppm2[43] =	1410;
    3230:	82 e8       	ldi	r24, 0x82	; 130
    3232:	95 e0       	ldi	r25, 0x05	; 5
    3234:	c5 56       	subi	r28, 0x65	; 101
    3236:	de 4f       	sbci	r29, 0xFE	; 254
    3238:	99 83       	std	Y+1, r25	; 0x01
    323a:	88 83       	st	Y, r24
    323c:	cb 59       	subi	r28, 0x9B	; 155
    323e:	d1 40       	sbci	r29, 0x01	; 1
	ppm2[44] =	1369;
    3240:	89 e5       	ldi	r24, 0x59	; 89
    3242:	95 e0       	ldi	r25, 0x05	; 5
    3244:	c3 56       	subi	r28, 0x63	; 99
    3246:	de 4f       	sbci	r29, 0xFE	; 254
    3248:	99 83       	std	Y+1, r25	; 0x01
    324a:	88 83       	st	Y, r24
    324c:	cd 59       	subi	r28, 0x9D	; 157
    324e:	d1 40       	sbci	r29, 0x01	; 1
	ppm2[45] =	1329;
    3250:	81 e3       	ldi	r24, 0x31	; 49
    3252:	95 e0       	ldi	r25, 0x05	; 5
    3254:	c1 56       	subi	r28, 0x61	; 97
    3256:	de 4f       	sbci	r29, 0xFE	; 254
    3258:	99 83       	std	Y+1, r25	; 0x01
    325a:	88 83       	st	Y, r24
    325c:	cf 59       	subi	r28, 0x9F	; 159
    325e:	d1 40       	sbci	r29, 0x01	; 1
	ppm2[46] =	1291;
    3260:	8b e0       	ldi	r24, 0x0B	; 11
    3262:	95 e0       	ldi	r25, 0x05	; 5
    3264:	cf 55       	subi	r28, 0x5F	; 95
    3266:	de 4f       	sbci	r29, 0xFE	; 254
    3268:	99 83       	std	Y+1, r25	; 0x01
    326a:	88 83       	st	Y, r24
    326c:	c1 5a       	subi	r28, 0xA1	; 161
    326e:	d1 40       	sbci	r29, 0x01	; 1
	ppm2[47] =	1254;
    3270:	86 ee       	ldi	r24, 0xE6	; 230
    3272:	94 e0       	ldi	r25, 0x04	; 4
    3274:	cd 55       	subi	r28, 0x5D	; 93
    3276:	de 4f       	sbci	r29, 0xFE	; 254
    3278:	99 83       	std	Y+1, r25	; 0x01
    327a:	88 83       	st	Y, r24
    327c:	c3 5a       	subi	r28, 0xA3	; 163
    327e:	d1 40       	sbci	r29, 0x01	; 1
	ppm2[48] =	1220;
    3280:	84 ec       	ldi	r24, 0xC4	; 196
    3282:	94 e0       	ldi	r25, 0x04	; 4
    3284:	cb 55       	subi	r28, 0x5B	; 91
    3286:	de 4f       	sbci	r29, 0xFE	; 254
    3288:	99 83       	std	Y+1, r25	; 0x01
    328a:	88 83       	st	Y, r24
    328c:	c5 5a       	subi	r28, 0xA5	; 165
    328e:	d1 40       	sbci	r29, 0x01	; 1
	ppm2[49] =	1186;
    3290:	82 ea       	ldi	r24, 0xA2	; 162
    3292:	94 e0       	ldi	r25, 0x04	; 4
    3294:	c9 55       	subi	r28, 0x59	; 89
    3296:	de 4f       	sbci	r29, 0xFE	; 254
    3298:	99 83       	std	Y+1, r25	; 0x01
    329a:	88 83       	st	Y, r24
    329c:	c7 5a       	subi	r28, 0xA7	; 167
    329e:	d1 40       	sbci	r29, 0x01	; 1
	ppm2[50] =	1154;
    32a0:	82 e8       	ldi	r24, 0x82	; 130
    32a2:	94 e0       	ldi	r25, 0x04	; 4
    32a4:	c7 55       	subi	r28, 0x57	; 87
    32a6:	de 4f       	sbci	r29, 0xFE	; 254
    32a8:	99 83       	std	Y+1, r25	; 0x01
    32aa:	88 83       	st	Y, r24
    32ac:	c9 5a       	subi	r28, 0xA9	; 169
    32ae:	d1 40       	sbci	r29, 0x01	; 1
	ppm2[51] =	1123;
    32b0:	83 e6       	ldi	r24, 0x63	; 99
    32b2:	94 e0       	ldi	r25, 0x04	; 4
    32b4:	c5 55       	subi	r28, 0x55	; 85
    32b6:	de 4f       	sbci	r29, 0xFE	; 254
    32b8:	99 83       	std	Y+1, r25	; 0x01
    32ba:	88 83       	st	Y, r24
    32bc:	cb 5a       	subi	r28, 0xAB	; 171
    32be:	d1 40       	sbci	r29, 0x01	; 1
	ppm2[52] =	1093;
    32c0:	85 e4       	ldi	r24, 0x45	; 69
    32c2:	94 e0       	ldi	r25, 0x04	; 4
    32c4:	c3 55       	subi	r28, 0x53	; 83
    32c6:	de 4f       	sbci	r29, 0xFE	; 254
    32c8:	99 83       	std	Y+1, r25	; 0x01
    32ca:	88 83       	st	Y, r24
    32cc:	cd 5a       	subi	r28, 0xAD	; 173
    32ce:	d1 40       	sbci	r29, 0x01	; 1
	ppm2[53] =	1065;
    32d0:	89 e2       	ldi	r24, 0x29	; 41
    32d2:	94 e0       	ldi	r25, 0x04	; 4
    32d4:	c1 55       	subi	r28, 0x51	; 81
    32d6:	de 4f       	sbci	r29, 0xFE	; 254
    32d8:	99 83       	std	Y+1, r25	; 0x01
    32da:	88 83       	st	Y, r24
    32dc:	cf 5a       	subi	r28, 0xAF	; 175
    32de:	d1 40       	sbci	r29, 0x01	; 1
	ppm2[54] =	1037;
    32e0:	8d e0       	ldi	r24, 0x0D	; 13
    32e2:	94 e0       	ldi	r25, 0x04	; 4
    32e4:	cf 54       	subi	r28, 0x4F	; 79
    32e6:	de 4f       	sbci	r29, 0xFE	; 254
    32e8:	99 83       	std	Y+1, r25	; 0x01
    32ea:	88 83       	st	Y, r24
    32ec:	c1 5b       	subi	r28, 0xB1	; 177
    32ee:	d1 40       	sbci	r29, 0x01	; 1
	ppm2[55] =	1011;
    32f0:	83 ef       	ldi	r24, 0xF3	; 243
    32f2:	93 e0       	ldi	r25, 0x03	; 3
    32f4:	cd 54       	subi	r28, 0x4D	; 77
    32f6:	de 4f       	sbci	r29, 0xFE	; 254
    32f8:	99 83       	std	Y+1, r25	; 0x01
    32fa:	88 83       	st	Y, r24
    32fc:	c3 5b       	subi	r28, 0xB3	; 179
    32fe:	d1 40       	sbci	r29, 0x01	; 1
	ppm2[56] =	985;
    3300:	89 ed       	ldi	r24, 0xD9	; 217
    3302:	93 e0       	ldi	r25, 0x03	; 3
    3304:	cb 54       	subi	r28, 0x4B	; 75
    3306:	de 4f       	sbci	r29, 0xFE	; 254
    3308:	99 83       	std	Y+1, r25	; 0x01
    330a:	88 83       	st	Y, r24
    330c:	c5 5b       	subi	r28, 0xB5	; 181
    330e:	d1 40       	sbci	r29, 0x01	; 1
	ppm2[57] =	961;
    3310:	81 ec       	ldi	r24, 0xC1	; 193
    3312:	93 e0       	ldi	r25, 0x03	; 3
    3314:	c9 54       	subi	r28, 0x49	; 73
    3316:	de 4f       	sbci	r29, 0xFE	; 254
    3318:	99 83       	std	Y+1, r25	; 0x01
    331a:	88 83       	st	Y, r24
    331c:	c7 5b       	subi	r28, 0xB7	; 183
    331e:	d1 40       	sbci	r29, 0x01	; 1
	ppm2[58] =	937;
    3320:	89 ea       	ldi	r24, 0xA9	; 169
    3322:	93 e0       	ldi	r25, 0x03	; 3
    3324:	c7 54       	subi	r28, 0x47	; 71
    3326:	de 4f       	sbci	r29, 0xFE	; 254
    3328:	99 83       	std	Y+1, r25	; 0x01
    332a:	88 83       	st	Y, r24
    332c:	c9 5b       	subi	r28, 0xB9	; 185
    332e:	d1 40       	sbci	r29, 0x01	; 1
	ppm2[59] =	914;
    3330:	82 e9       	ldi	r24, 0x92	; 146
    3332:	93 e0       	ldi	r25, 0x03	; 3
    3334:	c5 54       	subi	r28, 0x45	; 69
    3336:	de 4f       	sbci	r29, 0xFE	; 254
    3338:	99 83       	std	Y+1, r25	; 0x01
    333a:	88 83       	st	Y, r24
    333c:	cb 5b       	subi	r28, 0xBB	; 187
    333e:	d1 40       	sbci	r29, 0x01	; 1
	ppm2[60] =	892;
    3340:	8c e7       	ldi	r24, 0x7C	; 124
    3342:	93 e0       	ldi	r25, 0x03	; 3
    3344:	c3 54       	subi	r28, 0x43	; 67
    3346:	de 4f       	sbci	r29, 0xFE	; 254
    3348:	99 83       	std	Y+1, r25	; 0x01
    334a:	88 83       	st	Y, r24
    334c:	cd 5b       	subi	r28, 0xBD	; 189
    334e:	d1 40       	sbci	r29, 0x01	; 1
	ppm2[61] =	871;
    3350:	87 e6       	ldi	r24, 0x67	; 103
    3352:	93 e0       	ldi	r25, 0x03	; 3
    3354:	c1 54       	subi	r28, 0x41	; 65
    3356:	de 4f       	sbci	r29, 0xFE	; 254
    3358:	99 83       	std	Y+1, r25	; 0x01
    335a:	88 83       	st	Y, r24
    335c:	cf 5b       	subi	r28, 0xBF	; 191
    335e:	d1 40       	sbci	r29, 0x01	; 1
	ppm2[62] =	851;
    3360:	83 e5       	ldi	r24, 0x53	; 83
    3362:	93 e0       	ldi	r25, 0x03	; 3
    3364:	cf 53       	subi	r28, 0x3F	; 63
    3366:	de 4f       	sbci	r29, 0xFE	; 254
    3368:	99 83       	std	Y+1, r25	; 0x01
    336a:	88 83       	st	Y, r24
    336c:	c1 5c       	subi	r28, 0xC1	; 193
    336e:	d1 40       	sbci	r29, 0x01	; 1
	ppm2[63] =	831;
    3370:	8f e3       	ldi	r24, 0x3F	; 63
    3372:	93 e0       	ldi	r25, 0x03	; 3
    3374:	cd 53       	subi	r28, 0x3D	; 61
    3376:	de 4f       	sbci	r29, 0xFE	; 254
    3378:	99 83       	std	Y+1, r25	; 0x01
    337a:	88 83       	st	Y, r24
    337c:	c3 5c       	subi	r28, 0xC3	; 195
    337e:	d1 40       	sbci	r29, 0x01	; 1
	ppm2[64] =	812;
    3380:	8c e2       	ldi	r24, 0x2C	; 44
    3382:	93 e0       	ldi	r25, 0x03	; 3
    3384:	cb 53       	subi	r28, 0x3B	; 59
    3386:	de 4f       	sbci	r29, 0xFE	; 254
    3388:	99 83       	std	Y+1, r25	; 0x01
    338a:	88 83       	st	Y, r24
    338c:	c5 5c       	subi	r28, 0xC5	; 197
    338e:	d1 40       	sbci	r29, 0x01	; 1
	ppm2[65] =	793;
    3390:	89 e1       	ldi	r24, 0x19	; 25
    3392:	93 e0       	ldi	r25, 0x03	; 3
    3394:	c9 53       	subi	r28, 0x39	; 57
    3396:	de 4f       	sbci	r29, 0xFE	; 254
    3398:	99 83       	std	Y+1, r25	; 0x01
    339a:	88 83       	st	Y, r24
    339c:	c7 5c       	subi	r28, 0xC7	; 199
    339e:	d1 40       	sbci	r29, 0x01	; 1
	ppm2[66] =	775;
    33a0:	87 e0       	ldi	r24, 0x07	; 7
    33a2:	93 e0       	ldi	r25, 0x03	; 3
    33a4:	c7 53       	subi	r28, 0x37	; 55
    33a6:	de 4f       	sbci	r29, 0xFE	; 254
    33a8:	99 83       	std	Y+1, r25	; 0x01
    33aa:	88 83       	st	Y, r24
    33ac:	c9 5c       	subi	r28, 0xC9	; 201
    33ae:	d1 40       	sbci	r29, 0x01	; 1
	ppm2[67] =	758;
    33b0:	86 ef       	ldi	r24, 0xF6	; 246
    33b2:	92 e0       	ldi	r25, 0x02	; 2
    33b4:	c5 53       	subi	r28, 0x35	; 53
    33b6:	de 4f       	sbci	r29, 0xFE	; 254
    33b8:	99 83       	std	Y+1, r25	; 0x01
    33ba:	88 83       	st	Y, r24
    33bc:	cb 5c       	subi	r28, 0xCB	; 203
    33be:	d1 40       	sbci	r29, 0x01	; 1
	ppm2[68] =	741;
    33c0:	85 ee       	ldi	r24, 0xE5	; 229
    33c2:	92 e0       	ldi	r25, 0x02	; 2
    33c4:	c3 53       	subi	r28, 0x33	; 51
    33c6:	de 4f       	sbci	r29, 0xFE	; 254
    33c8:	99 83       	std	Y+1, r25	; 0x01
    33ca:	88 83       	st	Y, r24
    33cc:	cd 5c       	subi	r28, 0xCD	; 205
    33ce:	d1 40       	sbci	r29, 0x01	; 1
	ppm2[69] =	725;
    33d0:	85 ed       	ldi	r24, 0xD5	; 213
    33d2:	92 e0       	ldi	r25, 0x02	; 2
    33d4:	c1 53       	subi	r28, 0x31	; 49
    33d6:	de 4f       	sbci	r29, 0xFE	; 254
    33d8:	99 83       	std	Y+1, r25	; 0x01
    33da:	88 83       	st	Y, r24
    33dc:	cf 5c       	subi	r28, 0xCF	; 207
    33de:	d1 40       	sbci	r29, 0x01	; 1
	ppm2[70] =	710;
    33e0:	86 ec       	ldi	r24, 0xC6	; 198
    33e2:	92 e0       	ldi	r25, 0x02	; 2
    33e4:	cf 52       	subi	r28, 0x2F	; 47
    33e6:	de 4f       	sbci	r29, 0xFE	; 254
    33e8:	99 83       	std	Y+1, r25	; 0x01
    33ea:	88 83       	st	Y, r24
    33ec:	c1 5d       	subi	r28, 0xD1	; 209
    33ee:	d1 40       	sbci	r29, 0x01	; 1
	ppm2[71] =	694;
    33f0:	86 eb       	ldi	r24, 0xB6	; 182
    33f2:	92 e0       	ldi	r25, 0x02	; 2
    33f4:	cd 52       	subi	r28, 0x2D	; 45
    33f6:	de 4f       	sbci	r29, 0xFE	; 254
    33f8:	99 83       	std	Y+1, r25	; 0x01
    33fa:	88 83       	st	Y, r24
    33fc:	c3 5d       	subi	r28, 0xD3	; 211
    33fe:	d1 40       	sbci	r29, 0x01	; 1
	ppm2[72] =	680;
    3400:	88 ea       	ldi	r24, 0xA8	; 168
    3402:	92 e0       	ldi	r25, 0x02	; 2
    3404:	cb 52       	subi	r28, 0x2B	; 43
    3406:	de 4f       	sbci	r29, 0xFE	; 254
    3408:	99 83       	std	Y+1, r25	; 0x01
    340a:	88 83       	st	Y, r24
    340c:	c5 5d       	subi	r28, 0xD5	; 213
    340e:	d1 40       	sbci	r29, 0x01	; 1
	ppm2[73] =	667;
    3410:	8b e9       	ldi	r24, 0x9B	; 155
    3412:	92 e0       	ldi	r25, 0x02	; 2
    3414:	c9 52       	subi	r28, 0x29	; 41
    3416:	de 4f       	sbci	r29, 0xFE	; 254
    3418:	99 83       	std	Y+1, r25	; 0x01
    341a:	88 83       	st	Y, r24
    341c:	c7 5d       	subi	r28, 0xD7	; 215
    341e:	d1 40       	sbci	r29, 0x01	; 1
	ppm2[74] =	652;
    3420:	8c e8       	ldi	r24, 0x8C	; 140
    3422:	92 e0       	ldi	r25, 0x02	; 2
    3424:	c7 52       	subi	r28, 0x27	; 39
    3426:	de 4f       	sbci	r29, 0xFE	; 254
    3428:	99 83       	std	Y+1, r25	; 0x01
    342a:	88 83       	st	Y, r24
    342c:	c9 5d       	subi	r28, 0xD9	; 217
    342e:	d1 40       	sbci	r29, 0x01	; 1
	ppm2[75] =	638;
    3430:	8e e7       	ldi	r24, 0x7E	; 126
    3432:	92 e0       	ldi	r25, 0x02	; 2
    3434:	c5 52       	subi	r28, 0x25	; 37
    3436:	de 4f       	sbci	r29, 0xFE	; 254
    3438:	99 83       	std	Y+1, r25	; 0x01
    343a:	88 83       	st	Y, r24
    343c:	cb 5d       	subi	r28, 0xDB	; 219
    343e:	d1 40       	sbci	r29, 0x01	; 1
	ppm2[76] =	625;
    3440:	81 e7       	ldi	r24, 0x71	; 113
    3442:	92 e0       	ldi	r25, 0x02	; 2
    3444:	c3 52       	subi	r28, 0x23	; 35
    3446:	de 4f       	sbci	r29, 0xFE	; 254
    3448:	99 83       	std	Y+1, r25	; 0x01
    344a:	88 83       	st	Y, r24
    344c:	cd 5d       	subi	r28, 0xDD	; 221
    344e:	d1 40       	sbci	r29, 0x01	; 1
	ppm2[77] =	613;
    3450:	85 e6       	ldi	r24, 0x65	; 101
    3452:	92 e0       	ldi	r25, 0x02	; 2
    3454:	c1 52       	subi	r28, 0x21	; 33
    3456:	de 4f       	sbci	r29, 0xFE	; 254
    3458:	99 83       	std	Y+1, r25	; 0x01
    345a:	88 83       	st	Y, r24
    345c:	cf 5d       	subi	r28, 0xDF	; 223
    345e:	d1 40       	sbci	r29, 0x01	; 1
	ppm2[78] =	601;
    3460:	89 e5       	ldi	r24, 0x59	; 89
    3462:	92 e0       	ldi	r25, 0x02	; 2
    3464:	cf 51       	subi	r28, 0x1F	; 31
    3466:	de 4f       	sbci	r29, 0xFE	; 254
    3468:	99 83       	std	Y+1, r25	; 0x01
    346a:	88 83       	st	Y, r24
    346c:	c1 5e       	subi	r28, 0xE1	; 225
    346e:	d1 40       	sbci	r29, 0x01	; 1
	ppm2[79] =	589;
    3470:	8d e4       	ldi	r24, 0x4D	; 77
    3472:	92 e0       	ldi	r25, 0x02	; 2
    3474:	cd 51       	subi	r28, 0x1D	; 29
    3476:	de 4f       	sbci	r29, 0xFE	; 254
    3478:	99 83       	std	Y+1, r25	; 0x01
    347a:	88 83       	st	Y, r24
    347c:	c3 5e       	subi	r28, 0xE3	; 227
    347e:	d1 40       	sbci	r29, 0x01	; 1
	ppm2[80] =	577;
    3480:	81 e4       	ldi	r24, 0x41	; 65
    3482:	92 e0       	ldi	r25, 0x02	; 2
    3484:	cb 51       	subi	r28, 0x1B	; 27
    3486:	de 4f       	sbci	r29, 0xFE	; 254
    3488:	99 83       	std	Y+1, r25	; 0x01
    348a:	88 83       	st	Y, r24
    348c:	c5 5e       	subi	r28, 0xE5	; 229
    348e:	d1 40       	sbci	r29, 0x01	; 1
	ppm2[81] =	566;
    3490:	86 e3       	ldi	r24, 0x36	; 54
    3492:	92 e0       	ldi	r25, 0x02	; 2
    3494:	c9 51       	subi	r28, 0x19	; 25
    3496:	de 4f       	sbci	r29, 0xFE	; 254
    3498:	99 83       	std	Y+1, r25	; 0x01
    349a:	88 83       	st	Y, r24
    349c:	c7 5e       	subi	r28, 0xE7	; 231
    349e:	d1 40       	sbci	r29, 0x01	; 1
	ppm2[82] =	555;
    34a0:	8b e2       	ldi	r24, 0x2B	; 43
    34a2:	92 e0       	ldi	r25, 0x02	; 2
    34a4:	c7 51       	subi	r28, 0x17	; 23
    34a6:	de 4f       	sbci	r29, 0xFE	; 254
    34a8:	99 83       	std	Y+1, r25	; 0x01
    34aa:	88 83       	st	Y, r24
    34ac:	c9 5e       	subi	r28, 0xE9	; 233
    34ae:	d1 40       	sbci	r29, 0x01	; 1
	ppm2[83] =	545;
    34b0:	81 e2       	ldi	r24, 0x21	; 33
    34b2:	92 e0       	ldi	r25, 0x02	; 2
    34b4:	c5 51       	subi	r28, 0x15	; 21
    34b6:	de 4f       	sbci	r29, 0xFE	; 254
    34b8:	99 83       	std	Y+1, r25	; 0x01
    34ba:	88 83       	st	Y, r24
    34bc:	cb 5e       	subi	r28, 0xEB	; 235
    34be:	d1 40       	sbci	r29, 0x01	; 1
	ppm2[84] =	534;
    34c0:	86 e1       	ldi	r24, 0x16	; 22
    34c2:	92 e0       	ldi	r25, 0x02	; 2
    34c4:	c3 51       	subi	r28, 0x13	; 19
    34c6:	de 4f       	sbci	r29, 0xFE	; 254
    34c8:	99 83       	std	Y+1, r25	; 0x01
    34ca:	88 83       	st	Y, r24
    34cc:	cd 5e       	subi	r28, 0xED	; 237
    34ce:	d1 40       	sbci	r29, 0x01	; 1
	ppm2[85] =	524;
    34d0:	8c e0       	ldi	r24, 0x0C	; 12
    34d2:	92 e0       	ldi	r25, 0x02	; 2
    34d4:	c1 51       	subi	r28, 0x11	; 17
    34d6:	de 4f       	sbci	r29, 0xFE	; 254
    34d8:	99 83       	std	Y+1, r25	; 0x01
    34da:	88 83       	st	Y, r24
    34dc:	cf 5e       	subi	r28, 0xEF	; 239
    34de:	d1 40       	sbci	r29, 0x01	; 1
	ppm2[86] =	515;
    34e0:	83 e0       	ldi	r24, 0x03	; 3
    34e2:	92 e0       	ldi	r25, 0x02	; 2
    34e4:	cf 50       	subi	r28, 0x0F	; 15
    34e6:	de 4f       	sbci	r29, 0xFE	; 254
    34e8:	99 83       	std	Y+1, r25	; 0x01
    34ea:	88 83       	st	Y, r24
    34ec:	c1 5f       	subi	r28, 0xF1	; 241
    34ee:	d1 40       	sbci	r29, 0x01	; 1
	ppm2[87] =	505;
    34f0:	89 ef       	ldi	r24, 0xF9	; 249
    34f2:	91 e0       	ldi	r25, 0x01	; 1
    34f4:	cd 50       	subi	r28, 0x0D	; 13
    34f6:	de 4f       	sbci	r29, 0xFE	; 254
    34f8:	99 83       	std	Y+1, r25	; 0x01
    34fa:	88 83       	st	Y, r24
    34fc:	c3 5f       	subi	r28, 0xF3	; 243
    34fe:	d1 40       	sbci	r29, 0x01	; 1
	ppm2[88] =	496;
    3500:	80 ef       	ldi	r24, 0xF0	; 240
    3502:	91 e0       	ldi	r25, 0x01	; 1
    3504:	cb 50       	subi	r28, 0x0B	; 11
    3506:	de 4f       	sbci	r29, 0xFE	; 254
    3508:	99 83       	std	Y+1, r25	; 0x01
    350a:	88 83       	st	Y, r24
    350c:	c5 5f       	subi	r28, 0xF5	; 245
    350e:	d1 40       	sbci	r29, 0x01	; 1
	ppm2[89] =	487;
    3510:	87 ee       	ldi	r24, 0xE7	; 231
    3512:	91 e0       	ldi	r25, 0x01	; 1
    3514:	c9 50       	subi	r28, 0x09	; 9
    3516:	de 4f       	sbci	r29, 0xFE	; 254
    3518:	99 83       	std	Y+1, r25	; 0x01
    351a:	88 83       	st	Y, r24
    351c:	c7 5f       	subi	r28, 0xF7	; 247
    351e:	d1 40       	sbci	r29, 0x01	; 1
	ppm2[90] =	478;
    3520:	8e ed       	ldi	r24, 0xDE	; 222
    3522:	91 e0       	ldi	r25, 0x01	; 1
    3524:	c7 50       	subi	r28, 0x07	; 7
    3526:	de 4f       	sbci	r29, 0xFE	; 254
    3528:	99 83       	std	Y+1, r25	; 0x01
    352a:	88 83       	st	Y, r24
    352c:	c9 5f       	subi	r28, 0xF9	; 249
    352e:	d1 40       	sbci	r29, 0x01	; 1
	ppm2[91] =	470;
    3530:	86 ed       	ldi	r24, 0xD6	; 214
    3532:	91 e0       	ldi	r25, 0x01	; 1
    3534:	c5 50       	subi	r28, 0x05	; 5
    3536:	de 4f       	sbci	r29, 0xFE	; 254
    3538:	99 83       	std	Y+1, r25	; 0x01
    353a:	88 83       	st	Y, r24
    353c:	cb 5f       	subi	r28, 0xFB	; 251
    353e:	d1 40       	sbci	r29, 0x01	; 1
	ppm2[92] =	461;
    3540:	8d ec       	ldi	r24, 0xCD	; 205
    3542:	91 e0       	ldi	r25, 0x01	; 1
    3544:	c3 50       	subi	r28, 0x03	; 3
    3546:	de 4f       	sbci	r29, 0xFE	; 254
    3548:	99 83       	std	Y+1, r25	; 0x01
    354a:	88 83       	st	Y, r24
    354c:	cd 5f       	subi	r28, 0xFD	; 253
    354e:	d1 40       	sbci	r29, 0x01	; 1
	ppm2[93] =	453;
    3550:	85 ec       	ldi	r24, 0xC5	; 197
    3552:	91 e0       	ldi	r25, 0x01	; 1
    3554:	c1 50       	subi	r28, 0x01	; 1
    3556:	de 4f       	sbci	r29, 0xFE	; 254
    3558:	99 83       	std	Y+1, r25	; 0x01
    355a:	88 83       	st	Y, r24
    355c:	cf 5f       	subi	r28, 0xFF	; 255
    355e:	d1 40       	sbci	r29, 0x01	; 1
	ppm2[94] =	446;
    3560:	4e eb       	ldi	r20, 0xBE	; 190
    3562:	51 e0       	ldi	r21, 0x01	; 1
    3564:	cf 5f       	subi	r28, 0xFF	; 255
    3566:	dd 4f       	sbci	r29, 0xFD	; 253
    3568:	59 83       	std	Y+1, r21	; 0x01
    356a:	48 83       	st	Y, r20
    356c:	c1 50       	subi	r28, 0x01	; 1
    356e:	d2 40       	sbci	r29, 0x02	; 2
	ppm2[95] =	438;
    3570:	26 eb       	ldi	r18, 0xB6	; 182
    3572:	31 e0       	ldi	r19, 0x01	; 1
    3574:	cd 5f       	subi	r28, 0xFD	; 253
    3576:	dd 4f       	sbci	r29, 0xFD	; 253
    3578:	39 83       	std	Y+1, r19	; 0x01
    357a:	28 83       	st	Y, r18
    357c:	c3 50       	subi	r28, 0x03	; 3
    357e:	d2 40       	sbci	r29, 0x02	; 2
	ppm2[96] =	430;
    3580:	8e ea       	ldi	r24, 0xAE	; 174
    3582:	91 e0       	ldi	r25, 0x01	; 1
    3584:	cb 5f       	subi	r28, 0xFB	; 251
    3586:	dd 4f       	sbci	r29, 0xFD	; 253
    3588:	99 83       	std	Y+1, r25	; 0x01
    358a:	88 83       	st	Y, r24
    358c:	c5 50       	subi	r28, 0x05	; 5
    358e:	d2 40       	sbci	r29, 0x02	; 2
	ppm2[97] =	423;
    3590:	e7 ea       	ldi	r30, 0xA7	; 167
    3592:	f1 e0       	ldi	r31, 0x01	; 1
    3594:	c9 5f       	subi	r28, 0xF9	; 249
    3596:	dd 4f       	sbci	r29, 0xFD	; 253
    3598:	f9 83       	std	Y+1, r31	; 0x01
    359a:	e8 83       	st	Y, r30
    359c:	c7 50       	subi	r28, 0x07	; 7
    359e:	d2 40       	sbci	r29, 0x02	; 2
	ppm2[98] =	416;
    35a0:	e0 ea       	ldi	r30, 0xA0	; 160
    35a2:	f1 e0       	ldi	r31, 0x01	; 1
    35a4:	c7 5f       	subi	r28, 0xF7	; 247
    35a6:	dd 4f       	sbci	r29, 0xFD	; 253
    35a8:	f9 83       	std	Y+1, r31	; 0x01
    35aa:	e8 83       	st	Y, r30
    35ac:	c9 50       	subi	r28, 0x09	; 9
    35ae:	d2 40       	sbci	r29, 0x02	; 2
	ppm2[99] =	409;
    35b0:	e9 e9       	ldi	r30, 0x99	; 153
    35b2:	f1 e0       	ldi	r31, 0x01	; 1
    35b4:	c5 5f       	subi	r28, 0xF5	; 245
    35b6:	dd 4f       	sbci	r29, 0xFD	; 253
    35b8:	f9 83       	std	Y+1, r31	; 0x01
    35ba:	e8 83       	st	Y, r30
    35bc:	cb 50       	subi	r28, 0x0B	; 11
    35be:	d2 40       	sbci	r29, 0x02	; 2
	ppm2[100] =	402;
    35c0:	e2 e9       	ldi	r30, 0x92	; 146
    35c2:	f1 e0       	ldi	r31, 0x01	; 1
    35c4:	c3 5f       	subi	r28, 0xF3	; 243
    35c6:	dd 4f       	sbci	r29, 0xFD	; 253
    35c8:	f9 83       	std	Y+1, r31	; 0x01
    35ca:	e8 83       	st	Y, r30
    35cc:	cd 50       	subi	r28, 0x0D	; 13
    35ce:	d2 40       	sbci	r29, 0x02	; 2
	ppm2[101] =	396;
    35d0:	ec e8       	ldi	r30, 0x8C	; 140
    35d2:	f1 e0       	ldi	r31, 0x01	; 1
    35d4:	c1 5f       	subi	r28, 0xF1	; 241
    35d6:	dd 4f       	sbci	r29, 0xFD	; 253
    35d8:	f9 83       	std	Y+1, r31	; 0x01
    35da:	e8 83       	st	Y, r30
    35dc:	cf 50       	subi	r28, 0x0F	; 15
    35de:	d2 40       	sbci	r29, 0x02	; 2
	ppm2[102] =	389;
    35e0:	e5 e8       	ldi	r30, 0x85	; 133
    35e2:	f1 e0       	ldi	r31, 0x01	; 1
    35e4:	cf 5e       	subi	r28, 0xEF	; 239
    35e6:	dd 4f       	sbci	r29, 0xFD	; 253
    35e8:	f9 83       	std	Y+1, r31	; 0x01
    35ea:	e8 83       	st	Y, r30
    35ec:	c1 51       	subi	r28, 0x11	; 17
    35ee:	d2 40       	sbci	r29, 0x02	; 2
	ppm2[103] =	383;
    35f0:	ef e7       	ldi	r30, 0x7F	; 127
    35f2:	f1 e0       	ldi	r31, 0x01	; 1
    35f4:	cd 5e       	subi	r28, 0xED	; 237
    35f6:	dd 4f       	sbci	r29, 0xFD	; 253
    35f8:	f9 83       	std	Y+1, r31	; 0x01
    35fa:	e8 83       	st	Y, r30
    35fc:	c3 51       	subi	r28, 0x13	; 19
    35fe:	d2 40       	sbci	r29, 0x02	; 2
	ppm2[104] =	377;
    3600:	e9 e7       	ldi	r30, 0x79	; 121
    3602:	f1 e0       	ldi	r31, 0x01	; 1
    3604:	cb 5e       	subi	r28, 0xEB	; 235
    3606:	dd 4f       	sbci	r29, 0xFD	; 253
    3608:	f9 83       	std	Y+1, r31	; 0x01
    360a:	e8 83       	st	Y, r30
    360c:	c5 51       	subi	r28, 0x15	; 21
    360e:	d2 40       	sbci	r29, 0x02	; 2
	ppm2[105] =	371;
    3610:	e3 e7       	ldi	r30, 0x73	; 115
    3612:	f1 e0       	ldi	r31, 0x01	; 1
    3614:	c9 5e       	subi	r28, 0xE9	; 233
    3616:	dd 4f       	sbci	r29, 0xFD	; 253
    3618:	f9 83       	std	Y+1, r31	; 0x01
    361a:	e8 83       	st	Y, r30
    361c:	c7 51       	subi	r28, 0x17	; 23
    361e:	d2 40       	sbci	r29, 0x02	; 2
	ppm2[106] =	365;
    3620:	ed e6       	ldi	r30, 0x6D	; 109
    3622:	f1 e0       	ldi	r31, 0x01	; 1
    3624:	c7 5e       	subi	r28, 0xE7	; 231
    3626:	dd 4f       	sbci	r29, 0xFD	; 253
    3628:	f9 83       	std	Y+1, r31	; 0x01
    362a:	e8 83       	st	Y, r30
    362c:	c9 51       	subi	r28, 0x19	; 25
    362e:	d2 40       	sbci	r29, 0x02	; 2
	ppm2[107] =	359;
    3630:	e7 e6       	ldi	r30, 0x67	; 103
    3632:	f1 e0       	ldi	r31, 0x01	; 1
    3634:	c5 5e       	subi	r28, 0xE5	; 229
    3636:	dd 4f       	sbci	r29, 0xFD	; 253
    3638:	f9 83       	std	Y+1, r31	; 0x01
    363a:	e8 83       	st	Y, r30
    363c:	cb 51       	subi	r28, 0x1B	; 27
    363e:	d2 40       	sbci	r29, 0x02	; 2
	ppm2[108] =	354;
    3640:	e2 e6       	ldi	r30, 0x62	; 98
    3642:	f1 e0       	ldi	r31, 0x01	; 1
    3644:	c3 5e       	subi	r28, 0xE3	; 227
    3646:	dd 4f       	sbci	r29, 0xFD	; 253
    3648:	f9 83       	std	Y+1, r31	; 0x01
    364a:	e8 83       	st	Y, r30
    364c:	cd 51       	subi	r28, 0x1D	; 29
    364e:	d2 40       	sbci	r29, 0x02	; 2
	ppm2[109] =	348;
    3650:	ec e5       	ldi	r30, 0x5C	; 92
    3652:	f1 e0       	ldi	r31, 0x01	; 1
    3654:	c1 5e       	subi	r28, 0xE1	; 225
    3656:	dd 4f       	sbci	r29, 0xFD	; 253
    3658:	f9 83       	std	Y+1, r31	; 0x01
    365a:	e8 83       	st	Y, r30
    365c:	cf 51       	subi	r28, 0x1F	; 31
    365e:	d2 40       	sbci	r29, 0x02	; 2
	ppm2[110] =	343;
    3660:	e7 e5       	ldi	r30, 0x57	; 87
    3662:	f1 e0       	ldi	r31, 0x01	; 1
    3664:	cf 5d       	subi	r28, 0xDF	; 223
    3666:	dd 4f       	sbci	r29, 0xFD	; 253
    3668:	f9 83       	std	Y+1, r31	; 0x01
    366a:	e8 83       	st	Y, r30
    366c:	c1 52       	subi	r28, 0x21	; 33
    366e:	d2 40       	sbci	r29, 0x02	; 2
	ppm2[111] =	338;
    3670:	e2 e5       	ldi	r30, 0x52	; 82
    3672:	f1 e0       	ldi	r31, 0x01	; 1
    3674:	cd 5d       	subi	r28, 0xDD	; 221
    3676:	dd 4f       	sbci	r29, 0xFD	; 253
    3678:	f9 83       	std	Y+1, r31	; 0x01
    367a:	e8 83       	st	Y, r30
    367c:	c3 52       	subi	r28, 0x23	; 35
    367e:	d2 40       	sbci	r29, 0x02	; 2
	ppm2[112] =	333;
    3680:	ed e4       	ldi	r30, 0x4D	; 77
    3682:	f1 e0       	ldi	r31, 0x01	; 1
    3684:	cb 5d       	subi	r28, 0xDB	; 219
    3686:	dd 4f       	sbci	r29, 0xFD	; 253
    3688:	f9 83       	std	Y+1, r31	; 0x01
    368a:	e8 83       	st	Y, r30
    368c:	c5 52       	subi	r28, 0x25	; 37
    368e:	d2 40       	sbci	r29, 0x02	; 2
	ppm2[113] =	328;
    3690:	e8 e4       	ldi	r30, 0x48	; 72
    3692:	f1 e0       	ldi	r31, 0x01	; 1
    3694:	c9 5d       	subi	r28, 0xD9	; 217
    3696:	dd 4f       	sbci	r29, 0xFD	; 253
    3698:	f9 83       	std	Y+1, r31	; 0x01
    369a:	e8 83       	st	Y, r30
    369c:	c7 52       	subi	r28, 0x27	; 39
    369e:	d2 40       	sbci	r29, 0x02	; 2
	ppm2[114] =	323;
    36a0:	e3 e4       	ldi	r30, 0x43	; 67
    36a2:	f1 e0       	ldi	r31, 0x01	; 1
    36a4:	c7 5d       	subi	r28, 0xD7	; 215
    36a6:	dd 4f       	sbci	r29, 0xFD	; 253
    36a8:	f9 83       	std	Y+1, r31	; 0x01
    36aa:	e8 83       	st	Y, r30
    36ac:	c9 52       	subi	r28, 0x29	; 41
    36ae:	d2 40       	sbci	r29, 0x02	; 2
	ppm2[115] =	318;
    36b0:	ee e3       	ldi	r30, 0x3E	; 62
    36b2:	f1 e0       	ldi	r31, 0x01	; 1
    36b4:	c5 5d       	subi	r28, 0xD5	; 213
    36b6:	dd 4f       	sbci	r29, 0xFD	; 253
    36b8:	f9 83       	std	Y+1, r31	; 0x01
    36ba:	e8 83       	st	Y, r30
    36bc:	cb 52       	subi	r28, 0x2B	; 43
    36be:	d2 40       	sbci	r29, 0x02	; 2
	ppm2[116] =	313;
    36c0:	e9 e3       	ldi	r30, 0x39	; 57
    36c2:	f1 e0       	ldi	r31, 0x01	; 1
    36c4:	c3 5d       	subi	r28, 0xD3	; 211
    36c6:	dd 4f       	sbci	r29, 0xFD	; 253
    36c8:	f9 83       	std	Y+1, r31	; 0x01
    36ca:	e8 83       	st	Y, r30
    36cc:	cd 52       	subi	r28, 0x2D	; 45
    36ce:	d2 40       	sbci	r29, 0x02	; 2
	ppm2[117] =	309;
    36d0:	e5 e3       	ldi	r30, 0x35	; 53
    36d2:	f1 e0       	ldi	r31, 0x01	; 1
    36d4:	c1 5d       	subi	r28, 0xD1	; 209
    36d6:	dd 4f       	sbci	r29, 0xFD	; 253
    36d8:	f9 83       	std	Y+1, r31	; 0x01
    36da:	e8 83       	st	Y, r30
    36dc:	cf 52       	subi	r28, 0x2F	; 47
    36de:	d2 40       	sbci	r29, 0x02	; 2
	ppm2[118] =	304;
    36e0:	e0 e3       	ldi	r30, 0x30	; 48
    36e2:	f1 e0       	ldi	r31, 0x01	; 1
    36e4:	cf 5c       	subi	r28, 0xCF	; 207
    36e6:	dd 4f       	sbci	r29, 0xFD	; 253
    36e8:	f9 83       	std	Y+1, r31	; 0x01
    36ea:	e8 83       	st	Y, r30
    36ec:	c1 53       	subi	r28, 0x31	; 49
    36ee:	d2 40       	sbci	r29, 0x02	; 2
	ppm2[119] =	300;
    36f0:	ec e2       	ldi	r30, 0x2C	; 44
    36f2:	f1 e0       	ldi	r31, 0x01	; 1
    36f4:	cd 5c       	subi	r28, 0xCD	; 205
    36f6:	dd 4f       	sbci	r29, 0xFD	; 253
    36f8:	f9 83       	std	Y+1, r31	; 0x01
    36fa:	e8 83       	st	Y, r30
    36fc:	c3 53       	subi	r28, 0x33	; 51
    36fe:	d2 40       	sbci	r29, 0x02	; 2
	ppm2[120] =	296;
    3700:	e8 e2       	ldi	r30, 0x28	; 40
    3702:	f1 e0       	ldi	r31, 0x01	; 1
    3704:	cb 5c       	subi	r28, 0xCB	; 203
    3706:	dd 4f       	sbci	r29, 0xFD	; 253
    3708:	f9 83       	std	Y+1, r31	; 0x01
    370a:	e8 83       	st	Y, r30
    370c:	c5 53       	subi	r28, 0x35	; 53
    370e:	d2 40       	sbci	r29, 0x02	; 2
	ppm2[121] =	292;
    3710:	e4 e2       	ldi	r30, 0x24	; 36
    3712:	f1 e0       	ldi	r31, 0x01	; 1
    3714:	c9 5c       	subi	r28, 0xC9	; 201
    3716:	dd 4f       	sbci	r29, 0xFD	; 253
    3718:	f9 83       	std	Y+1, r31	; 0x01
    371a:	e8 83       	st	Y, r30
    371c:	c7 53       	subi	r28, 0x37	; 55
    371e:	d2 40       	sbci	r29, 0x02	; 2
	ppm2[122] =	287;
    3720:	ef e1       	ldi	r30, 0x1F	; 31
    3722:	f1 e0       	ldi	r31, 0x01	; 1
    3724:	c7 5c       	subi	r28, 0xC7	; 199
    3726:	dd 4f       	sbci	r29, 0xFD	; 253
    3728:	f9 83       	std	Y+1, r31	; 0x01
    372a:	e8 83       	st	Y, r30
    372c:	c9 53       	subi	r28, 0x39	; 57
    372e:	d2 40       	sbci	r29, 0x02	; 2
	ppm2[123] =	283;
    3730:	eb e1       	ldi	r30, 0x1B	; 27
    3732:	f1 e0       	ldi	r31, 0x01	; 1
    3734:	c5 5c       	subi	r28, 0xC5	; 197
    3736:	dd 4f       	sbci	r29, 0xFD	; 253
    3738:	f9 83       	std	Y+1, r31	; 0x01
    373a:	e8 83       	st	Y, r30
    373c:	cb 53       	subi	r28, 0x3B	; 59
    373e:	d2 40       	sbci	r29, 0x02	; 2
	ppm2[124] =	279;
    3740:	e7 e1       	ldi	r30, 0x17	; 23
    3742:	f1 e0       	ldi	r31, 0x01	; 1
    3744:	c3 5c       	subi	r28, 0xC3	; 195
    3746:	dd 4f       	sbci	r29, 0xFD	; 253
    3748:	f9 83       	std	Y+1, r31	; 0x01
    374a:	e8 83       	st	Y, r30
    374c:	cd 53       	subi	r28, 0x3D	; 61
    374e:	d2 40       	sbci	r29, 0x02	; 2
	ppm2[125] =	276;
    3750:	e4 e1       	ldi	r30, 0x14	; 20
    3752:	f1 e0       	ldi	r31, 0x01	; 1
    3754:	c1 5c       	subi	r28, 0xC1	; 193
    3756:	dd 4f       	sbci	r29, 0xFD	; 253
    3758:	f9 83       	std	Y+1, r31	; 0x01
    375a:	e8 83       	st	Y, r30
    375c:	cf 53       	subi	r28, 0x3F	; 63
    375e:	d2 40       	sbci	r29, 0x02	; 2
	ppm2[126] =	272;
    3760:	e0 e1       	ldi	r30, 0x10	; 16
    3762:	f1 e0       	ldi	r31, 0x01	; 1
    3764:	cf 5b       	subi	r28, 0xBF	; 191
    3766:	dd 4f       	sbci	r29, 0xFD	; 253
    3768:	f9 83       	std	Y+1, r31	; 0x01
    376a:	e8 83       	st	Y, r30
    376c:	c1 54       	subi	r28, 0x41	; 65
    376e:	d2 40       	sbci	r29, 0x02	; 2
	ppm2[127] =	268;
    3770:	ec e0       	ldi	r30, 0x0C	; 12
    3772:	f1 e0       	ldi	r31, 0x01	; 1
    3774:	cd 5b       	subi	r28, 0xBD	; 189
    3776:	dd 4f       	sbci	r29, 0xFD	; 253
    3778:	f9 83       	std	Y+1, r31	; 0x01
    377a:	e8 83       	st	Y, r30
    377c:	c3 54       	subi	r28, 0x43	; 67
    377e:	d2 40       	sbci	r29, 0x02	; 2
	ppm2[128] =	265;
    3780:	e9 e0       	ldi	r30, 0x09	; 9
    3782:	f1 e0       	ldi	r31, 0x01	; 1
    3784:	cb 5b       	subi	r28, 0xBB	; 187
    3786:	dd 4f       	sbci	r29, 0xFD	; 253
    3788:	f9 83       	std	Y+1, r31	; 0x01
    378a:	e8 83       	st	Y, r30
    378c:	c5 54       	subi	r28, 0x45	; 69
    378e:	d2 40       	sbci	r29, 0x02	; 2
	ppm2[129] =	261;
    3790:	e5 e0       	ldi	r30, 0x05	; 5
    3792:	f1 e0       	ldi	r31, 0x01	; 1
    3794:	c9 5b       	subi	r28, 0xB9	; 185
    3796:	dd 4f       	sbci	r29, 0xFD	; 253
    3798:	f9 83       	std	Y+1, r31	; 0x01
    379a:	e8 83       	st	Y, r30
    379c:	c7 54       	subi	r28, 0x47	; 71
    379e:	d2 40       	sbci	r29, 0x02	; 2
	ppm2[130] =	257;
    37a0:	e1 e0       	ldi	r30, 0x01	; 1
    37a2:	f1 e0       	ldi	r31, 0x01	; 1
    37a4:	c7 5b       	subi	r28, 0xB7	; 183
    37a6:	dd 4f       	sbci	r29, 0xFD	; 253
    37a8:	f9 83       	std	Y+1, r31	; 0x01
    37aa:	e8 83       	st	Y, r30
    37ac:	c9 54       	subi	r28, 0x49	; 73
    37ae:	d2 40       	sbci	r29, 0x02	; 2
	ppm2[131] =	254;
    37b0:	ee ef       	ldi	r30, 0xFE	; 254
    37b2:	f0 e0       	ldi	r31, 0x00	; 0
    37b4:	c5 5b       	subi	r28, 0xB5	; 181
    37b6:	dd 4f       	sbci	r29, 0xFD	; 253
    37b8:	f9 83       	std	Y+1, r31	; 0x01
    37ba:	e8 83       	st	Y, r30
    37bc:	cb 54       	subi	r28, 0x4B	; 75
    37be:	d2 40       	sbci	r29, 0x02	; 2
	ppm2[132] =	251;
    37c0:	eb ef       	ldi	r30, 0xFB	; 251
    37c2:	f0 e0       	ldi	r31, 0x00	; 0
    37c4:	c3 5b       	subi	r28, 0xB3	; 179
    37c6:	dd 4f       	sbci	r29, 0xFD	; 253
    37c8:	f9 83       	std	Y+1, r31	; 0x01
    37ca:	e8 83       	st	Y, r30
    37cc:	cd 54       	subi	r28, 0x4D	; 77
    37ce:	d2 40       	sbci	r29, 0x02	; 2
	ppm2[133] =	247;
    37d0:	e7 ef       	ldi	r30, 0xF7	; 247
    37d2:	f0 e0       	ldi	r31, 0x00	; 0
    37d4:	c1 5b       	subi	r28, 0xB1	; 177
    37d6:	dd 4f       	sbci	r29, 0xFD	; 253
    37d8:	f9 83       	std	Y+1, r31	; 0x01
    37da:	e8 83       	st	Y, r30
    37dc:	cf 54       	subi	r28, 0x4F	; 79
    37de:	d2 40       	sbci	r29, 0x02	; 2
	ppm2[134] =	244;
    37e0:	e4 ef       	ldi	r30, 0xF4	; 244
    37e2:	f0 e0       	ldi	r31, 0x00	; 0
    37e4:	cf 5a       	subi	r28, 0xAF	; 175
    37e6:	dd 4f       	sbci	r29, 0xFD	; 253
    37e8:	f9 83       	std	Y+1, r31	; 0x01
    37ea:	e8 83       	st	Y, r30
    37ec:	c1 55       	subi	r28, 0x51	; 81
    37ee:	d2 40       	sbci	r29, 0x02	; 2
	ppm2[135] =	241;
    37f0:	e1 ef       	ldi	r30, 0xF1	; 241
    37f2:	f0 e0       	ldi	r31, 0x00	; 0
    37f4:	cd 5a       	subi	r28, 0xAD	; 173
    37f6:	dd 4f       	sbci	r29, 0xFD	; 253
    37f8:	f9 83       	std	Y+1, r31	; 0x01
    37fa:	e8 83       	st	Y, r30
    37fc:	c3 55       	subi	r28, 0x53	; 83
    37fe:	d2 40       	sbci	r29, 0x02	; 2
	ppm2[136] =	238;
    3800:	ee ee       	ldi	r30, 0xEE	; 238
    3802:	f0 e0       	ldi	r31, 0x00	; 0
    3804:	cb 5a       	subi	r28, 0xAB	; 171
    3806:	dd 4f       	sbci	r29, 0xFD	; 253
    3808:	f9 83       	std	Y+1, r31	; 0x01
    380a:	e8 83       	st	Y, r30
    380c:	c5 55       	subi	r28, 0x55	; 85
    380e:	d2 40       	sbci	r29, 0x02	; 2
	ppm2[137] =	235;
    3810:	eb ee       	ldi	r30, 0xEB	; 235
    3812:	f0 e0       	ldi	r31, 0x00	; 0
    3814:	c9 5a       	subi	r28, 0xA9	; 169
    3816:	dd 4f       	sbci	r29, 0xFD	; 253
    3818:	f9 83       	std	Y+1, r31	; 0x01
    381a:	e8 83       	st	Y, r30
    381c:	c7 55       	subi	r28, 0x57	; 87
    381e:	d2 40       	sbci	r29, 0x02	; 2
	ppm2[138] =	232;
    3820:	e8 ee       	ldi	r30, 0xE8	; 232
    3822:	f0 e0       	ldi	r31, 0x00	; 0
    3824:	c7 5a       	subi	r28, 0xA7	; 167
    3826:	dd 4f       	sbci	r29, 0xFD	; 253
    3828:	f9 83       	std	Y+1, r31	; 0x01
    382a:	e8 83       	st	Y, r30
    382c:	c9 55       	subi	r28, 0x59	; 89
    382e:	d2 40       	sbci	r29, 0x02	; 2
	ppm2[139] =	229;
    3830:	e5 ee       	ldi	r30, 0xE5	; 229
    3832:	f0 e0       	ldi	r31, 0x00	; 0
    3834:	c5 5a       	subi	r28, 0xA5	; 165
    3836:	dd 4f       	sbci	r29, 0xFD	; 253
    3838:	f9 83       	std	Y+1, r31	; 0x01
    383a:	e8 83       	st	Y, r30
    383c:	cb 55       	subi	r28, 0x5B	; 91
    383e:	d2 40       	sbci	r29, 0x02	; 2
	ppm2[140] =	226;
    3840:	e2 ee       	ldi	r30, 0xE2	; 226
    3842:	f0 e0       	ldi	r31, 0x00	; 0
    3844:	c3 5a       	subi	r28, 0xA3	; 163
    3846:	dd 4f       	sbci	r29, 0xFD	; 253
    3848:	f9 83       	std	Y+1, r31	; 0x01
    384a:	e8 83       	st	Y, r30
    384c:	cd 55       	subi	r28, 0x5D	; 93
    384e:	d2 40       	sbci	r29, 0x02	; 2
	ppm2[141] =	223;
    3850:	ef ed       	ldi	r30, 0xDF	; 223
    3852:	f0 e0       	ldi	r31, 0x00	; 0
    3854:	c1 5a       	subi	r28, 0xA1	; 161
    3856:	dd 4f       	sbci	r29, 0xFD	; 253
    3858:	f9 83       	std	Y+1, r31	; 0x01
    385a:	e8 83       	st	Y, r30
    385c:	cf 55       	subi	r28, 0x5F	; 95
    385e:	d2 40       	sbci	r29, 0x02	; 2
	ppm2[142] =	220;
    3860:	ec ed       	ldi	r30, 0xDC	; 220
    3862:	f0 e0       	ldi	r31, 0x00	; 0
    3864:	cf 59       	subi	r28, 0x9F	; 159
    3866:	dd 4f       	sbci	r29, 0xFD	; 253
    3868:	f9 83       	std	Y+1, r31	; 0x01
    386a:	e8 83       	st	Y, r30
    386c:	c1 56       	subi	r28, 0x61	; 97
    386e:	d2 40       	sbci	r29, 0x02	; 2
	ppm2[143] =	218;
    3870:	ea ed       	ldi	r30, 0xDA	; 218
    3872:	f0 e0       	ldi	r31, 0x00	; 0
    3874:	cd 59       	subi	r28, 0x9D	; 157
    3876:	dd 4f       	sbci	r29, 0xFD	; 253
    3878:	f9 83       	std	Y+1, r31	; 0x01
    387a:	e8 83       	st	Y, r30
    387c:	c3 56       	subi	r28, 0x63	; 99
    387e:	d2 40       	sbci	r29, 0x02	; 2
	ppm2[144] =	215;
    3880:	e7 ed       	ldi	r30, 0xD7	; 215
    3882:	f0 e0       	ldi	r31, 0x00	; 0
    3884:	cb 59       	subi	r28, 0x9B	; 155
    3886:	dd 4f       	sbci	r29, 0xFD	; 253
    3888:	f9 83       	std	Y+1, r31	; 0x01
    388a:	e8 83       	st	Y, r30
    388c:	c5 56       	subi	r28, 0x65	; 101
    388e:	d2 40       	sbci	r29, 0x02	; 2
	ppm2[145] =	212;
    3890:	e4 ed       	ldi	r30, 0xD4	; 212
    3892:	f0 e0       	ldi	r31, 0x00	; 0
    3894:	c9 59       	subi	r28, 0x99	; 153
    3896:	dd 4f       	sbci	r29, 0xFD	; 253
    3898:	f9 83       	std	Y+1, r31	; 0x01
    389a:	e8 83       	st	Y, r30
    389c:	c7 56       	subi	r28, 0x67	; 103
    389e:	d2 40       	sbci	r29, 0x02	; 2
	ppm2[146] =	210;
    38a0:	e2 ed       	ldi	r30, 0xD2	; 210
    38a2:	f0 e0       	ldi	r31, 0x00	; 0
    38a4:	c7 59       	subi	r28, 0x97	; 151
    38a6:	dd 4f       	sbci	r29, 0xFD	; 253
    38a8:	f9 83       	std	Y+1, r31	; 0x01
    38aa:	e8 83       	st	Y, r30
    38ac:	c9 56       	subi	r28, 0x69	; 105
    38ae:	d2 40       	sbci	r29, 0x02	; 2
	ppm2[147] =	207;
    38b0:	ef ec       	ldi	r30, 0xCF	; 207
    38b2:	f0 e0       	ldi	r31, 0x00	; 0
    38b4:	c5 59       	subi	r28, 0x95	; 149
    38b6:	dd 4f       	sbci	r29, 0xFD	; 253
    38b8:	f9 83       	std	Y+1, r31	; 0x01
    38ba:	e8 83       	st	Y, r30
    38bc:	cb 56       	subi	r28, 0x6B	; 107
    38be:	d2 40       	sbci	r29, 0x02	; 2
	ppm2[148] =	205;
    38c0:	ed ec       	ldi	r30, 0xCD	; 205
    38c2:	f0 e0       	ldi	r31, 0x00	; 0
    38c4:	c3 59       	subi	r28, 0x93	; 147
    38c6:	dd 4f       	sbci	r29, 0xFD	; 253
    38c8:	f9 83       	std	Y+1, r31	; 0x01
    38ca:	e8 83       	st	Y, r30
    38cc:	cd 56       	subi	r28, 0x6D	; 109
    38ce:	d2 40       	sbci	r29, 0x02	; 2
	ppm2[149] =	202;
    38d0:	ea ec       	ldi	r30, 0xCA	; 202
    38d2:	f0 e0       	ldi	r31, 0x00	; 0
    38d4:	c1 59       	subi	r28, 0x91	; 145
    38d6:	dd 4f       	sbci	r29, 0xFD	; 253
    38d8:	f9 83       	std	Y+1, r31	; 0x01
    38da:	e8 83       	st	Y, r30
    38dc:	cf 56       	subi	r28, 0x6F	; 111
    38de:	d2 40       	sbci	r29, 0x02	; 2
	ppm2[150] =	200;
    38e0:	e8 ec       	ldi	r30, 0xC8	; 200
    38e2:	f0 e0       	ldi	r31, 0x00	; 0
    38e4:	cf 58       	subi	r28, 0x8F	; 143
    38e6:	dd 4f       	sbci	r29, 0xFD	; 253
    38e8:	f9 83       	std	Y+1, r31	; 0x01
    38ea:	e8 83       	st	Y, r30
    38ec:	c1 57       	subi	r28, 0x71	; 113
    38ee:	d2 40       	sbci	r29, 0x02	; 2

	int ppm5[151];
	ppm5[0] =	9867;
    38f0:	eb e8       	ldi	r30, 0x8B	; 139
    38f2:	f6 e2       	ldi	r31, 0x26	; 38
    38f4:	cd 58       	subi	r28, 0x8D	; 141
    38f6:	dd 4f       	sbci	r29, 0xFD	; 253
    38f8:	f9 83       	std	Y+1, r31	; 0x01
    38fa:	e8 83       	st	Y, r30
    38fc:	c3 57       	subi	r28, 0x73	; 115
    38fe:	d2 40       	sbci	r29, 0x02	; 2
	ppm5[1] =	9291;
    3900:	eb e4       	ldi	r30, 0x4B	; 75
    3902:	f4 e2       	ldi	r31, 0x24	; 36
    3904:	cb 58       	subi	r28, 0x8B	; 139
    3906:	dd 4f       	sbci	r29, 0xFD	; 253
    3908:	f9 83       	std	Y+1, r31	; 0x01
    390a:	e8 83       	st	Y, r30
    390c:	c5 57       	subi	r28, 0x75	; 117
    390e:	d2 40       	sbci	r29, 0x02	; 2
	ppm5[2] =	8760;
    3910:	e8 e3       	ldi	r30, 0x38	; 56
    3912:	f2 e2       	ldi	r31, 0x22	; 34
    3914:	c9 58       	subi	r28, 0x89	; 137
    3916:	dd 4f       	sbci	r29, 0xFD	; 253
    3918:	f9 83       	std	Y+1, r31	; 0x01
    391a:	e8 83       	st	Y, r30
    391c:	c7 57       	subi	r28, 0x77	; 119
    391e:	d2 40       	sbci	r29, 0x02	; 2
	ppm5[3] =	8271;
    3920:	ef e4       	ldi	r30, 0x4F	; 79
    3922:	f0 e2       	ldi	r31, 0x20	; 32
    3924:	c7 58       	subi	r28, 0x87	; 135
    3926:	dd 4f       	sbci	r29, 0xFD	; 253
    3928:	f9 83       	std	Y+1, r31	; 0x01
    392a:	e8 83       	st	Y, r30
    392c:	c9 57       	subi	r28, 0x79	; 121
    392e:	d2 40       	sbci	r29, 0x02	; 2
	ppm5[4] =	7819;
    3930:	eb e8       	ldi	r30, 0x8B	; 139
    3932:	fe e1       	ldi	r31, 0x1E	; 30
    3934:	c5 58       	subi	r28, 0x85	; 133
    3936:	dd 4f       	sbci	r29, 0xFD	; 253
    3938:	f9 83       	std	Y+1, r31	; 0x01
    393a:	e8 83       	st	Y, r30
    393c:	cb 57       	subi	r28, 0x7B	; 123
    393e:	d2 40       	sbci	r29, 0x02	; 2
	ppm5[5] =	7400;
    3940:	e8 ee       	ldi	r30, 0xE8	; 232
    3942:	fc e1       	ldi	r31, 0x1C	; 28
    3944:	c3 58       	subi	r28, 0x83	; 131
    3946:	dd 4f       	sbci	r29, 0xFD	; 253
    3948:	f9 83       	std	Y+1, r31	; 0x01
    394a:	e8 83       	st	Y, r30
    394c:	cd 57       	subi	r28, 0x7D	; 125
    394e:	d2 40       	sbci	r29, 0x02	; 2
	ppm5[6] =	7012;
    3950:	e4 e6       	ldi	r30, 0x64	; 100
    3952:	fb e1       	ldi	r31, 0x1B	; 27
    3954:	c1 58       	subi	r28, 0x81	; 129
    3956:	dd 4f       	sbci	r29, 0xFD	; 253
    3958:	f9 83       	std	Y+1, r31	; 0x01
    395a:	e8 83       	st	Y, r30
    395c:	cf 57       	subi	r28, 0x7F	; 127
    395e:	d2 40       	sbci	r29, 0x02	; 2
	ppm5[7] =	6652;
    3960:	ec ef       	ldi	r30, 0xFC	; 252
    3962:	f9 e1       	ldi	r31, 0x19	; 25
    3964:	cf 57       	subi	r28, 0x7F	; 127
    3966:	dd 4f       	sbci	r29, 0xFD	; 253
    3968:	f9 83       	std	Y+1, r31	; 0x01
    396a:	e8 83       	st	Y, r30
    396c:	c1 58       	subi	r28, 0x81	; 129
    396e:	d2 40       	sbci	r29, 0x02	; 2
	ppm5[8] =	6317;
    3970:	ed ea       	ldi	r30, 0xAD	; 173
    3972:	f8 e1       	ldi	r31, 0x18	; 24
    3974:	cd 57       	subi	r28, 0x7D	; 125
    3976:	dd 4f       	sbci	r29, 0xFD	; 253
    3978:	f9 83       	std	Y+1, r31	; 0x01
    397a:	e8 83       	st	Y, r30
    397c:	c3 58       	subi	r28, 0x83	; 131
    397e:	d2 40       	sbci	r29, 0x02	; 2
	ppm5[9] =	6005;
    3980:	e5 e7       	ldi	r30, 0x75	; 117
    3982:	f7 e1       	ldi	r31, 0x17	; 23
    3984:	cb 57       	subi	r28, 0x7B	; 123
    3986:	dd 4f       	sbci	r29, 0xFD	; 253
    3988:	f9 83       	std	Y+1, r31	; 0x01
    398a:	e8 83       	st	Y, r30
    398c:	c5 58       	subi	r28, 0x85	; 133
    398e:	d2 40       	sbci	r29, 0x02	; 2
	ppm5[10] =	5714;
    3990:	e2 e5       	ldi	r30, 0x52	; 82
    3992:	f6 e1       	ldi	r31, 0x16	; 22
    3994:	c9 57       	subi	r28, 0x79	; 121
    3996:	dd 4f       	sbci	r29, 0xFD	; 253
    3998:	f9 83       	std	Y+1, r31	; 0x01
    399a:	e8 83       	st	Y, r30
    399c:	c7 58       	subi	r28, 0x87	; 135
    399e:	d2 40       	sbci	r29, 0x02	; 2
	ppm5[11] =	5443;
    39a0:	e3 e4       	ldi	r30, 0x43	; 67
    39a2:	f5 e1       	ldi	r31, 0x15	; 21
    39a4:	c7 57       	subi	r28, 0x77	; 119
    39a6:	dd 4f       	sbci	r29, 0xFD	; 253
    39a8:	f9 83       	std	Y+1, r31	; 0x01
    39aa:	e8 83       	st	Y, r30
    39ac:	c9 58       	subi	r28, 0x89	; 137
    39ae:	d2 40       	sbci	r29, 0x02	; 2
	ppm5[12] =	5189;
    39b0:	e5 e4       	ldi	r30, 0x45	; 69
    39b2:	f4 e1       	ldi	r31, 0x14	; 20
    39b4:	c5 57       	subi	r28, 0x75	; 117
    39b6:	dd 4f       	sbci	r29, 0xFD	; 253
    39b8:	f9 83       	std	Y+1, r31	; 0x01
    39ba:	e8 83       	st	Y, r30
    39bc:	cb 58       	subi	r28, 0x8B	; 139
    39be:	d2 40       	sbci	r29, 0x02	; 2
	ppm5[13] =	4951;
    39c0:	e7 e5       	ldi	r30, 0x57	; 87
    39c2:	f3 e1       	ldi	r31, 0x13	; 19
    39c4:	c3 57       	subi	r28, 0x73	; 115
    39c6:	dd 4f       	sbci	r29, 0xFD	; 253
    39c8:	f9 83       	std	Y+1, r31	; 0x01
    39ca:	e8 83       	st	Y, r30
    39cc:	cd 58       	subi	r28, 0x8D	; 141
    39ce:	d2 40       	sbci	r29, 0x02	; 2
	ppm5[14] =	4728;
    39d0:	e8 e7       	ldi	r30, 0x78	; 120
    39d2:	f2 e1       	ldi	r31, 0x12	; 18
    39d4:	c1 57       	subi	r28, 0x71	; 113
    39d6:	dd 4f       	sbci	r29, 0xFD	; 253
    39d8:	f9 83       	std	Y+1, r31	; 0x01
    39da:	e8 83       	st	Y, r30
    39dc:	cf 58       	subi	r28, 0x8F	; 143
    39de:	d2 40       	sbci	r29, 0x02	; 2
	ppm5[15] =	4518;
    39e0:	e6 ea       	ldi	r30, 0xA6	; 166
    39e2:	f1 e1       	ldi	r31, 0x11	; 17
    39e4:	cf 56       	subi	r28, 0x6F	; 111
    39e6:	dd 4f       	sbci	r29, 0xFD	; 253
    39e8:	f9 83       	std	Y+1, r31	; 0x01
    39ea:	e8 83       	st	Y, r30
    39ec:	c1 59       	subi	r28, 0x91	; 145
    39ee:	d2 40       	sbci	r29, 0x02	; 2
	ppm5[16] =	4322;
    39f0:	e2 ee       	ldi	r30, 0xE2	; 226
    39f2:	f0 e1       	ldi	r31, 0x10	; 16
    39f4:	cd 56       	subi	r28, 0x6D	; 109
    39f6:	dd 4f       	sbci	r29, 0xFD	; 253
    39f8:	f9 83       	std	Y+1, r31	; 0x01
    39fa:	e8 83       	st	Y, r30
    39fc:	c3 59       	subi	r28, 0x93	; 147
    39fe:	d2 40       	sbci	r29, 0x02	; 2
	ppm5[17] =	4137;
    3a00:	e9 e2       	ldi	r30, 0x29	; 41
    3a02:	f0 e1       	ldi	r31, 0x10	; 16
    3a04:	cb 56       	subi	r28, 0x6B	; 107
    3a06:	dd 4f       	sbci	r29, 0xFD	; 253
    3a08:	f9 83       	std	Y+1, r31	; 0x01
    3a0a:	e8 83       	st	Y, r30
    3a0c:	c5 59       	subi	r28, 0x95	; 149
    3a0e:	d2 40       	sbci	r29, 0x02	; 2
	ppm5[18] =	3963;
    3a10:	eb e7       	ldi	r30, 0x7B	; 123
    3a12:	ff e0       	ldi	r31, 0x0F	; 15
    3a14:	c9 56       	subi	r28, 0x69	; 105
    3a16:	dd 4f       	sbci	r29, 0xFD	; 253
    3a18:	f9 83       	std	Y+1, r31	; 0x01
    3a1a:	e8 83       	st	Y, r30
    3a1c:	c7 59       	subi	r28, 0x97	; 151
    3a1e:	d2 40       	sbci	r29, 0x02	; 2
	ppm5[19] =	3799;
    3a20:	e7 ed       	ldi	r30, 0xD7	; 215
    3a22:	fe e0       	ldi	r31, 0x0E	; 14
    3a24:	c7 56       	subi	r28, 0x67	; 103
    3a26:	dd 4f       	sbci	r29, 0xFD	; 253
    3a28:	f9 83       	std	Y+1, r31	; 0x01
    3a2a:	e8 83       	st	Y, r30
    3a2c:	c9 59       	subi	r28, 0x99	; 153
    3a2e:	d2 40       	sbci	r29, 0x02	; 2
	ppm5[20] =	3644;
    3a30:	ec e3       	ldi	r30, 0x3C	; 60
    3a32:	fe e0       	ldi	r31, 0x0E	; 14
    3a34:	c5 56       	subi	r28, 0x65	; 101
    3a36:	dd 4f       	sbci	r29, 0xFD	; 253
    3a38:	f9 83       	std	Y+1, r31	; 0x01
    3a3a:	e8 83       	st	Y, r30
    3a3c:	cb 59       	subi	r28, 0x9B	; 155
    3a3e:	d2 40       	sbci	r29, 0x02	; 2
	ppm5[21] =	3498;
    3a40:	ea ea       	ldi	r30, 0xAA	; 170
    3a42:	fd e0       	ldi	r31, 0x0D	; 13
    3a44:	c3 56       	subi	r28, 0x63	; 99
    3a46:	dd 4f       	sbci	r29, 0xFD	; 253
    3a48:	f9 83       	std	Y+1, r31	; 0x01
    3a4a:	e8 83       	st	Y, r30
    3a4c:	cd 59       	subi	r28, 0x9D	; 157
    3a4e:	d2 40       	sbci	r29, 0x02	; 2
	ppm5[22] =	3360;
    3a50:	e0 e2       	ldi	r30, 0x20	; 32
    3a52:	fd e0       	ldi	r31, 0x0D	; 13
    3a54:	c1 56       	subi	r28, 0x61	; 97
    3a56:	dd 4f       	sbci	r29, 0xFD	; 253
    3a58:	f9 83       	std	Y+1, r31	; 0x01
    3a5a:	e8 83       	st	Y, r30
    3a5c:	cf 59       	subi	r28, 0x9F	; 159
    3a5e:	d2 40       	sbci	r29, 0x02	; 2
	ppm5[23] =	3229;
    3a60:	ed e9       	ldi	r30, 0x9D	; 157
    3a62:	fc e0       	ldi	r31, 0x0C	; 12
    3a64:	cf 55       	subi	r28, 0x5F	; 95
    3a66:	dd 4f       	sbci	r29, 0xFD	; 253
    3a68:	f9 83       	std	Y+1, r31	; 0x01
    3a6a:	e8 83       	st	Y, r30
    3a6c:	c1 5a       	subi	r28, 0xA1	; 161
    3a6e:	d2 40       	sbci	r29, 0x02	; 2
	ppm5[24] =	3106;
    3a70:	e2 e2       	ldi	r30, 0x22	; 34
    3a72:	fc e0       	ldi	r31, 0x0C	; 12
    3a74:	cd 55       	subi	r28, 0x5D	; 93
    3a76:	dd 4f       	sbci	r29, 0xFD	; 253
    3a78:	f9 83       	std	Y+1, r31	; 0x01
    3a7a:	e8 83       	st	Y, r30
    3a7c:	c3 5a       	subi	r28, 0xA3	; 163
    3a7e:	d2 40       	sbci	r29, 0x02	; 2
	ppm5[25] =	2988;
    3a80:	cb 55       	subi	r28, 0x5B	; 91
    3a82:	dd 4f       	sbci	r29, 0xFD	; 253
    3a84:	79 83       	std	Y+1, r23	; 0x01
    3a86:	68 83       	st	Y, r22
    3a88:	c5 5a       	subi	r28, 0xA5	; 165
    3a8a:	d2 40       	sbci	r29, 0x02	; 2
	ppm5[26] =	2772;
    3a8c:	64 ed       	ldi	r22, 0xD4	; 212
    3a8e:	7a e0       	ldi	r23, 0x0A	; 10
    3a90:	c9 55       	subi	r28, 0x59	; 89
    3a92:	dd 4f       	sbci	r29, 0xFD	; 253
    3a94:	79 83       	std	Y+1, r23	; 0x01
    3a96:	68 83       	st	Y, r22
    3a98:	c7 5a       	subi	r28, 0xA7	; 167
    3a9a:	d2 40       	sbci	r29, 0x02	; 2
	ppm5[27] =	2672;
    3a9c:	60 e7       	ldi	r22, 0x70	; 112
    3a9e:	7a e0       	ldi	r23, 0x0A	; 10
    3aa0:	c7 55       	subi	r28, 0x57	; 87
    3aa2:	dd 4f       	sbci	r29, 0xFD	; 253
    3aa4:	79 83       	std	Y+1, r23	; 0x01
    3aa6:	68 83       	st	Y, r22
    3aa8:	c9 5a       	subi	r28, 0xA9	; 169
    3aaa:	d2 40       	sbci	r29, 0x02	; 2
	ppm5[28] =	2577;
    3aac:	61 e1       	ldi	r22, 0x11	; 17
    3aae:	7a e0       	ldi	r23, 0x0A	; 10
    3ab0:	c5 55       	subi	r28, 0x55	; 85
    3ab2:	dd 4f       	sbci	r29, 0xFD	; 253
    3ab4:	79 83       	std	Y+1, r23	; 0x01
    3ab6:	68 83       	st	Y, r22
    3ab8:	cb 5a       	subi	r28, 0xAB	; 171
    3aba:	d2 40       	sbci	r29, 0x02	; 2
	ppm5[29] =	2486;
    3abc:	66 eb       	ldi	r22, 0xB6	; 182
    3abe:	79 e0       	ldi	r23, 0x09	; 9
    3ac0:	c3 55       	subi	r28, 0x53	; 83
    3ac2:	dd 4f       	sbci	r29, 0xFD	; 253
    3ac4:	79 83       	std	Y+1, r23	; 0x01
    3ac6:	68 83       	st	Y, r22
    3ac8:	cd 5a       	subi	r28, 0xAD	; 173
    3aca:	d2 40       	sbci	r29, 0x02	; 2
	ppm5[30] =	2400;
    3acc:	60 e6       	ldi	r22, 0x60	; 96
    3ace:	79 e0       	ldi	r23, 0x09	; 9
    3ad0:	c1 55       	subi	r28, 0x51	; 81
    3ad2:	dd 4f       	sbci	r29, 0xFD	; 253
    3ad4:	79 83       	std	Y+1, r23	; 0x01
    3ad6:	68 83       	st	Y, r22
    3ad8:	cf 5a       	subi	r28, 0xAF	; 175
    3ada:	d2 40       	sbci	r29, 0x02	; 2
	ppm5[31] =	2318;
    3adc:	6e e0       	ldi	r22, 0x0E	; 14
    3ade:	79 e0       	ldi	r23, 0x09	; 9
    3ae0:	cf 54       	subi	r28, 0x4F	; 79
    3ae2:	dd 4f       	sbci	r29, 0xFD	; 253
    3ae4:	79 83       	std	Y+1, r23	; 0x01
    3ae6:	68 83       	st	Y, r22
    3ae8:	c1 5b       	subi	r28, 0xB1	; 177
    3aea:	d2 40       	sbci	r29, 0x02	; 2
	ppm5[32] =	2240;
    3aec:	60 ec       	ldi	r22, 0xC0	; 192
    3aee:	78 e0       	ldi	r23, 0x08	; 8
    3af0:	cd 54       	subi	r28, 0x4D	; 77
    3af2:	dd 4f       	sbci	r29, 0xFD	; 253
    3af4:	79 83       	std	Y+1, r23	; 0x01
    3af6:	68 83       	st	Y, r22
    3af8:	c3 5b       	subi	r28, 0xB3	; 179
    3afa:	d2 40       	sbci	r29, 0x02	; 2
	ppm5[33] =	2165;
    3afc:	65 e7       	ldi	r22, 0x75	; 117
    3afe:	78 e0       	ldi	r23, 0x08	; 8
    3b00:	cb 54       	subi	r28, 0x4B	; 75
    3b02:	dd 4f       	sbci	r29, 0xFD	; 253
    3b04:	79 83       	std	Y+1, r23	; 0x01
    3b06:	68 83       	st	Y, r22
    3b08:	c5 5b       	subi	r28, 0xB5	; 181
    3b0a:	d2 40       	sbci	r29, 0x02	; 2
	ppm5[34] =	2094;
    3b0c:	6e e2       	ldi	r22, 0x2E	; 46
    3b0e:	78 e0       	ldi	r23, 0x08	; 8
    3b10:	c9 54       	subi	r28, 0x49	; 73
    3b12:	dd 4f       	sbci	r29, 0xFD	; 253
    3b14:	79 83       	std	Y+1, r23	; 0x01
    3b16:	68 83       	st	Y, r22
    3b18:	c7 5b       	subi	r28, 0xB7	; 183
    3b1a:	d2 40       	sbci	r29, 0x02	; 2
	ppm5[35] =	2026;
    3b1c:	6a ee       	ldi	r22, 0xEA	; 234
    3b1e:	77 e0       	ldi	r23, 0x07	; 7
    3b20:	c7 54       	subi	r28, 0x47	; 71
    3b22:	dd 4f       	sbci	r29, 0xFD	; 253
    3b24:	79 83       	std	Y+1, r23	; 0x01
    3b26:	68 83       	st	Y, r22
    3b28:	c9 5b       	subi	r28, 0xB9	; 185
    3b2a:	d2 40       	sbci	r29, 0x02	; 2
	ppm5[36] =	1961;
    3b2c:	69 ea       	ldi	r22, 0xA9	; 169
    3b2e:	77 e0       	ldi	r23, 0x07	; 7
    3b30:	c5 54       	subi	r28, 0x45	; 69
    3b32:	dd 4f       	sbci	r29, 0xFD	; 253
    3b34:	79 83       	std	Y+1, r23	; 0x01
    3b36:	68 83       	st	Y, r22
    3b38:	cb 5b       	subi	r28, 0xBB	; 187
    3b3a:	d2 40       	sbci	r29, 0x02	; 2
	ppm5[37] =	1899;
    3b3c:	6b e6       	ldi	r22, 0x6B	; 107
    3b3e:	77 e0       	ldi	r23, 0x07	; 7
    3b40:	c3 54       	subi	r28, 0x43	; 67
    3b42:	dd 4f       	sbci	r29, 0xFD	; 253
    3b44:	79 83       	std	Y+1, r23	; 0x01
    3b46:	68 83       	st	Y, r22
    3b48:	cd 5b       	subi	r28, 0xBD	; 189
    3b4a:	d2 40       	sbci	r29, 0x02	; 2
	ppm5[38] =	1839;
    3b4c:	6f e2       	ldi	r22, 0x2F	; 47
    3b4e:	77 e0       	ldi	r23, 0x07	; 7
    3b50:	c1 54       	subi	r28, 0x41	; 65
    3b52:	dd 4f       	sbci	r29, 0xFD	; 253
    3b54:	79 83       	std	Y+1, r23	; 0x01
    3b56:	68 83       	st	Y, r22
    3b58:	cf 5b       	subi	r28, 0xBF	; 191
    3b5a:	d2 40       	sbci	r29, 0x02	; 2
	ppm5[39] =	1783;
    3b5c:	67 ef       	ldi	r22, 0xF7	; 247
    3b5e:	76 e0       	ldi	r23, 0x06	; 6
    3b60:	cf 53       	subi	r28, 0x3F	; 63
    3b62:	dd 4f       	sbci	r29, 0xFD	; 253
    3b64:	79 83       	std	Y+1, r23	; 0x01
    3b66:	68 83       	st	Y, r22
    3b68:	c1 5c       	subi	r28, 0xC1	; 193
    3b6a:	d2 40       	sbci	r29, 0x02	; 2
	ppm5[40] =	1728;
    3b6c:	60 ec       	ldi	r22, 0xC0	; 192
    3b6e:	76 e0       	ldi	r23, 0x06	; 6
    3b70:	cd 53       	subi	r28, 0x3D	; 61
    3b72:	dd 4f       	sbci	r29, 0xFD	; 253
    3b74:	79 83       	std	Y+1, r23	; 0x01
    3b76:	68 83       	st	Y, r22
    3b78:	c3 5c       	subi	r28, 0xC3	; 195
    3b7a:	d2 40       	sbci	r29, 0x02	; 2
	ppm5[41] =	1676;
    3b7c:	6c e8       	ldi	r22, 0x8C	; 140
    3b7e:	76 e0       	ldi	r23, 0x06	; 6
    3b80:	cb 53       	subi	r28, 0x3B	; 59
    3b82:	dd 4f       	sbci	r29, 0xFD	; 253
    3b84:	79 83       	std	Y+1, r23	; 0x01
    3b86:	68 83       	st	Y, r22
    3b88:	c5 5c       	subi	r28, 0xC5	; 197
    3b8a:	d2 40       	sbci	r29, 0x02	; 2
	ppm5[42] =	1626;
    3b8c:	6a e5       	ldi	r22, 0x5A	; 90
    3b8e:	76 e0       	ldi	r23, 0x06	; 6
    3b90:	c9 53       	subi	r28, 0x39	; 57
    3b92:	dd 4f       	sbci	r29, 0xFD	; 253
    3b94:	79 83       	std	Y+1, r23	; 0x01
    3b96:	68 83       	st	Y, r22
    3b98:	c7 5c       	subi	r28, 0xC7	; 199
    3b9a:	d2 40       	sbci	r29, 0x02	; 2
	ppm5[43] =	1578;
    3b9c:	6a e2       	ldi	r22, 0x2A	; 42
    3b9e:	76 e0       	ldi	r23, 0x06	; 6
    3ba0:	c7 53       	subi	r28, 0x37	; 55
    3ba2:	dd 4f       	sbci	r29, 0xFD	; 253
    3ba4:	79 83       	std	Y+1, r23	; 0x01
    3ba6:	68 83       	st	Y, r22
    3ba8:	c9 5c       	subi	r28, 0xC9	; 201
    3baa:	d2 40       	sbci	r29, 0x02	; 2
	ppm5[44] =	1532;
    3bac:	6c ef       	ldi	r22, 0xFC	; 252
    3bae:	75 e0       	ldi	r23, 0x05	; 5
    3bb0:	c5 53       	subi	r28, 0x35	; 53
    3bb2:	dd 4f       	sbci	r29, 0xFD	; 253
    3bb4:	79 83       	std	Y+1, r23	; 0x01
    3bb6:	68 83       	st	Y, r22
    3bb8:	cb 5c       	subi	r28, 0xCB	; 203
    3bba:	d2 40       	sbci	r29, 0x02	; 2
	ppm5[45] =	1488;
    3bbc:	60 ed       	ldi	r22, 0xD0	; 208
    3bbe:	75 e0       	ldi	r23, 0x05	; 5
    3bc0:	c3 53       	subi	r28, 0x33	; 51
    3bc2:	dd 4f       	sbci	r29, 0xFD	; 253
    3bc4:	79 83       	std	Y+1, r23	; 0x01
    3bc6:	68 83       	st	Y, r22
    3bc8:	cd 5c       	subi	r28, 0xCD	; 205
    3bca:	d2 40       	sbci	r29, 0x02	; 2
	ppm5[46] =	1446;
    3bcc:	66 ea       	ldi	r22, 0xA6	; 166
    3bce:	75 e0       	ldi	r23, 0x05	; 5
    3bd0:	c1 53       	subi	r28, 0x31	; 49
    3bd2:	dd 4f       	sbci	r29, 0xFD	; 253
    3bd4:	79 83       	std	Y+1, r23	; 0x01
    3bd6:	68 83       	st	Y, r22
    3bd8:	cf 5c       	subi	r28, 0xCF	; 207
    3bda:	d2 40       	sbci	r29, 0x02	; 2
	ppm5[47] =	1405;
    3bdc:	6d e7       	ldi	r22, 0x7D	; 125
    3bde:	75 e0       	ldi	r23, 0x05	; 5
    3be0:	cf 52       	subi	r28, 0x2F	; 47
    3be2:	dd 4f       	sbci	r29, 0xFD	; 253
    3be4:	79 83       	std	Y+1, r23	; 0x01
    3be6:	68 83       	st	Y, r22
    3be8:	c1 5d       	subi	r28, 0xD1	; 209
    3bea:	d2 40       	sbci	r29, 0x02	; 2
	ppm5[48] =	1366;
    3bec:	66 e5       	ldi	r22, 0x56	; 86
    3bee:	75 e0       	ldi	r23, 0x05	; 5
    3bf0:	cd 52       	subi	r28, 0x2D	; 45
    3bf2:	dd 4f       	sbci	r29, 0xFD	; 253
    3bf4:	79 83       	std	Y+1, r23	; 0x01
    3bf6:	68 83       	st	Y, r22
    3bf8:	c3 5d       	subi	r28, 0xD3	; 211
    3bfa:	d2 40       	sbci	r29, 0x02	; 2
	ppm5[49] =	1328;
    3bfc:	60 e3       	ldi	r22, 0x30	; 48
    3bfe:	75 e0       	ldi	r23, 0x05	; 5
    3c00:	cb 52       	subi	r28, 0x2B	; 43
    3c02:	dd 4f       	sbci	r29, 0xFD	; 253
    3c04:	79 83       	std	Y+1, r23	; 0x01
    3c06:	68 83       	st	Y, r22
    3c08:	c5 5d       	subi	r28, 0xD5	; 213
    3c0a:	d2 40       	sbci	r29, 0x02	; 2
	ppm5[50] =	1292;
    3c0c:	6c e0       	ldi	r22, 0x0C	; 12
    3c0e:	75 e0       	ldi	r23, 0x05	; 5
    3c10:	c9 52       	subi	r28, 0x29	; 41
    3c12:	dd 4f       	sbci	r29, 0xFD	; 253
    3c14:	79 83       	std	Y+1, r23	; 0x01
    3c16:	68 83       	st	Y, r22
    3c18:	c7 5d       	subi	r28, 0xD7	; 215
    3c1a:	d2 40       	sbci	r29, 0x02	; 2
	ppm5[51] =	1257;
    3c1c:	69 ee       	ldi	r22, 0xE9	; 233
    3c1e:	74 e0       	ldi	r23, 0x04	; 4
    3c20:	c7 52       	subi	r28, 0x27	; 39
    3c22:	dd 4f       	sbci	r29, 0xFD	; 253
    3c24:	79 83       	std	Y+1, r23	; 0x01
    3c26:	68 83       	st	Y, r22
    3c28:	c9 5d       	subi	r28, 0xD9	; 217
    3c2a:	d2 40       	sbci	r29, 0x02	; 2
	ppm5[52] =	1223;
    3c2c:	67 ec       	ldi	r22, 0xC7	; 199
    3c2e:	74 e0       	ldi	r23, 0x04	; 4
    3c30:	c5 52       	subi	r28, 0x25	; 37
    3c32:	dd 4f       	sbci	r29, 0xFD	; 253
    3c34:	79 83       	std	Y+1, r23	; 0x01
    3c36:	68 83       	st	Y, r22
    3c38:	cb 5d       	subi	r28, 0xDB	; 219
    3c3a:	d2 40       	sbci	r29, 0x02	; 2
	ppm5[53] =	1191;
    3c3c:	67 ea       	ldi	r22, 0xA7	; 167
    3c3e:	74 e0       	ldi	r23, 0x04	; 4
    3c40:	c3 52       	subi	r28, 0x23	; 35
    3c42:	dd 4f       	sbci	r29, 0xFD	; 253
    3c44:	79 83       	std	Y+1, r23	; 0x01
    3c46:	68 83       	st	Y, r22
    3c48:	cd 5d       	subi	r28, 0xDD	; 221
    3c4a:	d2 40       	sbci	r29, 0x02	; 2
	ppm5[54] =	1160;
    3c4c:	68 e8       	ldi	r22, 0x88	; 136
    3c4e:	74 e0       	ldi	r23, 0x04	; 4
    3c50:	c1 52       	subi	r28, 0x21	; 33
    3c52:	dd 4f       	sbci	r29, 0xFD	; 253
    3c54:	79 83       	std	Y+1, r23	; 0x01
    3c56:	68 83       	st	Y, r22
    3c58:	cf 5d       	subi	r28, 0xDF	; 223
    3c5a:	d2 40       	sbci	r29, 0x02	; 2
	ppm5[55] =	1130;
    3c5c:	6a e6       	ldi	r22, 0x6A	; 106
    3c5e:	74 e0       	ldi	r23, 0x04	; 4
    3c60:	cf 51       	subi	r28, 0x1F	; 31
    3c62:	dd 4f       	sbci	r29, 0xFD	; 253
    3c64:	79 83       	std	Y+1, r23	; 0x01
    3c66:	68 83       	st	Y, r22
    3c68:	c1 5e       	subi	r28, 0xE1	; 225
    3c6a:	d2 40       	sbci	r29, 0x02	; 2
	ppm5[56] =	1101;
    3c6c:	6d e4       	ldi	r22, 0x4D	; 77
    3c6e:	74 e0       	ldi	r23, 0x04	; 4
    3c70:	cd 51       	subi	r28, 0x1D	; 29
    3c72:	dd 4f       	sbci	r29, 0xFD	; 253
    3c74:	79 83       	std	Y+1, r23	; 0x01
    3c76:	68 83       	st	Y, r22
    3c78:	c3 5e       	subi	r28, 0xE3	; 227
    3c7a:	d2 40       	sbci	r29, 0x02	; 2
	ppm5[57] =	1073;
    3c7c:	61 e3       	ldi	r22, 0x31	; 49
    3c7e:	74 e0       	ldi	r23, 0x04	; 4
    3c80:	cb 51       	subi	r28, 0x1B	; 27
    3c82:	dd 4f       	sbci	r29, 0xFD	; 253
    3c84:	79 83       	std	Y+1, r23	; 0x01
    3c86:	68 83       	st	Y, r22
    3c88:	c5 5e       	subi	r28, 0xE5	; 229
    3c8a:	d2 40       	sbci	r29, 0x02	; 2
	ppm5[58] =	1046;
    3c8c:	66 e1       	ldi	r22, 0x16	; 22
    3c8e:	74 e0       	ldi	r23, 0x04	; 4
    3c90:	c9 51       	subi	r28, 0x19	; 25
    3c92:	dd 4f       	sbci	r29, 0xFD	; 253
    3c94:	79 83       	std	Y+1, r23	; 0x01
    3c96:	68 83       	st	Y, r22
    3c98:	c7 5e       	subi	r28, 0xE7	; 231
    3c9a:	d2 40       	sbci	r29, 0x02	; 2
	ppm5[59] =	1020;
    3c9c:	6c ef       	ldi	r22, 0xFC	; 252
    3c9e:	73 e0       	ldi	r23, 0x03	; 3
    3ca0:	c7 51       	subi	r28, 0x17	; 23
    3ca2:	dd 4f       	sbci	r29, 0xFD	; 253
    3ca4:	79 83       	std	Y+1, r23	; 0x01
    3ca6:	68 83       	st	Y, r22
    3ca8:	c9 5e       	subi	r28, 0xE9	; 233
    3caa:	d2 40       	sbci	r29, 0x02	; 2
	ppm5[60] =	995;
    3cac:	63 ee       	ldi	r22, 0xE3	; 227
    3cae:	73 e0       	ldi	r23, 0x03	; 3
    3cb0:	c5 51       	subi	r28, 0x15	; 21
    3cb2:	dd 4f       	sbci	r29, 0xFD	; 253
    3cb4:	79 83       	std	Y+1, r23	; 0x01
    3cb6:	68 83       	st	Y, r22
    3cb8:	cb 5e       	subi	r28, 0xEB	; 235
    3cba:	d2 40       	sbci	r29, 0x02	; 2
	ppm5[61] =	971;
    3cbc:	6b ec       	ldi	r22, 0xCB	; 203
    3cbe:	73 e0       	ldi	r23, 0x03	; 3
    3cc0:	c3 51       	subi	r28, 0x13	; 19
    3cc2:	dd 4f       	sbci	r29, 0xFD	; 253
    3cc4:	79 83       	std	Y+1, r23	; 0x01
    3cc6:	68 83       	st	Y, r22
    3cc8:	cd 5e       	subi	r28, 0xED	; 237
    3cca:	d2 40       	sbci	r29, 0x02	; 2
	ppm5[62] =	947;
    3ccc:	63 eb       	ldi	r22, 0xB3	; 179
    3cce:	73 e0       	ldi	r23, 0x03	; 3
    3cd0:	c1 51       	subi	r28, 0x11	; 17
    3cd2:	dd 4f       	sbci	r29, 0xFD	; 253
    3cd4:	79 83       	std	Y+1, r23	; 0x01
    3cd6:	68 83       	st	Y, r22
    3cd8:	cf 5e       	subi	r28, 0xEF	; 239
    3cda:	d2 40       	sbci	r29, 0x02	; 2
	ppm5[63] =	924;
    3cdc:	6c e9       	ldi	r22, 0x9C	; 156
    3cde:	73 e0       	ldi	r23, 0x03	; 3
    3ce0:	cf 50       	subi	r28, 0x0F	; 15
    3ce2:	dd 4f       	sbci	r29, 0xFD	; 253
    3ce4:	79 83       	std	Y+1, r23	; 0x01
    3ce6:	68 83       	st	Y, r22
    3ce8:	c1 5f       	subi	r28, 0xF1	; 241
    3cea:	d2 40       	sbci	r29, 0x02	; 2
	ppm5[64] =	903;
    3cec:	67 e8       	ldi	r22, 0x87	; 135
    3cee:	73 e0       	ldi	r23, 0x03	; 3
    3cf0:	cd 50       	subi	r28, 0x0D	; 13
    3cf2:	dd 4f       	sbci	r29, 0xFD	; 253
    3cf4:	79 83       	std	Y+1, r23	; 0x01
    3cf6:	68 83       	st	Y, r22
    3cf8:	c3 5f       	subi	r28, 0xF3	; 243
    3cfa:	d2 40       	sbci	r29, 0x02	; 2
	ppm5[65] =	881;
    3cfc:	61 e7       	ldi	r22, 0x71	; 113
    3cfe:	73 e0       	ldi	r23, 0x03	; 3
    3d00:	cb 50       	subi	r28, 0x0B	; 11
    3d02:	dd 4f       	sbci	r29, 0xFD	; 253
    3d04:	79 83       	std	Y+1, r23	; 0x01
    3d06:	68 83       	st	Y, r22
    3d08:	c5 5f       	subi	r28, 0xF5	; 245
    3d0a:	d2 40       	sbci	r29, 0x02	; 2
	ppm5[66] =	861;
    3d0c:	6d e5       	ldi	r22, 0x5D	; 93
    3d0e:	73 e0       	ldi	r23, 0x03	; 3
    3d10:	c9 50       	subi	r28, 0x09	; 9
    3d12:	dd 4f       	sbci	r29, 0xFD	; 253
    3d14:	79 83       	std	Y+1, r23	; 0x01
    3d16:	68 83       	st	Y, r22
    3d18:	c7 5f       	subi	r28, 0xF7	; 247
    3d1a:	d2 40       	sbci	r29, 0x02	; 2
	ppm5[67] =	841;
    3d1c:	69 e4       	ldi	r22, 0x49	; 73
    3d1e:	73 e0       	ldi	r23, 0x03	; 3
    3d20:	c7 50       	subi	r28, 0x07	; 7
    3d22:	dd 4f       	sbci	r29, 0xFD	; 253
    3d24:	79 83       	std	Y+1, r23	; 0x01
    3d26:	68 83       	st	Y, r22
    3d28:	c9 5f       	subi	r28, 0xF9	; 249
    3d2a:	d2 40       	sbci	r29, 0x02	; 2
	ppm5[68] =	822;
    3d2c:	66 e3       	ldi	r22, 0x36	; 54
    3d2e:	73 e0       	ldi	r23, 0x03	; 3
    3d30:	c5 50       	subi	r28, 0x05	; 5
    3d32:	dd 4f       	sbci	r29, 0xFD	; 253
    3d34:	79 83       	std	Y+1, r23	; 0x01
    3d36:	68 83       	st	Y, r22
    3d38:	cb 5f       	subi	r28, 0xFB	; 251
    3d3a:	d2 40       	sbci	r29, 0x02	; 2
	ppm5[69] =	803;
    3d3c:	63 e2       	ldi	r22, 0x23	; 35
    3d3e:	73 e0       	ldi	r23, 0x03	; 3
    3d40:	c3 50       	subi	r28, 0x03	; 3
    3d42:	dd 4f       	sbci	r29, 0xFD	; 253
    3d44:	79 83       	std	Y+1, r23	; 0x01
    3d46:	68 83       	st	Y, r22
    3d48:	cd 5f       	subi	r28, 0xFD	; 253
    3d4a:	d2 40       	sbci	r29, 0x02	; 2
	ppm5[70] =	785;
    3d4c:	61 e1       	ldi	r22, 0x11	; 17
    3d4e:	73 e0       	ldi	r23, 0x03	; 3
    3d50:	c1 50       	subi	r28, 0x01	; 1
    3d52:	dd 4f       	sbci	r29, 0xFD	; 253
    3d54:	79 83       	std	Y+1, r23	; 0x01
    3d56:	68 83       	st	Y, r22
    3d58:	cf 5f       	subi	r28, 0xFF	; 255
    3d5a:	d2 40       	sbci	r29, 0x02	; 2
	ppm5[71] =	768;
    3d5c:	60 e0       	ldi	r22, 0x00	; 0
    3d5e:	73 e0       	ldi	r23, 0x03	; 3
    3d60:	cf 5f       	subi	r28, 0xFF	; 255
    3d62:	dc 4f       	sbci	r29, 0xFC	; 252
    3d64:	79 83       	std	Y+1, r23	; 0x01
    3d66:	68 83       	st	Y, r22
    3d68:	c1 50       	subi	r28, 0x01	; 1
    3d6a:	d3 40       	sbci	r29, 0x03	; 3
	ppm5[72] =	751;
    3d6c:	6f ee       	ldi	r22, 0xEF	; 239
    3d6e:	72 e0       	ldi	r23, 0x02	; 2
    3d70:	cd 5f       	subi	r28, 0xFD	; 253
    3d72:	dc 4f       	sbci	r29, 0xFC	; 252
    3d74:	79 83       	std	Y+1, r23	; 0x01
    3d76:	68 83       	st	Y, r22
    3d78:	c3 50       	subi	r28, 0x03	; 3
    3d7a:	d3 40       	sbci	r29, 0x03	; 3
	ppm5[73] =	734;
    3d7c:	6e ed       	ldi	r22, 0xDE	; 222
    3d7e:	72 e0       	ldi	r23, 0x02	; 2
    3d80:	cb 5f       	subi	r28, 0xFB	; 251
    3d82:	dc 4f       	sbci	r29, 0xFC	; 252
    3d84:	79 83       	std	Y+1, r23	; 0x01
    3d86:	68 83       	st	Y, r22
    3d88:	c5 50       	subi	r28, 0x05	; 5
    3d8a:	d3 40       	sbci	r29, 0x03	; 3
	ppm5[74] =	718;
    3d8c:	6e ec       	ldi	r22, 0xCE	; 206
    3d8e:	72 e0       	ldi	r23, 0x02	; 2
    3d90:	c9 5f       	subi	r28, 0xF9	; 249
    3d92:	dc 4f       	sbci	r29, 0xFC	; 252
    3d94:	79 83       	std	Y+1, r23	; 0x01
    3d96:	68 83       	st	Y, r22
    3d98:	c7 50       	subi	r28, 0x07	; 7
    3d9a:	d3 40       	sbci	r29, 0x03	; 3
	ppm5[75] =	703;
    3d9c:	6f eb       	ldi	r22, 0xBF	; 191
    3d9e:	72 e0       	ldi	r23, 0x02	; 2
    3da0:	c7 5f       	subi	r28, 0xF7	; 247
    3da2:	dc 4f       	sbci	r29, 0xFC	; 252
    3da4:	79 83       	std	Y+1, r23	; 0x01
    3da6:	68 83       	st	Y, r22
    3da8:	c9 50       	subi	r28, 0x09	; 9
    3daa:	d3 40       	sbci	r29, 0x03	; 3
	ppm5[76] =	688;
    3dac:	60 eb       	ldi	r22, 0xB0	; 176
    3dae:	72 e0       	ldi	r23, 0x02	; 2
    3db0:	c5 5f       	subi	r28, 0xF5	; 245
    3db2:	dc 4f       	sbci	r29, 0xFC	; 252
    3db4:	79 83       	std	Y+1, r23	; 0x01
    3db6:	68 83       	st	Y, r22
    3db8:	cb 50       	subi	r28, 0x0B	; 11
    3dba:	d3 40       	sbci	r29, 0x03	; 3
	ppm5[77] =	673;
    3dbc:	61 ea       	ldi	r22, 0xA1	; 161
    3dbe:	72 e0       	ldi	r23, 0x02	; 2
    3dc0:	c3 5f       	subi	r28, 0xF3	; 243
    3dc2:	dc 4f       	sbci	r29, 0xFC	; 252
    3dc4:	79 83       	std	Y+1, r23	; 0x01
    3dc6:	68 83       	st	Y, r22
    3dc8:	cd 50       	subi	r28, 0x0D	; 13
    3dca:	d3 40       	sbci	r29, 0x03	; 3
	ppm5[78] =	659;
    3dcc:	63 e9       	ldi	r22, 0x93	; 147
    3dce:	72 e0       	ldi	r23, 0x02	; 2
    3dd0:	c1 5f       	subi	r28, 0xF1	; 241
    3dd2:	dc 4f       	sbci	r29, 0xFC	; 252
    3dd4:	79 83       	std	Y+1, r23	; 0x01
    3dd6:	68 83       	st	Y, r22
    3dd8:	cf 50       	subi	r28, 0x0F	; 15
    3dda:	d3 40       	sbci	r29, 0x03	; 3
	ppm5[79] =	645;
    3ddc:	65 e8       	ldi	r22, 0x85	; 133
    3dde:	72 e0       	ldi	r23, 0x02	; 2
    3de0:	cf 5e       	subi	r28, 0xEF	; 239
    3de2:	dc 4f       	sbci	r29, 0xFC	; 252
    3de4:	79 83       	std	Y+1, r23	; 0x01
    3de6:	68 83       	st	Y, r22
    3de8:	c1 51       	subi	r28, 0x11	; 17
    3dea:	d3 40       	sbci	r29, 0x03	; 3
	ppm5[80] =	632;
    3dec:	68 e7       	ldi	r22, 0x78	; 120
    3dee:	72 e0       	ldi	r23, 0x02	; 2
    3df0:	cd 5e       	subi	r28, 0xED	; 237
    3df2:	dc 4f       	sbci	r29, 0xFC	; 252
    3df4:	79 83       	std	Y+1, r23	; 0x01
    3df6:	68 83       	st	Y, r22
    3df8:	c3 51       	subi	r28, 0x13	; 19
    3dfa:	d3 40       	sbci	r29, 0x03	; 3
	ppm5[81] =	619;
    3dfc:	6b e6       	ldi	r22, 0x6B	; 107
    3dfe:	72 e0       	ldi	r23, 0x02	; 2
    3e00:	cb 5e       	subi	r28, 0xEB	; 235
    3e02:	dc 4f       	sbci	r29, 0xFC	; 252
    3e04:	79 83       	std	Y+1, r23	; 0x01
    3e06:	68 83       	st	Y, r22
    3e08:	c5 51       	subi	r28, 0x15	; 21
    3e0a:	d3 40       	sbci	r29, 0x03	; 3
	ppm5[82] =	606;
    3e0c:	6e e5       	ldi	r22, 0x5E	; 94
    3e0e:	72 e0       	ldi	r23, 0x02	; 2
    3e10:	c9 5e       	subi	r28, 0xE9	; 233
    3e12:	dc 4f       	sbci	r29, 0xFC	; 252
    3e14:	79 83       	std	Y+1, r23	; 0x01
    3e16:	68 83       	st	Y, r22
    3e18:	c7 51       	subi	r28, 0x17	; 23
    3e1a:	d3 40       	sbci	r29, 0x03	; 3
	ppm5[83] =	594;
    3e1c:	62 e5       	ldi	r22, 0x52	; 82
    3e1e:	72 e0       	ldi	r23, 0x02	; 2
    3e20:	c7 5e       	subi	r28, 0xE7	; 231
    3e22:	dc 4f       	sbci	r29, 0xFC	; 252
    3e24:	79 83       	std	Y+1, r23	; 0x01
    3e26:	68 83       	st	Y, r22
    3e28:	c9 51       	subi	r28, 0x19	; 25
    3e2a:	d3 40       	sbci	r29, 0x03	; 3
	ppm5[84] =	582;
    3e2c:	66 e4       	ldi	r22, 0x46	; 70
    3e2e:	72 e0       	ldi	r23, 0x02	; 2
    3e30:	c5 5e       	subi	r28, 0xE5	; 229
    3e32:	dc 4f       	sbci	r29, 0xFC	; 252
    3e34:	79 83       	std	Y+1, r23	; 0x01
    3e36:	68 83       	st	Y, r22
    3e38:	cb 51       	subi	r28, 0x1B	; 27
    3e3a:	d3 40       	sbci	r29, 0x03	; 3
	ppm5[85] =	571;
    3e3c:	6b e3       	ldi	r22, 0x3B	; 59
    3e3e:	72 e0       	ldi	r23, 0x02	; 2
    3e40:	c3 5e       	subi	r28, 0xE3	; 227
    3e42:	dc 4f       	sbci	r29, 0xFC	; 252
    3e44:	79 83       	std	Y+1, r23	; 0x01
    3e46:	68 83       	st	Y, r22
    3e48:	cd 51       	subi	r28, 0x1D	; 29
    3e4a:	d3 40       	sbci	r29, 0x03	; 3
	ppm5[86] =	559;
    3e4c:	6f e2       	ldi	r22, 0x2F	; 47
    3e4e:	72 e0       	ldi	r23, 0x02	; 2
    3e50:	c1 5e       	subi	r28, 0xE1	; 225
    3e52:	dc 4f       	sbci	r29, 0xFC	; 252
    3e54:	79 83       	std	Y+1, r23	; 0x01
    3e56:	68 83       	st	Y, r22
    3e58:	cf 51       	subi	r28, 0x1F	; 31
    3e5a:	d3 40       	sbci	r29, 0x03	; 3
	ppm5[87] =	549;
    3e5c:	65 e2       	ldi	r22, 0x25	; 37
    3e5e:	72 e0       	ldi	r23, 0x02	; 2
    3e60:	cf 5d       	subi	r28, 0xDF	; 223
    3e62:	dc 4f       	sbci	r29, 0xFC	; 252
    3e64:	79 83       	std	Y+1, r23	; 0x01
    3e66:	68 83       	st	Y, r22
    3e68:	c1 52       	subi	r28, 0x21	; 33
    3e6a:	d3 40       	sbci	r29, 0x03	; 3
	ppm5[88] =	538;
    3e6c:	6a e1       	ldi	r22, 0x1A	; 26
    3e6e:	72 e0       	ldi	r23, 0x02	; 2
    3e70:	cd 5d       	subi	r28, 0xDD	; 221
    3e72:	dc 4f       	sbci	r29, 0xFC	; 252
    3e74:	79 83       	std	Y+1, r23	; 0x01
    3e76:	68 83       	st	Y, r22
    3e78:	c3 52       	subi	r28, 0x23	; 35
    3e7a:	d3 40       	sbci	r29, 0x03	; 3
	ppm5[89] =	528;
    3e7c:	60 e1       	ldi	r22, 0x10	; 16
    3e7e:	72 e0       	ldi	r23, 0x02	; 2
    3e80:	cb 5d       	subi	r28, 0xDB	; 219
    3e82:	dc 4f       	sbci	r29, 0xFC	; 252
    3e84:	79 83       	std	Y+1, r23	; 0x01
    3e86:	68 83       	st	Y, r22
    3e88:	c5 52       	subi	r28, 0x25	; 37
    3e8a:	d3 40       	sbci	r29, 0x03	; 3
	ppm5[90] =	517;
    3e8c:	65 e0       	ldi	r22, 0x05	; 5
    3e8e:	72 e0       	ldi	r23, 0x02	; 2
    3e90:	c9 5d       	subi	r28, 0xD9	; 217
    3e92:	dc 4f       	sbci	r29, 0xFC	; 252
    3e94:	79 83       	std	Y+1, r23	; 0x01
    3e96:	68 83       	st	Y, r22
    3e98:	c7 52       	subi	r28, 0x27	; 39
    3e9a:	d3 40       	sbci	r29, 0x03	; 3
	ppm5[91] =	508;
    3e9c:	6c ef       	ldi	r22, 0xFC	; 252
    3e9e:	71 e0       	ldi	r23, 0x01	; 1
    3ea0:	c7 5d       	subi	r28, 0xD7	; 215
    3ea2:	dc 4f       	sbci	r29, 0xFC	; 252
    3ea4:	79 83       	std	Y+1, r23	; 0x01
    3ea6:	68 83       	st	Y, r22
    3ea8:	c9 52       	subi	r28, 0x29	; 41
    3eaa:	d3 40       	sbci	r29, 0x03	; 3
	ppm5[92] =	498;
    3eac:	62 ef       	ldi	r22, 0xF2	; 242
    3eae:	71 e0       	ldi	r23, 0x01	; 1
    3eb0:	c5 5d       	subi	r28, 0xD5	; 213
    3eb2:	dc 4f       	sbci	r29, 0xFC	; 252
    3eb4:	79 83       	std	Y+1, r23	; 0x01
    3eb6:	68 83       	st	Y, r22
    3eb8:	cb 52       	subi	r28, 0x2B	; 43
    3eba:	d3 40       	sbci	r29, 0x03	; 3
	ppm5[93] =	489;
    3ebc:	69 ee       	ldi	r22, 0xE9	; 233
    3ebe:	71 e0       	ldi	r23, 0x01	; 1
    3ec0:	c3 5d       	subi	r28, 0xD3	; 211
    3ec2:	dc 4f       	sbci	r29, 0xFC	; 252
    3ec4:	79 83       	std	Y+1, r23	; 0x01
    3ec6:	68 83       	st	Y, r22
    3ec8:	cd 52       	subi	r28, 0x2D	; 45
    3eca:	d3 40       	sbci	r29, 0x03	; 3
	ppm5[94] =	480;
    3ecc:	60 ee       	ldi	r22, 0xE0	; 224
    3ece:	71 e0       	ldi	r23, 0x01	; 1
    3ed0:	c1 5d       	subi	r28, 0xD1	; 209
    3ed2:	dc 4f       	sbci	r29, 0xFC	; 252
    3ed4:	79 83       	std	Y+1, r23	; 0x01
    3ed6:	68 83       	st	Y, r22
    3ed8:	cf 52       	subi	r28, 0x2F	; 47
    3eda:	d3 40       	sbci	r29, 0x03	; 3
	ppm5[95] =	471;
    3edc:	67 ed       	ldi	r22, 0xD7	; 215
    3ede:	71 e0       	ldi	r23, 0x01	; 1
    3ee0:	cf 5c       	subi	r28, 0xCF	; 207
    3ee2:	dc 4f       	sbci	r29, 0xFC	; 252
    3ee4:	79 83       	std	Y+1, r23	; 0x01
    3ee6:	68 83       	st	Y, r22
    3ee8:	c1 53       	subi	r28, 0x31	; 49
    3eea:	d3 40       	sbci	r29, 0x03	; 3
	ppm5[96] =	462;
    3eec:	6e ec       	ldi	r22, 0xCE	; 206
    3eee:	71 e0       	ldi	r23, 0x01	; 1
    3ef0:	cd 5c       	subi	r28, 0xCD	; 205
    3ef2:	dc 4f       	sbci	r29, 0xFC	; 252
    3ef4:	79 83       	std	Y+1, r23	; 0x01
    3ef6:	68 83       	st	Y, r22
    3ef8:	c3 53       	subi	r28, 0x33	; 51
    3efa:	d3 40       	sbci	r29, 0x03	; 3
	ppm5[97] =	454;
    3efc:	66 ec       	ldi	r22, 0xC6	; 198
    3efe:	71 e0       	ldi	r23, 0x01	; 1
    3f00:	cb 5c       	subi	r28, 0xCB	; 203
    3f02:	dc 4f       	sbci	r29, 0xFC	; 252
    3f04:	79 83       	std	Y+1, r23	; 0x01
    3f06:	68 83       	st	Y, r22
    3f08:	c5 53       	subi	r28, 0x35	; 53
    3f0a:	d3 40       	sbci	r29, 0x03	; 3
	ppm5[98] =	446;
    3f0c:	c9 5c       	subi	r28, 0xC9	; 201
    3f0e:	dc 4f       	sbci	r29, 0xFC	; 252
    3f10:	59 83       	std	Y+1, r21	; 0x01
    3f12:	48 83       	st	Y, r20
    3f14:	c7 53       	subi	r28, 0x37	; 55
    3f16:	d3 40       	sbci	r29, 0x03	; 3
	ppm5[99] =	438;
    3f18:	c7 5c       	subi	r28, 0xC7	; 199
    3f1a:	dc 4f       	sbci	r29, 0xFC	; 252
    3f1c:	39 83       	std	Y+1, r19	; 0x01
    3f1e:	28 83       	st	Y, r18
    3f20:	c9 53       	subi	r28, 0x39	; 57
    3f22:	d3 40       	sbci	r29, 0x03	; 3
	ppm5[100] =	430;
    3f24:	c5 5c       	subi	r28, 0xC5	; 197
    3f26:	dc 4f       	sbci	r29, 0xFC	; 252
    3f28:	99 83       	std	Y+1, r25	; 0x01
    3f2a:	88 83       	st	Y, r24
    3f2c:	cb 53       	subi	r28, 0x3B	; 59
    3f2e:	d3 40       	sbci	r29, 0x03	; 3
	ppm5[101] =	422;
    3f30:	86 ea       	ldi	r24, 0xA6	; 166
    3f32:	91 e0       	ldi	r25, 0x01	; 1
    3f34:	c3 5c       	subi	r28, 0xC3	; 195
    3f36:	dc 4f       	sbci	r29, 0xFC	; 252
    3f38:	99 83       	std	Y+1, r25	; 0x01
    3f3a:	88 83       	st	Y, r24
    3f3c:	cd 53       	subi	r28, 0x3D	; 61
    3f3e:	d3 40       	sbci	r29, 0x03	; 3
	ppm5[102] =	415;
    3f40:	8f e9       	ldi	r24, 0x9F	; 159
    3f42:	91 e0       	ldi	r25, 0x01	; 1
    3f44:	c1 5c       	subi	r28, 0xC1	; 193
    3f46:	dc 4f       	sbci	r29, 0xFC	; 252
    3f48:	99 83       	std	Y+1, r25	; 0x01
    3f4a:	88 83       	st	Y, r24
    3f4c:	cf 53       	subi	r28, 0x3F	; 63
    3f4e:	d3 40       	sbci	r29, 0x03	; 3
	ppm5[103] =	408;
    3f50:	88 e9       	ldi	r24, 0x98	; 152
    3f52:	91 e0       	ldi	r25, 0x01	; 1
    3f54:	cf 5b       	subi	r28, 0xBF	; 191
    3f56:	dc 4f       	sbci	r29, 0xFC	; 252
    3f58:	99 83       	std	Y+1, r25	; 0x01
    3f5a:	88 83       	st	Y, r24
    3f5c:	c1 54       	subi	r28, 0x41	; 65
    3f5e:	d3 40       	sbci	r29, 0x03	; 3
	ppm5[104] =	401;
    3f60:	81 e9       	ldi	r24, 0x91	; 145
    3f62:	91 e0       	ldi	r25, 0x01	; 1
    3f64:	cd 5b       	subi	r28, 0xBD	; 189
    3f66:	dc 4f       	sbci	r29, 0xFC	; 252
    3f68:	99 83       	std	Y+1, r25	; 0x01
    3f6a:	88 83       	st	Y, r24
    3f6c:	c3 54       	subi	r28, 0x43	; 67
    3f6e:	d3 40       	sbci	r29, 0x03	; 3
	ppm5[105] =	394;
    3f70:	8a e8       	ldi	r24, 0x8A	; 138
    3f72:	91 e0       	ldi	r25, 0x01	; 1
    3f74:	cb 5b       	subi	r28, 0xBB	; 187
    3f76:	dc 4f       	sbci	r29, 0xFC	; 252
    3f78:	99 83       	std	Y+1, r25	; 0x01
    3f7a:	88 83       	st	Y, r24
    3f7c:	c5 54       	subi	r28, 0x45	; 69
    3f7e:	d3 40       	sbci	r29, 0x03	; 3
	ppm5[106] =	387;
    3f80:	83 e8       	ldi	r24, 0x83	; 131
    3f82:	91 e0       	ldi	r25, 0x01	; 1
    3f84:	c9 5b       	subi	r28, 0xB9	; 185
    3f86:	dc 4f       	sbci	r29, 0xFC	; 252
    3f88:	99 83       	std	Y+1, r25	; 0x01
    3f8a:	88 83       	st	Y, r24
    3f8c:	c7 54       	subi	r28, 0x47	; 71
    3f8e:	d3 40       	sbci	r29, 0x03	; 3
	ppm5[107] =	380;
    3f90:	8c e7       	ldi	r24, 0x7C	; 124
    3f92:	91 e0       	ldi	r25, 0x01	; 1
    3f94:	c7 5b       	subi	r28, 0xB7	; 183
    3f96:	dc 4f       	sbci	r29, 0xFC	; 252
    3f98:	99 83       	std	Y+1, r25	; 0x01
    3f9a:	88 83       	st	Y, r24
    3f9c:	c9 54       	subi	r28, 0x49	; 73
    3f9e:	d3 40       	sbci	r29, 0x03	; 3
	ppm5[108] =	374;
    3fa0:	86 e7       	ldi	r24, 0x76	; 118
    3fa2:	91 e0       	ldi	r25, 0x01	; 1
    3fa4:	c5 5b       	subi	r28, 0xB5	; 181
    3fa6:	dc 4f       	sbci	r29, 0xFC	; 252
    3fa8:	99 83       	std	Y+1, r25	; 0x01
    3faa:	88 83       	st	Y, r24
    3fac:	cb 54       	subi	r28, 0x4B	; 75
    3fae:	d3 40       	sbci	r29, 0x03	; 3
	ppm5[109] =	368;
    3fb0:	80 e7       	ldi	r24, 0x70	; 112
    3fb2:	91 e0       	ldi	r25, 0x01	; 1
    3fb4:	c3 5b       	subi	r28, 0xB3	; 179
    3fb6:	dc 4f       	sbci	r29, 0xFC	; 252
    3fb8:	99 83       	std	Y+1, r25	; 0x01
    3fba:	88 83       	st	Y, r24
    3fbc:	cd 54       	subi	r28, 0x4D	; 77
    3fbe:	d3 40       	sbci	r29, 0x03	; 3
	ppm5[110] =	362;
    3fc0:	8a e6       	ldi	r24, 0x6A	; 106
    3fc2:	91 e0       	ldi	r25, 0x01	; 1
    3fc4:	c1 5b       	subi	r28, 0xB1	; 177
    3fc6:	dc 4f       	sbci	r29, 0xFC	; 252
    3fc8:	99 83       	std	Y+1, r25	; 0x01
    3fca:	88 83       	st	Y, r24
    3fcc:	cf 54       	subi	r28, 0x4F	; 79
    3fce:	d3 40       	sbci	r29, 0x03	; 3
	ppm5[111] =	356;
    3fd0:	84 e6       	ldi	r24, 0x64	; 100
    3fd2:	91 e0       	ldi	r25, 0x01	; 1
    3fd4:	cf 5a       	subi	r28, 0xAF	; 175
    3fd6:	dc 4f       	sbci	r29, 0xFC	; 252
    3fd8:	99 83       	std	Y+1, r25	; 0x01
    3fda:	88 83       	st	Y, r24
    3fdc:	c1 55       	subi	r28, 0x51	; 81
    3fde:	d3 40       	sbci	r29, 0x03	; 3
	ppm5[112] =	350;
    3fe0:	8e e5       	ldi	r24, 0x5E	; 94
    3fe2:	91 e0       	ldi	r25, 0x01	; 1
    3fe4:	cd 5a       	subi	r28, 0xAD	; 173
    3fe6:	dc 4f       	sbci	r29, 0xFC	; 252
    3fe8:	99 83       	std	Y+1, r25	; 0x01
    3fea:	88 83       	st	Y, r24
    3fec:	c3 55       	subi	r28, 0x53	; 83
    3fee:	d3 40       	sbci	r29, 0x03	; 3
	ppm5[113] =	344;
    3ff0:	88 e5       	ldi	r24, 0x58	; 88
    3ff2:	91 e0       	ldi	r25, 0x01	; 1
    3ff4:	cb 5a       	subi	r28, 0xAB	; 171
    3ff6:	dc 4f       	sbci	r29, 0xFC	; 252
    3ff8:	99 83       	std	Y+1, r25	; 0x01
    3ffa:	88 83       	st	Y, r24
    3ffc:	c5 55       	subi	r28, 0x55	; 85
    3ffe:	d3 40       	sbci	r29, 0x03	; 3
	ppm5[114] =	339;
    4000:	83 e5       	ldi	r24, 0x53	; 83
    4002:	91 e0       	ldi	r25, 0x01	; 1
    4004:	c9 5a       	subi	r28, 0xA9	; 169
    4006:	dc 4f       	sbci	r29, 0xFC	; 252
    4008:	99 83       	std	Y+1, r25	; 0x01
    400a:	88 83       	st	Y, r24
    400c:	c7 55       	subi	r28, 0x57	; 87
    400e:	d3 40       	sbci	r29, 0x03	; 3
	ppm5[115] =	333;
    4010:	8d e4       	ldi	r24, 0x4D	; 77
    4012:	91 e0       	ldi	r25, 0x01	; 1
    4014:	c7 5a       	subi	r28, 0xA7	; 167
    4016:	dc 4f       	sbci	r29, 0xFC	; 252
    4018:	99 83       	std	Y+1, r25	; 0x01
    401a:	88 83       	st	Y, r24
    401c:	c9 55       	subi	r28, 0x59	; 89
    401e:	d3 40       	sbci	r29, 0x03	; 3
	ppm5[116] =	328;
    4020:	88 e4       	ldi	r24, 0x48	; 72
    4022:	91 e0       	ldi	r25, 0x01	; 1
    4024:	c5 5a       	subi	r28, 0xA5	; 165
    4026:	dc 4f       	sbci	r29, 0xFC	; 252
    4028:	99 83       	std	Y+1, r25	; 0x01
    402a:	88 83       	st	Y, r24
    402c:	cb 55       	subi	r28, 0x5B	; 91
    402e:	d3 40       	sbci	r29, 0x03	; 3
	ppm5[117] =	323;
    4030:	83 e4       	ldi	r24, 0x43	; 67
    4032:	91 e0       	ldi	r25, 0x01	; 1
    4034:	c3 5a       	subi	r28, 0xA3	; 163
    4036:	dc 4f       	sbci	r29, 0xFC	; 252
    4038:	99 83       	std	Y+1, r25	; 0x01
    403a:	88 83       	st	Y, r24
    403c:	cd 55       	subi	r28, 0x5D	; 93
    403e:	d3 40       	sbci	r29, 0x03	; 3
	ppm5[118] =	317;
    4040:	8d e3       	ldi	r24, 0x3D	; 61
    4042:	91 e0       	ldi	r25, 0x01	; 1
    4044:	c1 5a       	subi	r28, 0xA1	; 161
    4046:	dc 4f       	sbci	r29, 0xFC	; 252
    4048:	99 83       	std	Y+1, r25	; 0x01
    404a:	88 83       	st	Y, r24
    404c:	cf 55       	subi	r28, 0x5F	; 95
    404e:	d3 40       	sbci	r29, 0x03	; 3
	ppm5[119] =	312;
    4050:	88 e3       	ldi	r24, 0x38	; 56
    4052:	91 e0       	ldi	r25, 0x01	; 1
    4054:	cf 59       	subi	r28, 0x9F	; 159
    4056:	dc 4f       	sbci	r29, 0xFC	; 252
    4058:	99 83       	std	Y+1, r25	; 0x01
    405a:	88 83       	st	Y, r24
    405c:	c1 56       	subi	r28, 0x61	; 97
    405e:	d3 40       	sbci	r29, 0x03	; 3
	ppm5[120] =	308;
    4060:	84 e3       	ldi	r24, 0x34	; 52
    4062:	91 e0       	ldi	r25, 0x01	; 1
    4064:	cd 59       	subi	r28, 0x9D	; 157
    4066:	dc 4f       	sbci	r29, 0xFC	; 252
    4068:	99 83       	std	Y+1, r25	; 0x01
    406a:	88 83       	st	Y, r24
    406c:	c3 56       	subi	r28, 0x63	; 99
    406e:	d3 40       	sbci	r29, 0x03	; 3
	ppm5[121] =	303;
    4070:	8f e2       	ldi	r24, 0x2F	; 47
    4072:	91 e0       	ldi	r25, 0x01	; 1
    4074:	cb 59       	subi	r28, 0x9B	; 155
    4076:	dc 4f       	sbci	r29, 0xFC	; 252
    4078:	99 83       	std	Y+1, r25	; 0x01
    407a:	88 83       	st	Y, r24
    407c:	c5 56       	subi	r28, 0x65	; 101
    407e:	d3 40       	sbci	r29, 0x03	; 3
	ppm5[122] =	298;
    4080:	8a e2       	ldi	r24, 0x2A	; 42
    4082:	91 e0       	ldi	r25, 0x01	; 1
    4084:	c9 59       	subi	r28, 0x99	; 153
    4086:	dc 4f       	sbci	r29, 0xFC	; 252
    4088:	99 83       	std	Y+1, r25	; 0x01
    408a:	88 83       	st	Y, r24
    408c:	c7 56       	subi	r28, 0x67	; 103
    408e:	d3 40       	sbci	r29, 0x03	; 3
	ppm5[123] =	294;
    4090:	86 e2       	ldi	r24, 0x26	; 38
    4092:	91 e0       	ldi	r25, 0x01	; 1
    4094:	c7 59       	subi	r28, 0x97	; 151
    4096:	dc 4f       	sbci	r29, 0xFC	; 252
    4098:	99 83       	std	Y+1, r25	; 0x01
    409a:	88 83       	st	Y, r24
    409c:	c9 56       	subi	r28, 0x69	; 105
    409e:	d3 40       	sbci	r29, 0x03	; 3
	ppm5[124] =	289;
    40a0:	81 e2       	ldi	r24, 0x21	; 33
    40a2:	91 e0       	ldi	r25, 0x01	; 1
    40a4:	c5 59       	subi	r28, 0x95	; 149
    40a6:	dc 4f       	sbci	r29, 0xFC	; 252
    40a8:	99 83       	std	Y+1, r25	; 0x01
    40aa:	88 83       	st	Y, r24
    40ac:	cb 56       	subi	r28, 0x6B	; 107
    40ae:	d3 40       	sbci	r29, 0x03	; 3
	ppm5[125] =	285;
    40b0:	8d e1       	ldi	r24, 0x1D	; 29
    40b2:	91 e0       	ldi	r25, 0x01	; 1
    40b4:	c3 59       	subi	r28, 0x93	; 147
    40b6:	dc 4f       	sbci	r29, 0xFC	; 252
    40b8:	99 83       	std	Y+1, r25	; 0x01
    40ba:	88 83       	st	Y, r24
    40bc:	cd 56       	subi	r28, 0x6D	; 109
    40be:	d3 40       	sbci	r29, 0x03	; 3
	ppm5[126] =	280;
    40c0:	88 e1       	ldi	r24, 0x18	; 24
    40c2:	91 e0       	ldi	r25, 0x01	; 1
    40c4:	c1 59       	subi	r28, 0x91	; 145
    40c6:	dc 4f       	sbci	r29, 0xFC	; 252
    40c8:	99 83       	std	Y+1, r25	; 0x01
    40ca:	88 83       	st	Y, r24
    40cc:	cf 56       	subi	r28, 0x6F	; 111
    40ce:	d3 40       	sbci	r29, 0x03	; 3
	ppm5[127] =	276;
    40d0:	84 e1       	ldi	r24, 0x14	; 20
    40d2:	91 e0       	ldi	r25, 0x01	; 1
    40d4:	cf 58       	subi	r28, 0x8F	; 143
    40d6:	dc 4f       	sbci	r29, 0xFC	; 252
    40d8:	99 83       	std	Y+1, r25	; 0x01
    40da:	88 83       	st	Y, r24
    40dc:	c1 57       	subi	r28, 0x71	; 113
    40de:	d3 40       	sbci	r29, 0x03	; 3
	ppm5[128] =	272;
    40e0:	80 e1       	ldi	r24, 0x10	; 16
    40e2:	91 e0       	ldi	r25, 0x01	; 1
    40e4:	cd 58       	subi	r28, 0x8D	; 141
    40e6:	dc 4f       	sbci	r29, 0xFC	; 252
    40e8:	99 83       	std	Y+1, r25	; 0x01
    40ea:	88 83       	st	Y, r24
    40ec:	c3 57       	subi	r28, 0x73	; 115
    40ee:	d3 40       	sbci	r29, 0x03	; 3
	ppm5[129] =	268;
    40f0:	8c e0       	ldi	r24, 0x0C	; 12
    40f2:	91 e0       	ldi	r25, 0x01	; 1
    40f4:	cb 58       	subi	r28, 0x8B	; 139
    40f6:	dc 4f       	sbci	r29, 0xFC	; 252
    40f8:	99 83       	std	Y+1, r25	; 0x01
    40fa:	88 83       	st	Y, r24
    40fc:	c5 57       	subi	r28, 0x75	; 117
    40fe:	d3 40       	sbci	r29, 0x03	; 3
	ppm5[130] =	264;
    4100:	88 e0       	ldi	r24, 0x08	; 8
    4102:	91 e0       	ldi	r25, 0x01	; 1
    4104:	c9 58       	subi	r28, 0x89	; 137
    4106:	dc 4f       	sbci	r29, 0xFC	; 252
    4108:	99 83       	std	Y+1, r25	; 0x01
    410a:	88 83       	st	Y, r24
    410c:	c7 57       	subi	r28, 0x77	; 119
    410e:	d3 40       	sbci	r29, 0x03	; 3
	ppm5[131] =	260;
    4110:	84 e0       	ldi	r24, 0x04	; 4
    4112:	91 e0       	ldi	r25, 0x01	; 1
    4114:	c7 58       	subi	r28, 0x87	; 135
    4116:	dc 4f       	sbci	r29, 0xFC	; 252
    4118:	99 83       	std	Y+1, r25	; 0x01
    411a:	88 83       	st	Y, r24
    411c:	c9 57       	subi	r28, 0x79	; 121
    411e:	d3 40       	sbci	r29, 0x03	; 3
	ppm5[132] =	256;
    4120:	80 e0       	ldi	r24, 0x00	; 0
    4122:	91 e0       	ldi	r25, 0x01	; 1
    4124:	c5 58       	subi	r28, 0x85	; 133
    4126:	dc 4f       	sbci	r29, 0xFC	; 252
    4128:	99 83       	std	Y+1, r25	; 0x01
    412a:	88 83       	st	Y, r24
    412c:	cb 57       	subi	r28, 0x7B	; 123
    412e:	d3 40       	sbci	r29, 0x03	; 3
	ppm5[133] =	253;
    4130:	8d ef       	ldi	r24, 0xFD	; 253
    4132:	90 e0       	ldi	r25, 0x00	; 0
    4134:	c3 58       	subi	r28, 0x83	; 131
    4136:	dc 4f       	sbci	r29, 0xFC	; 252
    4138:	99 83       	std	Y+1, r25	; 0x01
    413a:	88 83       	st	Y, r24
    413c:	cd 57       	subi	r28, 0x7D	; 125
    413e:	d3 40       	sbci	r29, 0x03	; 3
	ppm5[134] =	249;
    4140:	89 ef       	ldi	r24, 0xF9	; 249
    4142:	90 e0       	ldi	r25, 0x00	; 0
    4144:	c1 58       	subi	r28, 0x81	; 129
    4146:	dc 4f       	sbci	r29, 0xFC	; 252
    4148:	99 83       	std	Y+1, r25	; 0x01
    414a:	88 83       	st	Y, r24
    414c:	cf 57       	subi	r28, 0x7F	; 127
    414e:	d3 40       	sbci	r29, 0x03	; 3
	ppm5[135] =	246;
    4150:	86 ef       	ldi	r24, 0xF6	; 246
    4152:	90 e0       	ldi	r25, 0x00	; 0
    4154:	cf 57       	subi	r28, 0x7F	; 127
    4156:	dc 4f       	sbci	r29, 0xFC	; 252
    4158:	99 83       	std	Y+1, r25	; 0x01
    415a:	88 83       	st	Y, r24
    415c:	c1 58       	subi	r28, 0x81	; 129
    415e:	d3 40       	sbci	r29, 0x03	; 3
	ppm5[136] =	242;
    4160:	82 ef       	ldi	r24, 0xF2	; 242
    4162:	90 e0       	ldi	r25, 0x00	; 0
    4164:	cd 57       	subi	r28, 0x7D	; 125
    4166:	dc 4f       	sbci	r29, 0xFC	; 252
    4168:	99 83       	std	Y+1, r25	; 0x01
    416a:	88 83       	st	Y, r24
    416c:	c3 58       	subi	r28, 0x83	; 131
    416e:	d3 40       	sbci	r29, 0x03	; 3
	ppm5[137] =	239;
    4170:	8f ee       	ldi	r24, 0xEF	; 239
    4172:	90 e0       	ldi	r25, 0x00	; 0
    4174:	cb 57       	subi	r28, 0x7B	; 123
    4176:	dc 4f       	sbci	r29, 0xFC	; 252
    4178:	99 83       	std	Y+1, r25	; 0x01
    417a:	88 83       	st	Y, r24
    417c:	c5 58       	subi	r28, 0x85	; 133
    417e:	d3 40       	sbci	r29, 0x03	; 3
	ppm5[138] =	235;
    4180:	8b ee       	ldi	r24, 0xEB	; 235
    4182:	90 e0       	ldi	r25, 0x00	; 0
    4184:	c9 57       	subi	r28, 0x79	; 121
    4186:	dc 4f       	sbci	r29, 0xFC	; 252
    4188:	99 83       	std	Y+1, r25	; 0x01
    418a:	88 83       	st	Y, r24
    418c:	c7 58       	subi	r28, 0x87	; 135
    418e:	d3 40       	sbci	r29, 0x03	; 3
	ppm5[139] =	232;
    4190:	28 ee       	ldi	r18, 0xE8	; 232
    4192:	30 e0       	ldi	r19, 0x00	; 0
    4194:	c7 57       	subi	r28, 0x77	; 119
    4196:	dc 4f       	sbci	r29, 0xFC	; 252
    4198:	39 83       	std	Y+1, r19	; 0x01
    419a:	28 83       	st	Y, r18
    419c:	c9 58       	subi	r28, 0x89	; 137
    419e:	d3 40       	sbci	r29, 0x03	; 3
	ppm5[140] =	229;
    41a0:	85 ee       	ldi	r24, 0xE5	; 229
    41a2:	90 e0       	ldi	r25, 0x00	; 0
    41a4:	c5 57       	subi	r28, 0x75	; 117
    41a6:	dc 4f       	sbci	r29, 0xFC	; 252
    41a8:	99 83       	std	Y+1, r25	; 0x01
    41aa:	88 83       	st	Y, r24
    41ac:	cb 58       	subi	r28, 0x8B	; 139
    41ae:	d3 40       	sbci	r29, 0x03	; 3
	ppm5[141] =	226;
    41b0:	82 ee       	ldi	r24, 0xE2	; 226
    41b2:	90 e0       	ldi	r25, 0x00	; 0
    41b4:	c3 57       	subi	r28, 0x73	; 115
    41b6:	dc 4f       	sbci	r29, 0xFC	; 252
    41b8:	99 83       	std	Y+1, r25	; 0x01
    41ba:	88 83       	st	Y, r24
    41bc:	cd 58       	subi	r28, 0x8D	; 141
    41be:	d3 40       	sbci	r29, 0x03	; 3
	ppm5[142] =	222;
    41c0:	4e ed       	ldi	r20, 0xDE	; 222
    41c2:	50 e0       	ldi	r21, 0x00	; 0
    41c4:	c1 57       	subi	r28, 0x71	; 113
    41c6:	dc 4f       	sbci	r29, 0xFC	; 252
    41c8:	59 83       	std	Y+1, r21	; 0x01
    41ca:	48 83       	st	Y, r20
    41cc:	cf 58       	subi	r28, 0x8F	; 143
    41ce:	d3 40       	sbci	r29, 0x03	; 3
	ppm5[143] =	219;
    41d0:	4b ed       	ldi	r20, 0xDB	; 219
    41d2:	50 e0       	ldi	r21, 0x00	; 0
    41d4:	cf 56       	subi	r28, 0x6F	; 111
    41d6:	dc 4f       	sbci	r29, 0xFC	; 252
    41d8:	59 83       	std	Y+1, r21	; 0x01
    41da:	48 83       	st	Y, r20
    41dc:	c1 59       	subi	r28, 0x91	; 145
    41de:	d3 40       	sbci	r29, 0x03	; 3
	ppm5[144] =	216;
    41e0:	48 ed       	ldi	r20, 0xD8	; 216
    41e2:	50 e0       	ldi	r21, 0x00	; 0
    41e4:	cd 56       	subi	r28, 0x6D	; 109
    41e6:	dc 4f       	sbci	r29, 0xFC	; 252
    41e8:	59 83       	std	Y+1, r21	; 0x01
    41ea:	48 83       	st	Y, r20
    41ec:	c3 59       	subi	r28, 0x93	; 147
    41ee:	d3 40       	sbci	r29, 0x03	; 3
	ppm5[145] =	214;
    41f0:	46 ed       	ldi	r20, 0xD6	; 214
    41f2:	50 e0       	ldi	r21, 0x00	; 0
    41f4:	cb 56       	subi	r28, 0x6B	; 107
    41f6:	dc 4f       	sbci	r29, 0xFC	; 252
    41f8:	59 83       	std	Y+1, r21	; 0x01
    41fa:	48 83       	st	Y, r20
    41fc:	c5 59       	subi	r28, 0x95	; 149
    41fe:	d3 40       	sbci	r29, 0x03	; 3
	ppm5[146] =	211;
    4200:	43 ed       	ldi	r20, 0xD3	; 211
    4202:	50 e0       	ldi	r21, 0x00	; 0
    4204:	c9 56       	subi	r28, 0x69	; 105
    4206:	dc 4f       	sbci	r29, 0xFC	; 252
    4208:	59 83       	std	Y+1, r21	; 0x01
    420a:	48 83       	st	Y, r20
    420c:	c7 59       	subi	r28, 0x97	; 151
    420e:	d3 40       	sbci	r29, 0x03	; 3
	ppm5[147] =	208;
    4210:	40 ed       	ldi	r20, 0xD0	; 208
    4212:	50 e0       	ldi	r21, 0x00	; 0
    4214:	c7 56       	subi	r28, 0x67	; 103
    4216:	dc 4f       	sbci	r29, 0xFC	; 252
    4218:	59 83       	std	Y+1, r21	; 0x01
    421a:	48 83       	st	Y, r20
    421c:	c9 59       	subi	r28, 0x99	; 153
    421e:	d3 40       	sbci	r29, 0x03	; 3
	ppm5[148] =	205;
    4220:	4d ec       	ldi	r20, 0xCD	; 205
    4222:	50 e0       	ldi	r21, 0x00	; 0
    4224:	c5 56       	subi	r28, 0x65	; 101
    4226:	dc 4f       	sbci	r29, 0xFC	; 252
    4228:	59 83       	std	Y+1, r21	; 0x01
    422a:	48 83       	st	Y, r20
    422c:	cb 59       	subi	r28, 0x9B	; 155
    422e:	d3 40       	sbci	r29, 0x03	; 3
	ppm5[149] =	202;
    4230:	4a ec       	ldi	r20, 0xCA	; 202
    4232:	50 e0       	ldi	r21, 0x00	; 0
    4234:	c3 56       	subi	r28, 0x63	; 99
    4236:	dc 4f       	sbci	r29, 0xFC	; 252
    4238:	59 83       	std	Y+1, r21	; 0x01
    423a:	48 83       	st	Y, r20
    423c:	cd 59       	subi	r28, 0x9D	; 157
    423e:	d3 40       	sbci	r29, 0x03	; 3
	ppm5[150] =	200;	
    4240:	48 ec       	ldi	r20, 0xC8	; 200
    4242:	50 e0       	ldi	r21, 0x00	; 0
    4244:	c1 56       	subi	r28, 0x61	; 97
    4246:	dc 4f       	sbci	r29, 0xFC	; 252
    4248:	59 83       	std	Y+1, r21	; 0x01
    424a:	48 83       	st	Y, r20
    424c:	cf 59       	subi	r28, 0x9F	; 159
    424e:	d3 40       	sbci	r29, 0x03	; 3

	int ppm7[151];
	ppm7[0] = 4112;
    4250:	40 e1       	ldi	r20, 0x10	; 16
    4252:	50 e1       	ldi	r21, 0x10	; 16
    4254:	cf 55       	subi	r28, 0x5F	; 95
    4256:	dc 4f       	sbci	r29, 0xFC	; 252
    4258:	59 83       	std	Y+1, r21	; 0x01
    425a:	48 83       	st	Y, r20
    425c:	c1 5a       	subi	r28, 0xA1	; 161
    425e:	d3 40       	sbci	r29, 0x03	; 3
	ppm7[1] = 3495;
    4260:	47 ea       	ldi	r20, 0xA7	; 167
    4262:	5d e0       	ldi	r21, 0x0D	; 13
    4264:	cd 55       	subi	r28, 0x5D	; 93
    4266:	dc 4f       	sbci	r29, 0xFC	; 252
    4268:	59 83       	std	Y+1, r21	; 0x01
    426a:	48 83       	st	Y, r20
    426c:	c3 5a       	subi	r28, 0xA3	; 163
    426e:	d3 40       	sbci	r29, 0x03	; 3
	ppm7[2] = 3017;
    4270:	49 ec       	ldi	r20, 0xC9	; 201
    4272:	5b e0       	ldi	r21, 0x0B	; 11
    4274:	cb 55       	subi	r28, 0x5B	; 91
    4276:	dc 4f       	sbci	r29, 0xFC	; 252
    4278:	59 83       	std	Y+1, r21	; 0x01
    427a:	48 83       	st	Y, r20
    427c:	c5 5a       	subi	r28, 0xA5	; 165
    427e:	d3 40       	sbci	r29, 0x03	; 3
	ppm7[3] = 2638;
    4280:	4e e4       	ldi	r20, 0x4E	; 78
    4282:	5a e0       	ldi	r21, 0x0A	; 10
    4284:	c9 55       	subi	r28, 0x59	; 89
    4286:	dc 4f       	sbci	r29, 0xFC	; 252
    4288:	59 83       	std	Y+1, r21	; 0x01
    428a:	48 83       	st	Y, r20
    428c:	c7 5a       	subi	r28, 0xA7	; 167
    428e:	d3 40       	sbci	r29, 0x03	; 3
	ppm7[4] = 2332;
    4290:	4c e1       	ldi	r20, 0x1C	; 28
    4292:	59 e0       	ldi	r21, 0x09	; 9
    4294:	c7 55       	subi	r28, 0x57	; 87
    4296:	dc 4f       	sbci	r29, 0xFC	; 252
    4298:	59 83       	std	Y+1, r21	; 0x01
    429a:	48 83       	st	Y, r20
    429c:	c9 5a       	subi	r28, 0xA9	; 169
    429e:	d3 40       	sbci	r29, 0x03	; 3
	ppm7[5] = 2080;
    42a0:	40 e2       	ldi	r20, 0x20	; 32
    42a2:	58 e0       	ldi	r21, 0x08	; 8
    42a4:	c5 55       	subi	r28, 0x55	; 85
    42a6:	dc 4f       	sbci	r29, 0xFC	; 252
    42a8:	59 83       	std	Y+1, r21	; 0x01
    42aa:	48 83       	st	Y, r20
    42ac:	cb 5a       	subi	r28, 0xAB	; 171
    42ae:	d3 40       	sbci	r29, 0x03	; 3
	ppm7[6] = 1870;
    42b0:	4e e4       	ldi	r20, 0x4E	; 78
    42b2:	57 e0       	ldi	r21, 0x07	; 7
    42b4:	c3 55       	subi	r28, 0x53	; 83
    42b6:	dc 4f       	sbci	r29, 0xFC	; 252
    42b8:	59 83       	std	Y+1, r21	; 0x01
    42ba:	48 83       	st	Y, r20
    42bc:	cd 5a       	subi	r28, 0xAD	; 173
    42be:	d3 40       	sbci	r29, 0x03	; 3
	ppm7[7] = 1692;
    42c0:	4c e9       	ldi	r20, 0x9C	; 156
    42c2:	56 e0       	ldi	r21, 0x06	; 6
    42c4:	c1 55       	subi	r28, 0x51	; 81
    42c6:	dc 4f       	sbci	r29, 0xFC	; 252
    42c8:	59 83       	std	Y+1, r21	; 0x01
    42ca:	48 83       	st	Y, r20
    42cc:	cf 5a       	subi	r28, 0xAF	; 175
    42ce:	d3 40       	sbci	r29, 0x03	; 3
	ppm7[8] = 1541;
    42d0:	45 e0       	ldi	r20, 0x05	; 5
    42d2:	56 e0       	ldi	r21, 0x06	; 6
    42d4:	cf 54       	subi	r28, 0x4F	; 79
    42d6:	dc 4f       	sbci	r29, 0xFC	; 252
    42d8:	59 83       	std	Y+1, r21	; 0x01
    42da:	48 83       	st	Y, r20
    42dc:	c1 5b       	subi	r28, 0xB1	; 177
    42de:	d3 40       	sbci	r29, 0x03	; 3
	ppm7[9] = 1411;
    42e0:	43 e8       	ldi	r20, 0x83	; 131
    42e2:	55 e0       	ldi	r21, 0x05	; 5
    42e4:	cd 54       	subi	r28, 0x4D	; 77
    42e6:	dc 4f       	sbci	r29, 0xFC	; 252
    42e8:	59 83       	std	Y+1, r21	; 0x01
    42ea:	48 83       	st	Y, r20
    42ec:	c3 5b       	subi	r28, 0xB3	; 179
    42ee:	d3 40       	sbci	r29, 0x03	; 3
	ppm7[10] = 1298;
    42f0:	42 e1       	ldi	r20, 0x12	; 18
    42f2:	55 e0       	ldi	r21, 0x05	; 5
    42f4:	cb 54       	subi	r28, 0x4B	; 75
    42f6:	dc 4f       	sbci	r29, 0xFC	; 252
    42f8:	59 83       	std	Y+1, r21	; 0x01
    42fa:	48 83       	st	Y, r20
    42fc:	c5 5b       	subi	r28, 0xB5	; 181
    42fe:	d3 40       	sbci	r29, 0x03	; 3
	ppm7[11] = 1199;
    4300:	4f ea       	ldi	r20, 0xAF	; 175
    4302:	54 e0       	ldi	r21, 0x04	; 4
    4304:	c9 54       	subi	r28, 0x49	; 73
    4306:	dc 4f       	sbci	r29, 0xFC	; 252
    4308:	59 83       	std	Y+1, r21	; 0x01
    430a:	48 83       	st	Y, r20
    430c:	c7 5b       	subi	r28, 0xB7	; 183
    430e:	d3 40       	sbci	r29, 0x03	; 3
	ppm7[12] = 1112;
    4310:	48 e5       	ldi	r20, 0x58	; 88
    4312:	54 e0       	ldi	r21, 0x04	; 4
    4314:	c7 54       	subi	r28, 0x47	; 71
    4316:	dc 4f       	sbci	r29, 0xFC	; 252
    4318:	59 83       	std	Y+1, r21	; 0x01
    431a:	48 83       	st	Y, r20
    431c:	c9 5b       	subi	r28, 0xB9	; 185
    431e:	d3 40       	sbci	r29, 0x03	; 3
	ppm7[13] = 1035;
    4320:	4b e0       	ldi	r20, 0x0B	; 11
    4322:	54 e0       	ldi	r21, 0x04	; 4
    4324:	c5 54       	subi	r28, 0x45	; 69
    4326:	dc 4f       	sbci	r29, 0xFC	; 252
    4328:	59 83       	std	Y+1, r21	; 0x01
    432a:	48 83       	st	Y, r20
    432c:	cb 5b       	subi	r28, 0xBB	; 187
    432e:	d3 40       	sbci	r29, 0x03	; 3
	ppm7[14] = 967;
    4330:	47 ec       	ldi	r20, 0xC7	; 199
    4332:	53 e0       	ldi	r21, 0x03	; 3
    4334:	c3 54       	subi	r28, 0x43	; 67
    4336:	dc 4f       	sbci	r29, 0xFC	; 252
    4338:	59 83       	std	Y+1, r21	; 0x01
    433a:	48 83       	st	Y, r20
    433c:	cd 5b       	subi	r28, 0xBD	; 189
    433e:	d3 40       	sbci	r29, 0x03	; 3
	ppm7[15] = 905;
    4340:	49 e8       	ldi	r20, 0x89	; 137
    4342:	53 e0       	ldi	r21, 0x03	; 3
    4344:	c1 54       	subi	r28, 0x41	; 65
    4346:	dc 4f       	sbci	r29, 0xFC	; 252
    4348:	59 83       	std	Y+1, r21	; 0x01
    434a:	48 83       	st	Y, r20
    434c:	cf 5b       	subi	r28, 0xBF	; 191
    434e:	d3 40       	sbci	r29, 0x03	; 3
	ppm7[16] = 850;
    4350:	42 e5       	ldi	r20, 0x52	; 82
    4352:	53 e0       	ldi	r21, 0x03	; 3
    4354:	cf 53       	subi	r28, 0x3F	; 63
    4356:	dc 4f       	sbci	r29, 0xFC	; 252
    4358:	59 83       	std	Y+1, r21	; 0x01
    435a:	48 83       	st	Y, r20
    435c:	c1 5c       	subi	r28, 0xC1	; 193
    435e:	d3 40       	sbci	r29, 0x03	; 3
	ppm7[17] = 800;
    4360:	40 e2       	ldi	r20, 0x20	; 32
    4362:	53 e0       	ldi	r21, 0x03	; 3
    4364:	cd 53       	subi	r28, 0x3D	; 61
    4366:	dc 4f       	sbci	r29, 0xFC	; 252
    4368:	59 83       	std	Y+1, r21	; 0x01
    436a:	48 83       	st	Y, r20
    436c:	c3 5c       	subi	r28, 0xC3	; 195
    436e:	d3 40       	sbci	r29, 0x03	; 3
	ppm7[18] = 755;
    4370:	43 ef       	ldi	r20, 0xF3	; 243
    4372:	52 e0       	ldi	r21, 0x02	; 2
    4374:	cb 53       	subi	r28, 0x3B	; 59
    4376:	dc 4f       	sbci	r29, 0xFC	; 252
    4378:	59 83       	std	Y+1, r21	; 0x01
    437a:	48 83       	st	Y, r20
    437c:	c5 5c       	subi	r28, 0xC5	; 197
    437e:	d3 40       	sbci	r29, 0x03	; 3
	ppm7[19] = 714;
    4380:	4a ec       	ldi	r20, 0xCA	; 202
    4382:	52 e0       	ldi	r21, 0x02	; 2
    4384:	c9 53       	subi	r28, 0x39	; 57
    4386:	dc 4f       	sbci	r29, 0xFC	; 252
    4388:	59 83       	std	Y+1, r21	; 0x01
    438a:	48 83       	st	Y, r20
    438c:	c7 5c       	subi	r28, 0xC7	; 199
    438e:	d3 40       	sbci	r29, 0x03	; 3
	ppm7[20] = 676;
    4390:	44 ea       	ldi	r20, 0xA4	; 164
    4392:	52 e0       	ldi	r21, 0x02	; 2
    4394:	c7 53       	subi	r28, 0x37	; 55
    4396:	dc 4f       	sbci	r29, 0xFC	; 252
    4398:	59 83       	std	Y+1, r21	; 0x01
    439a:	48 83       	st	Y, r20
    439c:	c9 5c       	subi	r28, 0xC9	; 201
    439e:	d3 40       	sbci	r29, 0x03	; 3
	ppm7[21] = 641;
    43a0:	41 e8       	ldi	r20, 0x81	; 129
    43a2:	52 e0       	ldi	r21, 0x02	; 2
    43a4:	c5 53       	subi	r28, 0x35	; 53
    43a6:	dc 4f       	sbci	r29, 0xFC	; 252
    43a8:	59 83       	std	Y+1, r21	; 0x01
    43aa:	48 83       	st	Y, r20
    43ac:	cb 5c       	subi	r28, 0xCB	; 203
    43ae:	d3 40       	sbci	r29, 0x03	; 3
	ppm7[22] = 610;
    43b0:	42 e6       	ldi	r20, 0x62	; 98
    43b2:	52 e0       	ldi	r21, 0x02	; 2
    43b4:	c3 53       	subi	r28, 0x33	; 51
    43b6:	dc 4f       	sbci	r29, 0xFC	; 252
    43b8:	59 83       	std	Y+1, r21	; 0x01
    43ba:	48 83       	st	Y, r20
    43bc:	cd 5c       	subi	r28, 0xCD	; 205
    43be:	d3 40       	sbci	r29, 0x03	; 3
	ppm7[23] = 581;
    43c0:	45 e4       	ldi	r20, 0x45	; 69
    43c2:	52 e0       	ldi	r21, 0x02	; 2
    43c4:	c1 53       	subi	r28, 0x31	; 49
    43c6:	dc 4f       	sbci	r29, 0xFC	; 252
    43c8:	59 83       	std	Y+1, r21	; 0x01
    43ca:	48 83       	st	Y, r20
    43cc:	cf 5c       	subi	r28, 0xCF	; 207
    43ce:	d3 40       	sbci	r29, 0x03	; 3
	ppm7[24] = 554;
    43d0:	4a e2       	ldi	r20, 0x2A	; 42
    43d2:	52 e0       	ldi	r21, 0x02	; 2
    43d4:	cf 52       	subi	r28, 0x2F	; 47
    43d6:	dc 4f       	sbci	r29, 0xFC	; 252
    43d8:	59 83       	std	Y+1, r21	; 0x01
    43da:	48 83       	st	Y, r20
    43dc:	c1 5d       	subi	r28, 0xD1	; 209
    43de:	d3 40       	sbci	r29, 0x03	; 3
	ppm7[25] = 529;
    43e0:	41 e1       	ldi	r20, 0x11	; 17
    43e2:	52 e0       	ldi	r21, 0x02	; 2
    43e4:	cd 52       	subi	r28, 0x2D	; 45
    43e6:	dc 4f       	sbci	r29, 0xFC	; 252
    43e8:	59 83       	std	Y+1, r21	; 0x01
    43ea:	48 83       	st	Y, r20
    43ec:	c3 5d       	subi	r28, 0xD3	; 211
    43ee:	d3 40       	sbci	r29, 0x03	; 3
	ppm7[26] = 506;
    43f0:	4a ef       	ldi	r20, 0xFA	; 250
    43f2:	51 e0       	ldi	r21, 0x01	; 1
    43f4:	cb 52       	subi	r28, 0x2B	; 43
    43f6:	dc 4f       	sbci	r29, 0xFC	; 252
    43f8:	59 83       	std	Y+1, r21	; 0x01
    43fa:	48 83       	st	Y, r20
    43fc:	c5 5d       	subi	r28, 0xD5	; 213
    43fe:	d3 40       	sbci	r29, 0x03	; 3
	ppm7[27] = 484;
    4400:	44 ee       	ldi	r20, 0xE4	; 228
    4402:	51 e0       	ldi	r21, 0x01	; 1
    4404:	c9 52       	subi	r28, 0x29	; 41
    4406:	dc 4f       	sbci	r29, 0xFC	; 252
    4408:	59 83       	std	Y+1, r21	; 0x01
    440a:	48 83       	st	Y, r20
    440c:	c7 5d       	subi	r28, 0xD7	; 215
    440e:	d3 40       	sbci	r29, 0x03	; 3
	ppm7[28] = 464;
    4410:	40 ed       	ldi	r20, 0xD0	; 208
    4412:	51 e0       	ldi	r21, 0x01	; 1
    4414:	c7 52       	subi	r28, 0x27	; 39
    4416:	dc 4f       	sbci	r29, 0xFC	; 252
    4418:	59 83       	std	Y+1, r21	; 0x01
    441a:	48 83       	st	Y, r20
    441c:	c9 5d       	subi	r28, 0xD9	; 217
    441e:	d3 40       	sbci	r29, 0x03	; 3
	ppm7[29] = 445;
    4420:	4d eb       	ldi	r20, 0xBD	; 189
    4422:	51 e0       	ldi	r21, 0x01	; 1
    4424:	c5 52       	subi	r28, 0x25	; 37
    4426:	dc 4f       	sbci	r29, 0xFC	; 252
    4428:	59 83       	std	Y+1, r21	; 0x01
    442a:	48 83       	st	Y, r20
    442c:	cb 5d       	subi	r28, 0xDB	; 219
    442e:	d3 40       	sbci	r29, 0x03	; 3
	ppm7[30] = 428;
    4430:	4c ea       	ldi	r20, 0xAC	; 172
    4432:	51 e0       	ldi	r21, 0x01	; 1
    4434:	c3 52       	subi	r28, 0x23	; 35
    4436:	dc 4f       	sbci	r29, 0xFC	; 252
    4438:	59 83       	std	Y+1, r21	; 0x01
    443a:	48 83       	st	Y, r20
    443c:	cd 5d       	subi	r28, 0xDD	; 221
    443e:	d3 40       	sbci	r29, 0x03	; 3
	ppm7[31] = 412;
    4440:	4c e9       	ldi	r20, 0x9C	; 156
    4442:	51 e0       	ldi	r21, 0x01	; 1
    4444:	c1 52       	subi	r28, 0x21	; 33
    4446:	dc 4f       	sbci	r29, 0xFC	; 252
    4448:	59 83       	std	Y+1, r21	; 0x01
    444a:	48 83       	st	Y, r20
    444c:	cf 5d       	subi	r28, 0xDF	; 223
    444e:	d3 40       	sbci	r29, 0x03	; 3
	ppm7[32] = 396;
    4450:	4c e8       	ldi	r20, 0x8C	; 140
    4452:	51 e0       	ldi	r21, 0x01	; 1
    4454:	cf 51       	subi	r28, 0x1F	; 31
    4456:	dc 4f       	sbci	r29, 0xFC	; 252
    4458:	59 83       	std	Y+1, r21	; 0x01
    445a:	48 83       	st	Y, r20
    445c:	c1 5e       	subi	r28, 0xE1	; 225
    445e:	d3 40       	sbci	r29, 0x03	; 3
	ppm7[33] = 382;
    4460:	4e e7       	ldi	r20, 0x7E	; 126
    4462:	51 e0       	ldi	r21, 0x01	; 1
    4464:	cd 51       	subi	r28, 0x1D	; 29
    4466:	dc 4f       	sbci	r29, 0xFC	; 252
    4468:	59 83       	std	Y+1, r21	; 0x01
    446a:	48 83       	st	Y, r20
    446c:	c3 5e       	subi	r28, 0xE3	; 227
    446e:	d3 40       	sbci	r29, 0x03	; 3
	ppm7[34] = 368;
    4470:	40 e7       	ldi	r20, 0x70	; 112
    4472:	51 e0       	ldi	r21, 0x01	; 1
    4474:	cb 51       	subi	r28, 0x1B	; 27
    4476:	dc 4f       	sbci	r29, 0xFC	; 252
    4478:	59 83       	std	Y+1, r21	; 0x01
    447a:	48 83       	st	Y, r20
    447c:	c5 5e       	subi	r28, 0xE5	; 229
    447e:	d3 40       	sbci	r29, 0x03	; 3
	ppm7[35] = 355;
    4480:	43 e6       	ldi	r20, 0x63	; 99
    4482:	51 e0       	ldi	r21, 0x01	; 1
    4484:	c9 51       	subi	r28, 0x19	; 25
    4486:	dc 4f       	sbci	r29, 0xFC	; 252
    4488:	59 83       	std	Y+1, r21	; 0x01
    448a:	48 83       	st	Y, r20
    448c:	c7 5e       	subi	r28, 0xE7	; 231
    448e:	d3 40       	sbci	r29, 0x03	; 3
	ppm7[36] = 343;
    4490:	47 e5       	ldi	r20, 0x57	; 87
    4492:	51 e0       	ldi	r21, 0x01	; 1
    4494:	c7 51       	subi	r28, 0x17	; 23
    4496:	dc 4f       	sbci	r29, 0xFC	; 252
    4498:	59 83       	std	Y+1, r21	; 0x01
    449a:	48 83       	st	Y, r20
    449c:	c9 5e       	subi	r28, 0xE9	; 233
    449e:	d3 40       	sbci	r29, 0x03	; 3
	ppm7[37] = 332;
    44a0:	4c e4       	ldi	r20, 0x4C	; 76
    44a2:	51 e0       	ldi	r21, 0x01	; 1
    44a4:	c5 51       	subi	r28, 0x15	; 21
    44a6:	dc 4f       	sbci	r29, 0xFC	; 252
    44a8:	59 83       	std	Y+1, r21	; 0x01
    44aa:	48 83       	st	Y, r20
    44ac:	cb 5e       	subi	r28, 0xEB	; 235
    44ae:	d3 40       	sbci	r29, 0x03	; 3
	ppm7[38] = 321;
    44b0:	41 e4       	ldi	r20, 0x41	; 65
    44b2:	51 e0       	ldi	r21, 0x01	; 1
    44b4:	c3 51       	subi	r28, 0x13	; 19
    44b6:	dc 4f       	sbci	r29, 0xFC	; 252
    44b8:	59 83       	std	Y+1, r21	; 0x01
    44ba:	48 83       	st	Y, r20
    44bc:	cd 5e       	subi	r28, 0xED	; 237
    44be:	d3 40       	sbci	r29, 0x03	; 3
	ppm7[39] = 311;
    44c0:	47 e3       	ldi	r20, 0x37	; 55
    44c2:	51 e0       	ldi	r21, 0x01	; 1
    44c4:	c1 51       	subi	r28, 0x11	; 17
    44c6:	dc 4f       	sbci	r29, 0xFC	; 252
    44c8:	59 83       	std	Y+1, r21	; 0x01
    44ca:	48 83       	st	Y, r20
    44cc:	cf 5e       	subi	r28, 0xEF	; 239
    44ce:	d3 40       	sbci	r29, 0x03	; 3
	ppm7[40] = 301;
    44d0:	4d e2       	ldi	r20, 0x2D	; 45
    44d2:	51 e0       	ldi	r21, 0x01	; 1
    44d4:	cf 50       	subi	r28, 0x0F	; 15
    44d6:	dc 4f       	sbci	r29, 0xFC	; 252
    44d8:	59 83       	std	Y+1, r21	; 0x01
    44da:	48 83       	st	Y, r20
    44dc:	c1 5f       	subi	r28, 0xF1	; 241
    44de:	d3 40       	sbci	r29, 0x03	; 3
	ppm7[41] = 292;
    44e0:	44 e2       	ldi	r20, 0x24	; 36
    44e2:	51 e0       	ldi	r21, 0x01	; 1
    44e4:	cd 50       	subi	r28, 0x0D	; 13
    44e6:	dc 4f       	sbci	r29, 0xFC	; 252
    44e8:	59 83       	std	Y+1, r21	; 0x01
    44ea:	48 83       	st	Y, r20
    44ec:	c3 5f       	subi	r28, 0xF3	; 243
    44ee:	d3 40       	sbci	r29, 0x03	; 3
	ppm7[42] = 283;
    44f0:	4b e1       	ldi	r20, 0x1B	; 27
    44f2:	51 e0       	ldi	r21, 0x01	; 1
    44f4:	cb 50       	subi	r28, 0x0B	; 11
    44f6:	dc 4f       	sbci	r29, 0xFC	; 252
    44f8:	59 83       	std	Y+1, r21	; 0x01
    44fa:	48 83       	st	Y, r20
    44fc:	c5 5f       	subi	r28, 0xF5	; 245
    44fe:	d3 40       	sbci	r29, 0x03	; 3
	ppm7[43] = 275;
    4500:	43 e1       	ldi	r20, 0x13	; 19
    4502:	51 e0       	ldi	r21, 0x01	; 1
    4504:	c9 50       	subi	r28, 0x09	; 9
    4506:	dc 4f       	sbci	r29, 0xFC	; 252
    4508:	59 83       	std	Y+1, r21	; 0x01
    450a:	48 83       	st	Y, r20
    450c:	c7 5f       	subi	r28, 0xF7	; 247
    450e:	d3 40       	sbci	r29, 0x03	; 3
	ppm7[44] = 267;
    4510:	4b e0       	ldi	r20, 0x0B	; 11
    4512:	51 e0       	ldi	r21, 0x01	; 1
    4514:	c7 50       	subi	r28, 0x07	; 7
    4516:	dc 4f       	sbci	r29, 0xFC	; 252
    4518:	59 83       	std	Y+1, r21	; 0x01
    451a:	48 83       	st	Y, r20
    451c:	c9 5f       	subi	r28, 0xF9	; 249
    451e:	d3 40       	sbci	r29, 0x03	; 3
	ppm7[45] = 259;
    4520:	43 e0       	ldi	r20, 0x03	; 3
    4522:	51 e0       	ldi	r21, 0x01	; 1
    4524:	c5 50       	subi	r28, 0x05	; 5
    4526:	dc 4f       	sbci	r29, 0xFC	; 252
    4528:	59 83       	std	Y+1, r21	; 0x01
    452a:	48 83       	st	Y, r20
    452c:	cb 5f       	subi	r28, 0xFB	; 251
    452e:	d3 40       	sbci	r29, 0x03	; 3
	ppm7[46] = 252;
    4530:	4c ef       	ldi	r20, 0xFC	; 252
    4532:	50 e0       	ldi	r21, 0x00	; 0
    4534:	c3 50       	subi	r28, 0x03	; 3
    4536:	dc 4f       	sbci	r29, 0xFC	; 252
    4538:	59 83       	std	Y+1, r21	; 0x01
    453a:	48 83       	st	Y, r20
    453c:	cd 5f       	subi	r28, 0xFD	; 253
    453e:	d3 40       	sbci	r29, 0x03	; 3
	ppm7[47] = 245;
    4540:	45 ef       	ldi	r20, 0xF5	; 245
    4542:	50 e0       	ldi	r21, 0x00	; 0
    4544:	c1 50       	subi	r28, 0x01	; 1
    4546:	dc 4f       	sbci	r29, 0xFC	; 252
    4548:	59 83       	std	Y+1, r21	; 0x01
    454a:	48 83       	st	Y, r20
    454c:	cf 5f       	subi	r28, 0xFF	; 255
    454e:	d3 40       	sbci	r29, 0x03	; 3
	ppm7[48] = 238;
    4550:	4e ee       	ldi	r20, 0xEE	; 238
    4552:	50 e0       	ldi	r21, 0x00	; 0
    4554:	cf 5f       	subi	r28, 0xFF	; 255
    4556:	db 4f       	sbci	r29, 0xFB	; 251
    4558:	59 83       	std	Y+1, r21	; 0x01
    455a:	48 83       	st	Y, r20
    455c:	c1 50       	subi	r28, 0x01	; 1
    455e:	d4 40       	sbci	r29, 0x04	; 4
	ppm7[49] = 232;
    4560:	cd 5f       	subi	r28, 0xFD	; 253
    4562:	db 4f       	sbci	r29, 0xFB	; 251
    4564:	39 83       	std	Y+1, r19	; 0x01
    4566:	28 83       	st	Y, r18
    4568:	c3 50       	subi	r28, 0x03	; 3
    456a:	d4 40       	sbci	r29, 0x04	; 4
	ppm7[50] = 226;
    456c:	cb 5f       	subi	r28, 0xFB	; 251
    456e:	db 4f       	sbci	r29, 0xFB	; 251
    4570:	99 83       	std	Y+1, r25	; 0x01
    4572:	88 83       	st	Y, r24
    4574:	c5 50       	subi	r28, 0x05	; 5
    4576:	d4 40       	sbci	r29, 0x04	; 4
	ppm7[51] = 220;
    4578:	8c ed       	ldi	r24, 0xDC	; 220
    457a:	90 e0       	ldi	r25, 0x00	; 0
    457c:	c9 5f       	subi	r28, 0xF9	; 249
    457e:	db 4f       	sbci	r29, 0xFB	; 251
    4580:	99 83       	std	Y+1, r25	; 0x01
    4582:	88 83       	st	Y, r24
    4584:	c7 50       	subi	r28, 0x07	; 7
    4586:	d4 40       	sbci	r29, 0x04	; 4
	ppm7[52] = 215;
    4588:	87 ed       	ldi	r24, 0xD7	; 215
    458a:	90 e0       	ldi	r25, 0x00	; 0
    458c:	c7 5f       	subi	r28, 0xF7	; 247
    458e:	db 4f       	sbci	r29, 0xFB	; 251
    4590:	99 83       	std	Y+1, r25	; 0x01
    4592:	88 83       	st	Y, r24
    4594:	c9 50       	subi	r28, 0x09	; 9
    4596:	d4 40       	sbci	r29, 0x04	; 4
	ppm7[53] = 209;
    4598:	81 ed       	ldi	r24, 0xD1	; 209
    459a:	90 e0       	ldi	r25, 0x00	; 0
    459c:	c5 5f       	subi	r28, 0xF5	; 245
    459e:	db 4f       	sbci	r29, 0xFB	; 251
    45a0:	99 83       	std	Y+1, r25	; 0x01
    45a2:	88 83       	st	Y, r24
    45a4:	cb 50       	subi	r28, 0x0B	; 11
    45a6:	d4 40       	sbci	r29, 0x04	; 4
	ppm7[54] = 204;
    45a8:	8c ec       	ldi	r24, 0xCC	; 204
    45aa:	90 e0       	ldi	r25, 0x00	; 0
    45ac:	c3 5f       	subi	r28, 0xF3	; 243
    45ae:	db 4f       	sbci	r29, 0xFB	; 251
    45b0:	99 83       	std	Y+1, r25	; 0x01
    45b2:	88 83       	st	Y, r24
    45b4:	cd 50       	subi	r28, 0x0D	; 13
    45b6:	d4 40       	sbci	r29, 0x04	; 4
	ppm7[55] = 199;
    45b8:	0f 2e       	mov	r0, r31
    45ba:	f7 ec       	ldi	r31, 0xC7	; 199
    45bc:	af 2e       	mov	r10, r31
    45be:	b1 2c       	mov	r11, r1
    45c0:	f0 2d       	mov	r31, r0
    45c2:	c1 5f       	subi	r28, 0xF1	; 241
    45c4:	db 4f       	sbci	r29, 0xFB	; 251
    45c6:	b9 82       	std	Y+1, r11	; 0x01
    45c8:	a8 82       	st	Y, r10
    45ca:	cf 50       	subi	r28, 0x0F	; 15
    45cc:	d4 40       	sbci	r29, 0x04	; 4
	ppm7[56] = 195;
    45ce:	83 ec       	ldi	r24, 0xC3	; 195
    45d0:	90 e0       	ldi	r25, 0x00	; 0
    45d2:	cf 5e       	subi	r28, 0xEF	; 239
    45d4:	db 4f       	sbci	r29, 0xFB	; 251
    45d6:	99 83       	std	Y+1, r25	; 0x01
    45d8:	88 83       	st	Y, r24
    45da:	c1 51       	subi	r28, 0x11	; 17
    45dc:	d4 40       	sbci	r29, 0x04	; 4
	ppm7[57] = 190;
    45de:	8e eb       	ldi	r24, 0xBE	; 190
    45e0:	90 e0       	ldi	r25, 0x00	; 0
    45e2:	cd 5e       	subi	r28, 0xED	; 237
    45e4:	db 4f       	sbci	r29, 0xFB	; 251
    45e6:	99 83       	std	Y+1, r25	; 0x01
    45e8:	88 83       	st	Y, r24
    45ea:	c3 51       	subi	r28, 0x13	; 19
    45ec:	d4 40       	sbci	r29, 0x04	; 4
	ppm7[58] = 186;
    45ee:	8a eb       	ldi	r24, 0xBA	; 186
    45f0:	90 e0       	ldi	r25, 0x00	; 0
    45f2:	cb 5e       	subi	r28, 0xEB	; 235
    45f4:	db 4f       	sbci	r29, 0xFB	; 251
    45f6:	99 83       	std	Y+1, r25	; 0x01
    45f8:	88 83       	st	Y, r24
    45fa:	c5 51       	subi	r28, 0x15	; 21
    45fc:	d4 40       	sbci	r29, 0x04	; 4
	ppm7[59] = 181;
    45fe:	85 eb       	ldi	r24, 0xB5	; 181
    4600:	90 e0       	ldi	r25, 0x00	; 0
    4602:	c9 5e       	subi	r28, 0xE9	; 233
    4604:	db 4f       	sbci	r29, 0xFB	; 251
    4606:	99 83       	std	Y+1, r25	; 0x01
    4608:	88 83       	st	Y, r24
    460a:	c7 51       	subi	r28, 0x17	; 23
    460c:	d4 40       	sbci	r29, 0x04	; 4
	ppm7[60] = 177;
    460e:	81 eb       	ldi	r24, 0xB1	; 177
    4610:	90 e0       	ldi	r25, 0x00	; 0
    4612:	c7 5e       	subi	r28, 0xE7	; 231
    4614:	db 4f       	sbci	r29, 0xFB	; 251
    4616:	99 83       	std	Y+1, r25	; 0x01
    4618:	88 83       	st	Y, r24
    461a:	c9 51       	subi	r28, 0x19	; 25
    461c:	d4 40       	sbci	r29, 0x04	; 4
	ppm7[61] = 174;
    461e:	8e ea       	ldi	r24, 0xAE	; 174
    4620:	90 e0       	ldi	r25, 0x00	; 0
    4622:	c5 5e       	subi	r28, 0xE5	; 229
    4624:	db 4f       	sbci	r29, 0xFB	; 251
    4626:	99 83       	std	Y+1, r25	; 0x01
    4628:	88 83       	st	Y, r24
    462a:	cb 51       	subi	r28, 0x1B	; 27
    462c:	d4 40       	sbci	r29, 0x04	; 4
	ppm7[62] = 170;
    462e:	8a ea       	ldi	r24, 0xAA	; 170
    4630:	90 e0       	ldi	r25, 0x00	; 0
    4632:	c3 5e       	subi	r28, 0xE3	; 227
    4634:	db 4f       	sbci	r29, 0xFB	; 251
    4636:	99 83       	std	Y+1, r25	; 0x01
    4638:	88 83       	st	Y, r24
    463a:	cd 51       	subi	r28, 0x1D	; 29
    463c:	d4 40       	sbci	r29, 0x04	; 4
	ppm7[63] = 166;
    463e:	86 ea       	ldi	r24, 0xA6	; 166
    4640:	90 e0       	ldi	r25, 0x00	; 0
    4642:	c1 5e       	subi	r28, 0xE1	; 225
    4644:	db 4f       	sbci	r29, 0xFB	; 251
    4646:	99 83       	std	Y+1, r25	; 0x01
    4648:	88 83       	st	Y, r24
    464a:	cf 51       	subi	r28, 0x1F	; 31
    464c:	d4 40       	sbci	r29, 0x04	; 4
	ppm7[64] = 163;
    464e:	0f 2e       	mov	r0, r31
    4650:	f3 ea       	ldi	r31, 0xA3	; 163
    4652:	8f 2e       	mov	r8, r31
    4654:	91 2c       	mov	r9, r1
    4656:	f0 2d       	mov	r31, r0
    4658:	cf 5d       	subi	r28, 0xDF	; 223
    465a:	db 4f       	sbci	r29, 0xFB	; 251
    465c:	99 82       	std	Y+1, r9	; 0x01
    465e:	88 82       	st	Y, r8
    4660:	c1 52       	subi	r28, 0x21	; 33
    4662:	d4 40       	sbci	r29, 0x04	; 4
	ppm7[65] = 159;
    4664:	0f 2e       	mov	r0, r31
    4666:	ff e9       	ldi	r31, 0x9F	; 159
    4668:	6f 2e       	mov	r6, r31
    466a:	71 2c       	mov	r7, r1
    466c:	f0 2d       	mov	r31, r0
    466e:	cd 5d       	subi	r28, 0xDD	; 221
    4670:	db 4f       	sbci	r29, 0xFB	; 251
    4672:	79 82       	std	Y+1, r7	; 0x01
    4674:	68 82       	st	Y, r6
    4676:	c3 52       	subi	r28, 0x23	; 35
    4678:	d4 40       	sbci	r29, 0x04	; 4
	ppm7[66] = 156;
    467a:	8c e9       	ldi	r24, 0x9C	; 156
    467c:	90 e0       	ldi	r25, 0x00	; 0
    467e:	cb 5d       	subi	r28, 0xDB	; 219
    4680:	db 4f       	sbci	r29, 0xFB	; 251
    4682:	99 83       	std	Y+1, r25	; 0x01
    4684:	88 83       	st	Y, r24
    4686:	c5 52       	subi	r28, 0x25	; 37
    4688:	d4 40       	sbci	r29, 0x04	; 4
	ppm7[67] = 153;
    468a:	89 e9       	ldi	r24, 0x99	; 153
    468c:	90 e0       	ldi	r25, 0x00	; 0
    468e:	c9 5d       	subi	r28, 0xD9	; 217
    4690:	db 4f       	sbci	r29, 0xFB	; 251
    4692:	99 83       	std	Y+1, r25	; 0x01
    4694:	88 83       	st	Y, r24
    4696:	c7 52       	subi	r28, 0x27	; 39
    4698:	d4 40       	sbci	r29, 0x04	; 4
	ppm7[68] = 150;
    469a:	0f 2e       	mov	r0, r31
    469c:	f6 e9       	ldi	r31, 0x96	; 150
    469e:	4f 2e       	mov	r4, r31
    46a0:	51 2c       	mov	r5, r1
    46a2:	f0 2d       	mov	r31, r0
    46a4:	c7 5d       	subi	r28, 0xD7	; 215
    46a6:	db 4f       	sbci	r29, 0xFB	; 251
    46a8:	59 82       	std	Y+1, r5	; 0x01
    46aa:	48 82       	st	Y, r4
    46ac:	c9 52       	subi	r28, 0x29	; 41
    46ae:	d4 40       	sbci	r29, 0x04	; 4
	ppm7[69] = 147;
    46b0:	83 e9       	ldi	r24, 0x93	; 147
    46b2:	90 e0       	ldi	r25, 0x00	; 0
    46b4:	c5 5d       	subi	r28, 0xD5	; 213
    46b6:	db 4f       	sbci	r29, 0xFB	; 251
    46b8:	99 83       	std	Y+1, r25	; 0x01
    46ba:	88 83       	st	Y, r24
    46bc:	cb 52       	subi	r28, 0x2B	; 43
    46be:	d4 40       	sbci	r29, 0x04	; 4
	ppm7[70] = 144;
    46c0:	80 e9       	ldi	r24, 0x90	; 144
    46c2:	90 e0       	ldi	r25, 0x00	; 0
    46c4:	c3 5d       	subi	r28, 0xD3	; 211
    46c6:	db 4f       	sbci	r29, 0xFB	; 251
    46c8:	99 83       	std	Y+1, r25	; 0x01
    46ca:	88 83       	st	Y, r24
    46cc:	cd 52       	subi	r28, 0x2D	; 45
    46ce:	d4 40       	sbci	r29, 0x04	; 4
	ppm7[71] = 141;
    46d0:	8d e8       	ldi	r24, 0x8D	; 141
    46d2:	90 e0       	ldi	r25, 0x00	; 0
    46d4:	c1 5d       	subi	r28, 0xD1	; 209
    46d6:	db 4f       	sbci	r29, 0xFB	; 251
    46d8:	99 83       	std	Y+1, r25	; 0x01
    46da:	88 83       	st	Y, r24
    46dc:	cf 52       	subi	r28, 0x2F	; 47
    46de:	d4 40       	sbci	r29, 0x04	; 4
	ppm7[72] = 139;
    46e0:	0f 2e       	mov	r0, r31
    46e2:	fb e8       	ldi	r31, 0x8B	; 139
    46e4:	2f 2e       	mov	r2, r31
    46e6:	31 2c       	mov	r3, r1
    46e8:	f0 2d       	mov	r31, r0
    46ea:	cf 5c       	subi	r28, 0xCF	; 207
    46ec:	db 4f       	sbci	r29, 0xFB	; 251
    46ee:	39 82       	std	Y+1, r3	; 0x01
    46f0:	28 82       	st	Y, r2
    46f2:	c1 53       	subi	r28, 0x31	; 49
    46f4:	d4 40       	sbci	r29, 0x04	; 4
	ppm7[73] = 136;
    46f6:	88 e8       	ldi	r24, 0x88	; 136
    46f8:	90 e0       	ldi	r25, 0x00	; 0
    46fa:	cd 5c       	subi	r28, 0xCD	; 205
    46fc:	db 4f       	sbci	r29, 0xFB	; 251
    46fe:	99 83       	std	Y+1, r25	; 0x01
    4700:	88 83       	st	Y, r24
    4702:	c3 53       	subi	r28, 0x33	; 51
    4704:	d4 40       	sbci	r29, 0x04	; 4
	ppm7[74] = 133;
    4706:	85 e8       	ldi	r24, 0x85	; 133
    4708:	90 e0       	ldi	r25, 0x00	; 0
    470a:	cb 5c       	subi	r28, 0xCB	; 203
    470c:	db 4f       	sbci	r29, 0xFB	; 251
    470e:	99 83       	std	Y+1, r25	; 0x01
    4710:	88 83       	st	Y, r24
    4712:	c5 53       	subi	r28, 0x35	; 53
    4714:	d4 40       	sbci	r29, 0x04	; 4
	ppm7[75] = 131;
    4716:	0f 2e       	mov	r0, r31
    4718:	f3 e8       	ldi	r31, 0x83	; 131
    471a:	cf 2e       	mov	r12, r31
    471c:	d1 2c       	mov	r13, r1
    471e:	f0 2d       	mov	r31, r0
    4720:	c9 5c       	subi	r28, 0xC9	; 201
    4722:	db 4f       	sbci	r29, 0xFB	; 251
    4724:	d9 82       	std	Y+1, r13	; 0x01
    4726:	c8 82       	st	Y, r12
    4728:	c7 53       	subi	r28, 0x37	; 55
    472a:	d4 40       	sbci	r29, 0x04	; 4
	ppm7[76] = 129;
    472c:	81 e8       	ldi	r24, 0x81	; 129
    472e:	90 e0       	ldi	r25, 0x00	; 0
    4730:	c7 5c       	subi	r28, 0xC7	; 199
    4732:	db 4f       	sbci	r29, 0xFB	; 251
    4734:	99 83       	std	Y+1, r25	; 0x01
    4736:	88 83       	st	Y, r24
    4738:	c9 53       	subi	r28, 0x39	; 57
    473a:	d4 40       	sbci	r29, 0x04	; 4
	ppm7[77] = 126;
    473c:	8e e7       	ldi	r24, 0x7E	; 126
    473e:	90 e0       	ldi	r25, 0x00	; 0
    4740:	c5 5c       	subi	r28, 0xC5	; 197
    4742:	db 4f       	sbci	r29, 0xFB	; 251
    4744:	99 83       	std	Y+1, r25	; 0x01
    4746:	88 83       	st	Y, r24
    4748:	cb 53       	subi	r28, 0x3B	; 59
    474a:	d4 40       	sbci	r29, 0x04	; 4
	ppm7[78] = 124;
    474c:	8c e7       	ldi	r24, 0x7C	; 124
    474e:	90 e0       	ldi	r25, 0x00	; 0
    4750:	c3 5c       	subi	r28, 0xC3	; 195
    4752:	db 4f       	sbci	r29, 0xFB	; 251
    4754:	99 83       	std	Y+1, r25	; 0x01
    4756:	88 83       	st	Y, r24
    4758:	cd 53       	subi	r28, 0x3D	; 61
    475a:	d4 40       	sbci	r29, 0x04	; 4
	ppm7[79] = 122;
    475c:	0f 2e       	mov	r0, r31
    475e:	fa e7       	ldi	r31, 0x7A	; 122
    4760:	ef 2e       	mov	r14, r31
    4762:	f1 2c       	mov	r15, r1
    4764:	f0 2d       	mov	r31, r0
    4766:	c1 5c       	subi	r28, 0xC1	; 193
    4768:	db 4f       	sbci	r29, 0xFB	; 251
    476a:	f9 82       	std	Y+1, r15	; 0x01
    476c:	e8 82       	st	Y, r14
    476e:	cf 53       	subi	r28, 0x3F	; 63
    4770:	d4 40       	sbci	r29, 0x04	; 4
	ppm7[80] = 120;
    4772:	88 e7       	ldi	r24, 0x78	; 120
    4774:	90 e0       	ldi	r25, 0x00	; 0
    4776:	cf 5b       	subi	r28, 0xBF	; 191
    4778:	db 4f       	sbci	r29, 0xFB	; 251
    477a:	99 83       	std	Y+1, r25	; 0x01
    477c:	88 83       	st	Y, r24
    477e:	c1 54       	subi	r28, 0x41	; 65
    4780:	d4 40       	sbci	r29, 0x04	; 4
	ppm7[81] = 118;
    4782:	86 e7       	ldi	r24, 0x76	; 118
    4784:	90 e0       	ldi	r25, 0x00	; 0
    4786:	cd 5b       	subi	r28, 0xBD	; 189
    4788:	db 4f       	sbci	r29, 0xFB	; 251
    478a:	99 83       	std	Y+1, r25	; 0x01
    478c:	88 83       	st	Y, r24
    478e:	c3 54       	subi	r28, 0x43	; 67
    4790:	d4 40       	sbci	r29, 0x04	; 4
	ppm7[82] = 116;
    4792:	04 e7       	ldi	r16, 0x74	; 116
    4794:	10 e0       	ldi	r17, 0x00	; 0
    4796:	cb 5b       	subi	r28, 0xBB	; 187
    4798:	db 4f       	sbci	r29, 0xFB	; 251
    479a:	19 83       	std	Y+1, r17	; 0x01
    479c:	08 83       	st	Y, r16
    479e:	c5 54       	subi	r28, 0x45	; 69
    47a0:	d4 40       	sbci	r29, 0x04	; 4
	ppm7[83] = 114;
    47a2:	82 e7       	ldi	r24, 0x72	; 114
    47a4:	90 e0       	ldi	r25, 0x00	; 0
    47a6:	c9 5b       	subi	r28, 0xB9	; 185
    47a8:	db 4f       	sbci	r29, 0xFB	; 251
    47aa:	99 83       	std	Y+1, r25	; 0x01
    47ac:	88 83       	st	Y, r24
    47ae:	c7 54       	subi	r28, 0x47	; 71
    47b0:	d4 40       	sbci	r29, 0x04	; 4
	ppm7[84] = 112;
    47b2:	80 e7       	ldi	r24, 0x70	; 112
    47b4:	90 e0       	ldi	r25, 0x00	; 0
    47b6:	c7 5b       	subi	r28, 0xB7	; 183
    47b8:	db 4f       	sbci	r29, 0xFB	; 251
    47ba:	99 83       	std	Y+1, r25	; 0x01
    47bc:	88 83       	st	Y, r24
    47be:	c9 54       	subi	r28, 0x49	; 73
    47c0:	d4 40       	sbci	r29, 0x04	; 4
	ppm7[85] = 110;
    47c2:	2e e6       	ldi	r18, 0x6E	; 110
    47c4:	30 e0       	ldi	r19, 0x00	; 0
    47c6:	c5 5b       	subi	r28, 0xB5	; 181
    47c8:	db 4f       	sbci	r29, 0xFB	; 251
    47ca:	39 83       	std	Y+1, r19	; 0x01
    47cc:	28 83       	st	Y, r18
    47ce:	cb 54       	subi	r28, 0x4B	; 75
    47d0:	d4 40       	sbci	r29, 0x04	; 4
	ppm7[86] = 108;
    47d2:	8c e6       	ldi	r24, 0x6C	; 108
    47d4:	90 e0       	ldi	r25, 0x00	; 0
    47d6:	c3 5b       	subi	r28, 0xB3	; 179
    47d8:	db 4f       	sbci	r29, 0xFB	; 251
    47da:	99 83       	std	Y+1, r25	; 0x01
    47dc:	88 83       	st	Y, r24
    47de:	cd 54       	subi	r28, 0x4D	; 77
    47e0:	d4 40       	sbci	r29, 0x04	; 4
	ppm7[87] = 107;
    47e2:	6b e6       	ldi	r22, 0x6B	; 107
    47e4:	70 e0       	ldi	r23, 0x00	; 0
    47e6:	c1 5b       	subi	r28, 0xB1	; 177
    47e8:	db 4f       	sbci	r29, 0xFB	; 251
    47ea:	79 83       	std	Y+1, r23	; 0x01
    47ec:	68 83       	st	Y, r22
    47ee:	cf 54       	subi	r28, 0x4F	; 79
    47f0:	d4 40       	sbci	r29, 0x04	; 4
	ppm7[88] = 105;
    47f2:	89 e6       	ldi	r24, 0x69	; 105
    47f4:	90 e0       	ldi	r25, 0x00	; 0
    47f6:	cf 5a       	subi	r28, 0xAF	; 175
    47f8:	db 4f       	sbci	r29, 0xFB	; 251
    47fa:	99 83       	std	Y+1, r25	; 0x01
    47fc:	88 83       	st	Y, r24
    47fe:	c1 55       	subi	r28, 0x51	; 81
    4800:	d4 40       	sbci	r29, 0x04	; 4
	ppm7[89] = 103;
    4802:	87 e6       	ldi	r24, 0x67	; 103
    4804:	90 e0       	ldi	r25, 0x00	; 0
    4806:	cd 5a       	subi	r28, 0xAD	; 173
    4808:	db 4f       	sbci	r29, 0xFB	; 251
    480a:	99 83       	std	Y+1, r25	; 0x01
    480c:	88 83       	st	Y, r24
    480e:	c3 55       	subi	r28, 0x53	; 83
    4810:	d4 40       	sbci	r29, 0x04	; 4
	ppm7[90] = 102;
    4812:	a6 e6       	ldi	r26, 0x66	; 102
    4814:	b0 e0       	ldi	r27, 0x00	; 0
    4816:	cb 5a       	subi	r28, 0xAB	; 171
    4818:	db 4f       	sbci	r29, 0xFB	; 251
    481a:	b9 83       	std	Y+1, r27	; 0x01
    481c:	a8 83       	st	Y, r26
    481e:	c5 55       	subi	r28, 0x55	; 85
    4820:	d4 40       	sbci	r29, 0x04	; 4
	ppm7[91] = 100;
    4822:	0f 2e       	mov	r0, r31
    4824:	f4 e6       	ldi	r31, 0x64	; 100
    4826:	cf 2e       	mov	r12, r31
    4828:	d1 2c       	mov	r13, r1
    482a:	f0 2d       	mov	r31, r0
    482c:	c9 5a       	subi	r28, 0xA9	; 169
    482e:	db 4f       	sbci	r29, 0xFB	; 251
    4830:	d9 82       	std	Y+1, r13	; 0x01
    4832:	c8 82       	st	Y, r12
    4834:	c7 55       	subi	r28, 0x57	; 87
    4836:	d4 40       	sbci	r29, 0x04	; 4
	ppm7[92] = 99;
    4838:	83 e6       	ldi	r24, 0x63	; 99
    483a:	90 e0       	ldi	r25, 0x00	; 0
    483c:	c7 5a       	subi	r28, 0xA7	; 167
    483e:	db 4f       	sbci	r29, 0xFB	; 251
    4840:	99 83       	std	Y+1, r25	; 0x01
    4842:	88 83       	st	Y, r24
    4844:	c9 55       	subi	r28, 0x59	; 89
    4846:	d4 40       	sbci	r29, 0x04	; 4
	ppm7[93] = 97;
    4848:	0f 2e       	mov	r0, r31
    484a:	f1 e6       	ldi	r31, 0x61	; 97
    484c:	ef 2e       	mov	r14, r31
    484e:	f1 2c       	mov	r15, r1
    4850:	f0 2d       	mov	r31, r0
    4852:	c5 5a       	subi	r28, 0xA5	; 165
    4854:	db 4f       	sbci	r29, 0xFB	; 251
    4856:	f9 82       	std	Y+1, r15	; 0x01
    4858:	e8 82       	st	Y, r14
    485a:	cb 55       	subi	r28, 0x5B	; 91
    485c:	d4 40       	sbci	r29, 0x04	; 4
	ppm7[94] = 96;
    485e:	80 e6       	ldi	r24, 0x60	; 96
    4860:	90 e0       	ldi	r25, 0x00	; 0
    4862:	c3 5a       	subi	r28, 0xA3	; 163
    4864:	db 4f       	sbci	r29, 0xFB	; 251
    4866:	99 83       	std	Y+1, r25	; 0x01
    4868:	88 83       	st	Y, r24
    486a:	cd 55       	subi	r28, 0x5D	; 93
    486c:	d4 40       	sbci	r29, 0x04	; 4
	ppm7[95] = 94;
    486e:	8e e5       	ldi	r24, 0x5E	; 94
    4870:	90 e0       	ldi	r25, 0x00	; 0
    4872:	c1 5a       	subi	r28, 0xA1	; 161
    4874:	db 4f       	sbci	r29, 0xFB	; 251
    4876:	99 83       	std	Y+1, r25	; 0x01
    4878:	88 83       	st	Y, r24
    487a:	cf 55       	subi	r28, 0x5F	; 95
    487c:	d4 40       	sbci	r29, 0x04	; 4
	ppm7[96] = 93;
    487e:	0d e5       	ldi	r16, 0x5D	; 93
    4880:	10 e0       	ldi	r17, 0x00	; 0
    4882:	cf 59       	subi	r28, 0x9F	; 159
    4884:	db 4f       	sbci	r29, 0xFB	; 251
    4886:	19 83       	std	Y+1, r17	; 0x01
    4888:	08 83       	st	Y, r16
    488a:	c1 56       	subi	r28, 0x61	; 97
    488c:	d4 40       	sbci	r29, 0x04	; 4
	ppm7[97] = 91;
    488e:	2b e5       	ldi	r18, 0x5B	; 91
    4890:	30 e0       	ldi	r19, 0x00	; 0
    4892:	cd 59       	subi	r28, 0x9D	; 157
    4894:	db 4f       	sbci	r29, 0xFB	; 251
    4896:	39 83       	std	Y+1, r19	; 0x01
    4898:	28 83       	st	Y, r18
    489a:	c3 56       	subi	r28, 0x63	; 99
    489c:	d4 40       	sbci	r29, 0x04	; 4
	ppm7[98] = 90;
    489e:	8a e5       	ldi	r24, 0x5A	; 90
    48a0:	90 e0       	ldi	r25, 0x00	; 0
    48a2:	cb 59       	subi	r28, 0x9B	; 155
    48a4:	db 4f       	sbci	r29, 0xFB	; 251
    48a6:	99 83       	std	Y+1, r25	; 0x01
    48a8:	88 83       	st	Y, r24
    48aa:	c5 56       	subi	r28, 0x65	; 101
    48ac:	d4 40       	sbci	r29, 0x04	; 4
	ppm7[99] = 89;
    48ae:	69 e5       	ldi	r22, 0x59	; 89
    48b0:	70 e0       	ldi	r23, 0x00	; 0
    48b2:	c9 59       	subi	r28, 0x99	; 153
    48b4:	db 4f       	sbci	r29, 0xFB	; 251
    48b6:	79 83       	std	Y+1, r23	; 0x01
    48b8:	68 83       	st	Y, r22
    48ba:	c7 56       	subi	r28, 0x67	; 103
    48bc:	d4 40       	sbci	r29, 0x04	; 4
	ppm7[100] = 88;
    48be:	88 e5       	ldi	r24, 0x58	; 88
    48c0:	90 e0       	ldi	r25, 0x00	; 0
    48c2:	c7 59       	subi	r28, 0x97	; 151
    48c4:	db 4f       	sbci	r29, 0xFB	; 251
    48c6:	99 83       	std	Y+1, r25	; 0x01
    48c8:	88 83       	st	Y, r24
    48ca:	c9 56       	subi	r28, 0x69	; 105
    48cc:	d4 40       	sbci	r29, 0x04	; 4
	ppm7[101] = 86;
    48ce:	86 e5       	ldi	r24, 0x56	; 86
    48d0:	90 e0       	ldi	r25, 0x00	; 0
    48d2:	c5 59       	subi	r28, 0x95	; 149
    48d4:	db 4f       	sbci	r29, 0xFB	; 251
    48d6:	99 83       	std	Y+1, r25	; 0x01
    48d8:	88 83       	st	Y, r24
    48da:	cb 56       	subi	r28, 0x6B	; 107
    48dc:	d4 40       	sbci	r29, 0x04	; 4
	ppm7[102] = 85;
    48de:	85 e5       	ldi	r24, 0x55	; 85
    48e0:	90 e0       	ldi	r25, 0x00	; 0
    48e2:	c3 59       	subi	r28, 0x93	; 147
    48e4:	db 4f       	sbci	r29, 0xFB	; 251
    48e6:	99 83       	std	Y+1, r25	; 0x01
    48e8:	88 83       	st	Y, r24
    48ea:	cd 56       	subi	r28, 0x6D	; 109
    48ec:	d4 40       	sbci	r29, 0x04	; 4
	ppm7[103] = 84;
    48ee:	a4 e5       	ldi	r26, 0x54	; 84
    48f0:	b0 e0       	ldi	r27, 0x00	; 0
    48f2:	c1 59       	subi	r28, 0x91	; 145
    48f4:	db 4f       	sbci	r29, 0xFB	; 251
    48f6:	b9 83       	std	Y+1, r27	; 0x01
    48f8:	a8 83       	st	Y, r26
    48fa:	cf 56       	subi	r28, 0x6F	; 111
    48fc:	d4 40       	sbci	r29, 0x04	; 4
	ppm7[104] = 83;
    48fe:	0f 2e       	mov	r0, r31
    4900:	f3 e5       	ldi	r31, 0x53	; 83
    4902:	cf 2e       	mov	r12, r31
    4904:	d1 2c       	mov	r13, r1
    4906:	f0 2d       	mov	r31, r0
    4908:	cf 58       	subi	r28, 0x8F	; 143
    490a:	db 4f       	sbci	r29, 0xFB	; 251
    490c:	d9 82       	std	Y+1, r13	; 0x01
    490e:	c8 82       	st	Y, r12
    4910:	c1 57       	subi	r28, 0x71	; 113
    4912:	d4 40       	sbci	r29, 0x04	; 4
	ppm7[105] = 82;
    4914:	82 e5       	ldi	r24, 0x52	; 82
    4916:	90 e0       	ldi	r25, 0x00	; 0
    4918:	cd 58       	subi	r28, 0x8D	; 141
    491a:	db 4f       	sbci	r29, 0xFB	; 251
    491c:	99 83       	std	Y+1, r25	; 0x01
    491e:	88 83       	st	Y, r24
    4920:	c3 57       	subi	r28, 0x73	; 115
    4922:	d4 40       	sbci	r29, 0x04	; 4
	ppm7[106] = 81;
    4924:	0f 2e       	mov	r0, r31
    4926:	f1 e5       	ldi	r31, 0x51	; 81
    4928:	ef 2e       	mov	r14, r31
    492a:	f1 2c       	mov	r15, r1
    492c:	f0 2d       	mov	r31, r0
    492e:	cb 58       	subi	r28, 0x8B	; 139
    4930:	db 4f       	sbci	r29, 0xFB	; 251
    4932:	f9 82       	std	Y+1, r15	; 0x01
    4934:	e8 82       	st	Y, r14
    4936:	c5 57       	subi	r28, 0x75	; 117
    4938:	d4 40       	sbci	r29, 0x04	; 4
	ppm7[107] = 80;
    493a:	80 e5       	ldi	r24, 0x50	; 80
    493c:	90 e0       	ldi	r25, 0x00	; 0
    493e:	c9 58       	subi	r28, 0x89	; 137
    4940:	db 4f       	sbci	r29, 0xFB	; 251
    4942:	99 83       	std	Y+1, r25	; 0x01
    4944:	88 83       	st	Y, r24
    4946:	c7 57       	subi	r28, 0x77	; 119
    4948:	d4 40       	sbci	r29, 0x04	; 4
	ppm7[108] = 79;
    494a:	0f e4       	ldi	r16, 0x4F	; 79
    494c:	10 e0       	ldi	r17, 0x00	; 0
    494e:	c7 58       	subi	r28, 0x87	; 135
    4950:	db 4f       	sbci	r29, 0xFB	; 251
    4952:	19 83       	std	Y+1, r17	; 0x01
    4954:	08 83       	st	Y, r16
    4956:	c9 57       	subi	r28, 0x79	; 121
    4958:	d4 40       	sbci	r29, 0x04	; 4
	ppm7[109] = 78;
    495a:	8e e4       	ldi	r24, 0x4E	; 78
    495c:	90 e0       	ldi	r25, 0x00	; 0
    495e:	c5 58       	subi	r28, 0x85	; 133
    4960:	db 4f       	sbci	r29, 0xFB	; 251
    4962:	99 83       	std	Y+1, r25	; 0x01
    4964:	88 83       	st	Y, r24
    4966:	cb 57       	subi	r28, 0x7B	; 123
    4968:	d4 40       	sbci	r29, 0x04	; 4
	ppm7[110] = 77;
    496a:	2d e4       	ldi	r18, 0x4D	; 77
    496c:	30 e0       	ldi	r19, 0x00	; 0
    496e:	c3 58       	subi	r28, 0x83	; 131
    4970:	db 4f       	sbci	r29, 0xFB	; 251
    4972:	39 83       	std	Y+1, r19	; 0x01
    4974:	28 83       	st	Y, r18
    4976:	cd 57       	subi	r28, 0x7D	; 125
    4978:	d4 40       	sbci	r29, 0x04	; 4
	ppm7[111] = 76;
    497a:	8c e4       	ldi	r24, 0x4C	; 76
    497c:	90 e0       	ldi	r25, 0x00	; 0
    497e:	c1 58       	subi	r28, 0x81	; 129
    4980:	db 4f       	sbci	r29, 0xFB	; 251
    4982:	99 83       	std	Y+1, r25	; 0x01
    4984:	88 83       	st	Y, r24
    4986:	cf 57       	subi	r28, 0x7F	; 127
    4988:	d4 40       	sbci	r29, 0x04	; 4
	ppm7[112] = 75;
    498a:	6b e4       	ldi	r22, 0x4B	; 75
    498c:	70 e0       	ldi	r23, 0x00	; 0
    498e:	cf 57       	subi	r28, 0x7F	; 127
    4990:	db 4f       	sbci	r29, 0xFB	; 251
    4992:	79 83       	std	Y+1, r23	; 0x01
    4994:	68 83       	st	Y, r22
    4996:	c1 58       	subi	r28, 0x81	; 129
    4998:	d4 40       	sbci	r29, 0x04	; 4
	ppm7[113] = 74;
    499a:	8a e4       	ldi	r24, 0x4A	; 74
    499c:	90 e0       	ldi	r25, 0x00	; 0
    499e:	cd 57       	subi	r28, 0x7D	; 125
    49a0:	db 4f       	sbci	r29, 0xFB	; 251
    49a2:	99 83       	std	Y+1, r25	; 0x01
    49a4:	88 83       	st	Y, r24
    49a6:	c3 58       	subi	r28, 0x83	; 131
    49a8:	d4 40       	sbci	r29, 0x04	; 4
	ppm7[114] = 73;
    49aa:	89 e4       	ldi	r24, 0x49	; 73
    49ac:	90 e0       	ldi	r25, 0x00	; 0
    49ae:	cb 57       	subi	r28, 0x7B	; 123
    49b0:	db 4f       	sbci	r29, 0xFB	; 251
    49b2:	99 83       	std	Y+1, r25	; 0x01
    49b4:	88 83       	st	Y, r24
    49b6:	c5 58       	subi	r28, 0x85	; 133
    49b8:	d4 40       	sbci	r29, 0x04	; 4
	ppm7[115] = 72;
    49ba:	a8 e4       	ldi	r26, 0x48	; 72
    49bc:	b0 e0       	ldi	r27, 0x00	; 0
    49be:	c9 57       	subi	r28, 0x79	; 121
    49c0:	db 4f       	sbci	r29, 0xFB	; 251
    49c2:	b9 83       	std	Y+1, r27	; 0x01
    49c4:	a8 83       	st	Y, r26
    49c6:	c7 58       	subi	r28, 0x87	; 135
    49c8:	d4 40       	sbci	r29, 0x04	; 4
	ppm7[116] = 71;
    49ca:	0f 2e       	mov	r0, r31
    49cc:	f7 e4       	ldi	r31, 0x47	; 71
    49ce:	cf 2e       	mov	r12, r31
    49d0:	d1 2c       	mov	r13, r1
    49d2:	f0 2d       	mov	r31, r0
    49d4:	c7 57       	subi	r28, 0x77	; 119
    49d6:	db 4f       	sbci	r29, 0xFB	; 251
    49d8:	d9 82       	std	Y+1, r13	; 0x01
    49da:	c8 82       	st	Y, r12
    49dc:	c9 58       	subi	r28, 0x89	; 137
    49de:	d4 40       	sbci	r29, 0x04	; 4
	ppm7[117] = 70;
    49e0:	86 e4       	ldi	r24, 0x46	; 70
    49e2:	90 e0       	ldi	r25, 0x00	; 0
    49e4:	c5 57       	subi	r28, 0x75	; 117
    49e6:	db 4f       	sbci	r29, 0xFB	; 251
    49e8:	99 83       	std	Y+1, r25	; 0x01
    49ea:	88 83       	st	Y, r24
    49ec:	cb 58       	subi	r28, 0x8B	; 139
    49ee:	d4 40       	sbci	r29, 0x04	; 4
	ppm7[118] = 69;
    49f0:	0f 2e       	mov	r0, r31
    49f2:	f5 e4       	ldi	r31, 0x45	; 69
    49f4:	ef 2e       	mov	r14, r31
    49f6:	f1 2c       	mov	r15, r1
    49f8:	f0 2d       	mov	r31, r0
    49fa:	c3 57       	subi	r28, 0x73	; 115
    49fc:	db 4f       	sbci	r29, 0xFB	; 251
    49fe:	f9 82       	std	Y+1, r15	; 0x01
    4a00:	e8 82       	st	Y, r14
    4a02:	cd 58       	subi	r28, 0x8D	; 141
    4a04:	d4 40       	sbci	r29, 0x04	; 4
	ppm7[119] = 68;
    4a06:	0f 2e       	mov	r0, r31
    4a08:	f4 e4       	ldi	r31, 0x44	; 68
    4a0a:	cf 2e       	mov	r12, r31
    4a0c:	d1 2c       	mov	r13, r1
    4a0e:	f0 2d       	mov	r31, r0
    4a10:	c1 57       	subi	r28, 0x71	; 113
    4a12:	db 4f       	sbci	r29, 0xFB	; 251
    4a14:	d9 82       	std	Y+1, r13	; 0x01
    4a16:	c8 82       	st	Y, r12
    4a18:	cf 58       	subi	r28, 0x8F	; 143
    4a1a:	d4 40       	sbci	r29, 0x04	; 4
	ppm7[120] = 68;
    4a1c:	cf 56       	subi	r28, 0x6F	; 111
    4a1e:	db 4f       	sbci	r29, 0xFB	; 251
    4a20:	d9 82       	std	Y+1, r13	; 0x01
    4a22:	c8 82       	st	Y, r12
    4a24:	c1 59       	subi	r28, 0x91	; 145
    4a26:	d4 40       	sbci	r29, 0x04	; 4
	ppm7[121] = 67;
    4a28:	83 e4       	ldi	r24, 0x43	; 67
    4a2a:	90 e0       	ldi	r25, 0x00	; 0
    4a2c:	cd 56       	subi	r28, 0x6D	; 109
    4a2e:	db 4f       	sbci	r29, 0xFB	; 251
    4a30:	99 83       	std	Y+1, r25	; 0x01
    4a32:	88 83       	st	Y, r24
    4a34:	c3 59       	subi	r28, 0x93	; 147
    4a36:	d4 40       	sbci	r29, 0x04	; 4
	ppm7[122] = 66;
    4a38:	02 e4       	ldi	r16, 0x42	; 66
    4a3a:	10 e0       	ldi	r17, 0x00	; 0
    4a3c:	cb 56       	subi	r28, 0x6B	; 107
    4a3e:	db 4f       	sbci	r29, 0xFB	; 251
    4a40:	19 83       	std	Y+1, r17	; 0x01
    4a42:	08 83       	st	Y, r16
    4a44:	c5 59       	subi	r28, 0x95	; 149
    4a46:	d4 40       	sbci	r29, 0x04	; 4
	ppm7[123] = 65;
    4a48:	21 e4       	ldi	r18, 0x41	; 65
    4a4a:	30 e0       	ldi	r19, 0x00	; 0
    4a4c:	c9 56       	subi	r28, 0x69	; 105
    4a4e:	db 4f       	sbci	r29, 0xFB	; 251
    4a50:	39 83       	std	Y+1, r19	; 0x01
    4a52:	28 83       	st	Y, r18
    4a54:	c7 59       	subi	r28, 0x97	; 151
    4a56:	d4 40       	sbci	r29, 0x04	; 4
	ppm7[124] = 64;
    4a58:	80 e4       	ldi	r24, 0x40	; 64
    4a5a:	90 e0       	ldi	r25, 0x00	; 0
    4a5c:	c7 56       	subi	r28, 0x67	; 103
    4a5e:	db 4f       	sbci	r29, 0xFB	; 251
    4a60:	99 83       	std	Y+1, r25	; 0x01
    4a62:	88 83       	st	Y, r24
    4a64:	c9 59       	subi	r28, 0x99	; 153
    4a66:	d4 40       	sbci	r29, 0x04	; 4
	ppm7[125] = 64;
    4a68:	c5 56       	subi	r28, 0x65	; 101
    4a6a:	db 4f       	sbci	r29, 0xFB	; 251
    4a6c:	99 83       	std	Y+1, r25	; 0x01
    4a6e:	88 83       	st	Y, r24
    4a70:	cb 59       	subi	r28, 0x9B	; 155
    4a72:	d4 40       	sbci	r29, 0x04	; 4
	ppm7[126] = 63;
    4a74:	6f e3       	ldi	r22, 0x3F	; 63
    4a76:	70 e0       	ldi	r23, 0x00	; 0
    4a78:	c3 56       	subi	r28, 0x63	; 99
    4a7a:	db 4f       	sbci	r29, 0xFB	; 251
    4a7c:	79 83       	std	Y+1, r23	; 0x01
    4a7e:	68 83       	st	Y, r22
    4a80:	cd 59       	subi	r28, 0x9D	; 157
    4a82:	d4 40       	sbci	r29, 0x04	; 4
	ppm7[127] = 62;
    4a84:	0f 2e       	mov	r0, r31
    4a86:	fe e3       	ldi	r31, 0x3E	; 62
    4a88:	ef 2e       	mov	r14, r31
    4a8a:	f1 2c       	mov	r15, r1
    4a8c:	f0 2d       	mov	r31, r0
    4a8e:	c1 56       	subi	r28, 0x61	; 97
    4a90:	db 4f       	sbci	r29, 0xFB	; 251
    4a92:	f9 82       	std	Y+1, r15	; 0x01
    4a94:	e8 82       	st	Y, r14
    4a96:	cf 59       	subi	r28, 0x9F	; 159
    4a98:	d4 40       	sbci	r29, 0x04	; 4
	ppm7[128] = 62;
    4a9a:	cf 55       	subi	r28, 0x5F	; 95
    4a9c:	db 4f       	sbci	r29, 0xFB	; 251
    4a9e:	f9 82       	std	Y+1, r15	; 0x01
    4aa0:	e8 82       	st	Y, r14
    4aa2:	c1 5a       	subi	r28, 0xA1	; 161
    4aa4:	d4 40       	sbci	r29, 0x04	; 4
	ppm7[129] = 61;
    4aa6:	8d e3       	ldi	r24, 0x3D	; 61
    4aa8:	90 e0       	ldi	r25, 0x00	; 0
    4aaa:	cd 55       	subi	r28, 0x5D	; 93
    4aac:	db 4f       	sbci	r29, 0xFB	; 251
    4aae:	99 83       	std	Y+1, r25	; 0x01
    4ab0:	88 83       	st	Y, r24
    4ab2:	c3 5a       	subi	r28, 0xA3	; 163
    4ab4:	d4 40       	sbci	r29, 0x04	; 4
	ppm7[130] = 60;
    4ab6:	8c e3       	ldi	r24, 0x3C	; 60
    4ab8:	90 e0       	ldi	r25, 0x00	; 0
    4aba:	cb 55       	subi	r28, 0x5B	; 91
    4abc:	db 4f       	sbci	r29, 0xFB	; 251
    4abe:	99 83       	std	Y+1, r25	; 0x01
    4ac0:	88 83       	st	Y, r24
    4ac2:	c5 5a       	subi	r28, 0xA5	; 165
    4ac4:	d4 40       	sbci	r29, 0x04	; 4
	ppm7[131] = 60;
    4ac6:	c9 55       	subi	r28, 0x59	; 89
    4ac8:	db 4f       	sbci	r29, 0xFB	; 251
    4aca:	99 83       	std	Y+1, r25	; 0x01
    4acc:	88 83       	st	Y, r24
    4ace:	c7 5a       	subi	r28, 0xA7	; 167
    4ad0:	d4 40       	sbci	r29, 0x04	; 4
	ppm7[132] = 59;
    4ad2:	ab e3       	ldi	r26, 0x3B	; 59
    4ad4:	b0 e0       	ldi	r27, 0x00	; 0
    4ad6:	c7 55       	subi	r28, 0x57	; 87
    4ad8:	db 4f       	sbci	r29, 0xFB	; 251
    4ada:	b9 83       	std	Y+1, r27	; 0x01
    4adc:	a8 83       	st	Y, r26
    4ade:	c9 5a       	subi	r28, 0xA9	; 169
    4ae0:	d4 40       	sbci	r29, 0x04	; 4
	ppm7[133] = 58;
    4ae2:	0a e3       	ldi	r16, 0x3A	; 58
    4ae4:	10 e0       	ldi	r17, 0x00	; 0
    4ae6:	c5 55       	subi	r28, 0x55	; 85
    4ae8:	db 4f       	sbci	r29, 0xFB	; 251
    4aea:	19 83       	std	Y+1, r17	; 0x01
    4aec:	08 83       	st	Y, r16
    4aee:	cb 5a       	subi	r28, 0xAB	; 171
    4af0:	d4 40       	sbci	r29, 0x04	; 4
	ppm7[134] = 58;
    4af2:	c3 55       	subi	r28, 0x53	; 83
    4af4:	db 4f       	sbci	r29, 0xFB	; 251
    4af6:	19 83       	std	Y+1, r17	; 0x01
    4af8:	08 83       	st	Y, r16
    4afa:	cd 5a       	subi	r28, 0xAD	; 173
    4afc:	d4 40       	sbci	r29, 0x04	; 4
	ppm7[135] = 57;
    4afe:	29 e3       	ldi	r18, 0x39	; 57
    4b00:	30 e0       	ldi	r19, 0x00	; 0
    4b02:	c1 55       	subi	r28, 0x51	; 81
    4b04:	db 4f       	sbci	r29, 0xFB	; 251
    4b06:	39 83       	std	Y+1, r19	; 0x01
    4b08:	28 83       	st	Y, r18
    4b0a:	cf 5a       	subi	r28, 0xAF	; 175
    4b0c:	d4 40       	sbci	r29, 0x04	; 4
	ppm7[136] = 56;
    4b0e:	a8 e3       	ldi	r26, 0x38	; 56
    4b10:	b0 e0       	ldi	r27, 0x00	; 0
    4b12:	cf 54       	subi	r28, 0x4F	; 79
    4b14:	db 4f       	sbci	r29, 0xFB	; 251
    4b16:	b9 83       	std	Y+1, r27	; 0x01
    4b18:	a8 83       	st	Y, r26
    4b1a:	c1 5b       	subi	r28, 0xB1	; 177
    4b1c:	d4 40       	sbci	r29, 0x04	; 4
	ppm7[137] = 56;
    4b1e:	cd 54       	subi	r28, 0x4D	; 77
    4b20:	db 4f       	sbci	r29, 0xFB	; 251
    4b22:	b9 83       	std	Y+1, r27	; 0x01
    4b24:	a8 83       	st	Y, r26
    4b26:	c3 5b       	subi	r28, 0xB3	; 179
    4b28:	d4 40       	sbci	r29, 0x04	; 4
	ppm7[138] = 55;
    4b2a:	e7 e3       	ldi	r30, 0x37	; 55
    4b2c:	f0 e0       	ldi	r31, 0x00	; 0
    4b2e:	cb 54       	subi	r28, 0x4B	; 75
    4b30:	db 4f       	sbci	r29, 0xFB	; 251
    4b32:	f9 83       	std	Y+1, r31	; 0x01
    4b34:	e8 83       	st	Y, r30
    4b36:	c5 5b       	subi	r28, 0xB5	; 181
    4b38:	d4 40       	sbci	r29, 0x04	; 4
	ppm7[139] = 55;
    4b3a:	c9 54       	subi	r28, 0x49	; 73
    4b3c:	db 4f       	sbci	r29, 0xFB	; 251
    4b3e:	f9 83       	std	Y+1, r31	; 0x01
    4b40:	e8 83       	st	Y, r30
    4b42:	c7 5b       	subi	r28, 0xB7	; 183
    4b44:	d4 40       	sbci	r29, 0x04	; 4
	ppm7[140] = 54;
    4b46:	66 e3       	ldi	r22, 0x36	; 54
    4b48:	70 e0       	ldi	r23, 0x00	; 0
    4b4a:	c7 54       	subi	r28, 0x47	; 71
    4b4c:	db 4f       	sbci	r29, 0xFB	; 251
    4b4e:	79 83       	std	Y+1, r23	; 0x01
    4b50:	68 83       	st	Y, r22
    4b52:	c9 5b       	subi	r28, 0xB9	; 185
    4b54:	d4 40       	sbci	r29, 0x04	; 4
	ppm7[141] = 54;
    4b56:	c5 54       	subi	r28, 0x45	; 69
    4b58:	db 4f       	sbci	r29, 0xFB	; 251
    4b5a:	79 83       	std	Y+1, r23	; 0x01
    4b5c:	68 83       	st	Y, r22
    4b5e:	cb 5b       	subi	r28, 0xBB	; 187
    4b60:	d4 40       	sbci	r29, 0x04	; 4
	ppm7[142] = 53;
    4b62:	85 e3       	ldi	r24, 0x35	; 53
    4b64:	90 e0       	ldi	r25, 0x00	; 0
    4b66:	c3 54       	subi	r28, 0x43	; 67
    4b68:	db 4f       	sbci	r29, 0xFB	; 251
    4b6a:	99 83       	std	Y+1, r25	; 0x01
    4b6c:	88 83       	st	Y, r24
    4b6e:	cd 5b       	subi	r28, 0xBD	; 189
    4b70:	d4 40       	sbci	r29, 0x04	; 4
	ppm7[143] = 52;
    4b72:	44 e3       	ldi	r20, 0x34	; 52
    4b74:	50 e0       	ldi	r21, 0x00	; 0
    4b76:	c1 54       	subi	r28, 0x41	; 65
    4b78:	db 4f       	sbci	r29, 0xFB	; 251
    4b7a:	59 83       	std	Y+1, r21	; 0x01
    4b7c:	48 83       	st	Y, r20
    4b7e:	cf 5b       	subi	r28, 0xBF	; 191
    4b80:	d4 40       	sbci	r29, 0x04	; 4
	ppm7[144] = 52;
    4b82:	cf 53       	subi	r28, 0x3F	; 63
    4b84:	db 4f       	sbci	r29, 0xFB	; 251
    4b86:	59 83       	std	Y+1, r21	; 0x01
    4b88:	48 83       	st	Y, r20
    4b8a:	c1 5c       	subi	r28, 0xC1	; 193
    4b8c:	d4 40       	sbci	r29, 0x04	; 4
	ppm7[145] = 51;
    4b8e:	83 e3       	ldi	r24, 0x33	; 51
    4b90:	90 e0       	ldi	r25, 0x00	; 0
    4b92:	cd 53       	subi	r28, 0x3D	; 61
    4b94:	db 4f       	sbci	r29, 0xFB	; 251
    4b96:	99 83       	std	Y+1, r25	; 0x01
    4b98:	88 83       	st	Y, r24
    4b9a:	c3 5c       	subi	r28, 0xC3	; 195
    4b9c:	d4 40       	sbci	r29, 0x04	; 4
	ppm7[146] = 51;
    4b9e:	cb 53       	subi	r28, 0x3B	; 59
    4ba0:	db 4f       	sbci	r29, 0xFB	; 251
    4ba2:	99 83       	std	Y+1, r25	; 0x01
    4ba4:	88 83       	st	Y, r24
    4ba6:	c5 5c       	subi	r28, 0xC5	; 197
    4ba8:	d4 40       	sbci	r29, 0x04	; 4
	ppm7[147] = 50;
    4baa:	22 e3       	ldi	r18, 0x32	; 50
    4bac:	30 e0       	ldi	r19, 0x00	; 0
    4bae:	c9 53       	subi	r28, 0x39	; 57
    4bb0:	db 4f       	sbci	r29, 0xFB	; 251
    4bb2:	39 83       	std	Y+1, r19	; 0x01
    4bb4:	28 83       	st	Y, r18
    4bb6:	c7 5c       	subi	r28, 0xC7	; 199
    4bb8:	d4 40       	sbci	r29, 0x04	; 4
	ppm7[148] = 50;
    4bba:	c7 53       	subi	r28, 0x37	; 55
    4bbc:	db 4f       	sbci	r29, 0xFB	; 251
    4bbe:	39 83       	std	Y+1, r19	; 0x01
    4bc0:	28 83       	st	Y, r18
    4bc2:	c9 5c       	subi	r28, 0xC9	; 201
    4bc4:	d4 40       	sbci	r29, 0x04	; 4
	ppm7[149] = 49;
    4bc6:	81 e3       	ldi	r24, 0x31	; 49
    4bc8:	90 e0       	ldi	r25, 0x00	; 0
    4bca:	c5 53       	subi	r28, 0x35	; 53
    4bcc:	db 4f       	sbci	r29, 0xFB	; 251
    4bce:	99 83       	std	Y+1, r25	; 0x01
    4bd0:	88 83       	st	Y, r24
    4bd2:	cb 5c       	subi	r28, 0xCB	; 203
    4bd4:	d4 40       	sbci	r29, 0x04	; 4
	ppm7[150] = 49;
    4bd6:	c3 53       	subi	r28, 0x33	; 51
    4bd8:	db 4f       	sbci	r29, 0xFB	; 251
    4bda:	99 83       	std	Y+1, r25	; 0x01
    4bdc:	88 83       	st	Y, r24
    4bde:	cd 5c       	subi	r28, 0xCD	; 205
    4be0:	d4 40       	sbci	r29, 0x04	; 4
	
	int ppm136[161];
	ppm136[0] = 199;
    4be2:	c1 53       	subi	r28, 0x31	; 49
    4be4:	db 4f       	sbci	r29, 0xFB	; 251
    4be6:	b9 82       	std	Y+1, r11	; 0x01
    4be8:	a8 82       	st	Y, r10
    4bea:	cf 5c       	subi	r28, 0xCF	; 207
    4bec:	d4 40       	sbci	r29, 0x04	; 4
	ppm136[1] = 194;
    4bee:	0f 2e       	mov	r0, r31
    4bf0:	f2 ec       	ldi	r31, 0xC2	; 194
    4bf2:	af 2e       	mov	r10, r31
    4bf4:	b1 2c       	mov	r11, r1
    4bf6:	f0 2d       	mov	r31, r0
    4bf8:	cf 52       	subi	r28, 0x2F	; 47
    4bfa:	db 4f       	sbci	r29, 0xFB	; 251
    4bfc:	b9 82       	std	Y+1, r11	; 0x01
    4bfe:	a8 82       	st	Y, r10
    4c00:	c1 5d       	subi	r28, 0xD1	; 209
    4c02:	d4 40       	sbci	r29, 0x04	; 4
	ppm136[2] = 188;
    4c04:	0f 2e       	mov	r0, r31
    4c06:	fc eb       	ldi	r31, 0xBC	; 188
    4c08:	af 2e       	mov	r10, r31
    4c0a:	b1 2c       	mov	r11, r1
    4c0c:	f0 2d       	mov	r31, r0
    4c0e:	cd 52       	subi	r28, 0x2D	; 45
    4c10:	db 4f       	sbci	r29, 0xFB	; 251
    4c12:	b9 82       	std	Y+1, r11	; 0x01
    4c14:	a8 82       	st	Y, r10
    4c16:	c3 5d       	subi	r28, 0xD3	; 211
    4c18:	d4 40       	sbci	r29, 0x04	; 4
	ppm136[3] = 183;
    4c1a:	0f 2e       	mov	r0, r31
    4c1c:	f7 eb       	ldi	r31, 0xB7	; 183
    4c1e:	af 2e       	mov	r10, r31
    4c20:	b1 2c       	mov	r11, r1
    4c22:	f0 2d       	mov	r31, r0
    4c24:	cb 52       	subi	r28, 0x2B	; 43
    4c26:	db 4f       	sbci	r29, 0xFB	; 251
    4c28:	b9 82       	std	Y+1, r11	; 0x01
    4c2a:	a8 82       	st	Y, r10
    4c2c:	c5 5d       	subi	r28, 0xD5	; 213
    4c2e:	d4 40       	sbci	r29, 0x04	; 4
	ppm136[4] = 178;
    4c30:	0f 2e       	mov	r0, r31
    4c32:	f2 eb       	ldi	r31, 0xB2	; 178
    4c34:	af 2e       	mov	r10, r31
    4c36:	b1 2c       	mov	r11, r1
    4c38:	f0 2d       	mov	r31, r0
    4c3a:	c9 52       	subi	r28, 0x29	; 41
    4c3c:	db 4f       	sbci	r29, 0xFB	; 251
    4c3e:	b9 82       	std	Y+1, r11	; 0x01
    4c40:	a8 82       	st	Y, r10
    4c42:	c7 5d       	subi	r28, 0xD7	; 215
    4c44:	d4 40       	sbci	r29, 0x04	; 4
	ppm136[5] = 173;
    4c46:	0f 2e       	mov	r0, r31
    4c48:	fd ea       	ldi	r31, 0xAD	; 173
    4c4a:	af 2e       	mov	r10, r31
    4c4c:	b1 2c       	mov	r11, r1
    4c4e:	f0 2d       	mov	r31, r0
    4c50:	c7 52       	subi	r28, 0x27	; 39
    4c52:	db 4f       	sbci	r29, 0xFB	; 251
    4c54:	b9 82       	std	Y+1, r11	; 0x01
    4c56:	a8 82       	st	Y, r10
    4c58:	c9 5d       	subi	r28, 0xD9	; 217
    4c5a:	d4 40       	sbci	r29, 0x04	; 4
	ppm136[6] = 168;
    4c5c:	0f 2e       	mov	r0, r31
    4c5e:	f8 ea       	ldi	r31, 0xA8	; 168
    4c60:	af 2e       	mov	r10, r31
    4c62:	b1 2c       	mov	r11, r1
    4c64:	f0 2d       	mov	r31, r0
    4c66:	c5 52       	subi	r28, 0x25	; 37
    4c68:	db 4f       	sbci	r29, 0xFB	; 251
    4c6a:	b9 82       	std	Y+1, r11	; 0x01
    4c6c:	a8 82       	st	Y, r10
    4c6e:	cb 5d       	subi	r28, 0xDB	; 219
    4c70:	d4 40       	sbci	r29, 0x04	; 4
	ppm136[7] = 163;
    4c72:	c3 52       	subi	r28, 0x23	; 35
    4c74:	db 4f       	sbci	r29, 0xFB	; 251
    4c76:	99 82       	std	Y+1, r9	; 0x01
    4c78:	88 82       	st	Y, r8
    4c7a:	cd 5d       	subi	r28, 0xDD	; 221
    4c7c:	d4 40       	sbci	r29, 0x04	; 4
	ppm136[8] = 159;
    4c7e:	c1 52       	subi	r28, 0x21	; 33
    4c80:	db 4f       	sbci	r29, 0xFB	; 251
    4c82:	79 82       	std	Y+1, r7	; 0x01
    4c84:	68 82       	st	Y, r6
    4c86:	cf 5d       	subi	r28, 0xDF	; 223
    4c88:	d4 40       	sbci	r29, 0x04	; 4
	ppm136[9] = 154;
    4c8a:	0f 2e       	mov	r0, r31
    4c8c:	fa e9       	ldi	r31, 0x9A	; 154
    4c8e:	af 2e       	mov	r10, r31
    4c90:	b1 2c       	mov	r11, r1
    4c92:	f0 2d       	mov	r31, r0
    4c94:	cf 51       	subi	r28, 0x1F	; 31
    4c96:	db 4f       	sbci	r29, 0xFB	; 251
    4c98:	b9 82       	std	Y+1, r11	; 0x01
    4c9a:	a8 82       	st	Y, r10
    4c9c:	c1 5e       	subi	r28, 0xE1	; 225
    4c9e:	d4 40       	sbci	r29, 0x04	; 4
	ppm136[10] = 150;
    4ca0:	cd 51       	subi	r28, 0x1D	; 29
    4ca2:	db 4f       	sbci	r29, 0xFB	; 251
    4ca4:	59 82       	std	Y+1, r5	; 0x01
    4ca6:	48 82       	st	Y, r4
    4ca8:	c3 5e       	subi	r28, 0xE3	; 227
    4caa:	d4 40       	sbci	r29, 0x04	; 4
	ppm136[11] = 146;
    4cac:	0f 2e       	mov	r0, r31
    4cae:	f2 e9       	ldi	r31, 0x92	; 146
    4cb0:	af 2e       	mov	r10, r31
    4cb2:	b1 2c       	mov	r11, r1
    4cb4:	f0 2d       	mov	r31, r0
    4cb6:	cb 51       	subi	r28, 0x1B	; 27
    4cb8:	db 4f       	sbci	r29, 0xFB	; 251
    4cba:	b9 82       	std	Y+1, r11	; 0x01
    4cbc:	a8 82       	st	Y, r10
    4cbe:	c5 5e       	subi	r28, 0xE5	; 229
    4cc0:	d4 40       	sbci	r29, 0x04	; 4
	ppm136[12] = 142;
    4cc2:	0f 2e       	mov	r0, r31
    4cc4:	fe e8       	ldi	r31, 0x8E	; 142
    4cc6:	af 2e       	mov	r10, r31
    4cc8:	b1 2c       	mov	r11, r1
    4cca:	f0 2d       	mov	r31, r0
    4ccc:	c9 51       	subi	r28, 0x19	; 25
    4cce:	db 4f       	sbci	r29, 0xFB	; 251
    4cd0:	b9 82       	std	Y+1, r11	; 0x01
    4cd2:	a8 82       	st	Y, r10
    4cd4:	c7 5e       	subi	r28, 0xE7	; 231
    4cd6:	d4 40       	sbci	r29, 0x04	; 4
	ppm136[13] = 139;
    4cd8:	c7 51       	subi	r28, 0x17	; 23
    4cda:	db 4f       	sbci	r29, 0xFB	; 251
    4cdc:	39 82       	std	Y+1, r3	; 0x01
    4cde:	28 82       	st	Y, r2
    4ce0:	c9 5e       	subi	r28, 0xE9	; 233
    4ce2:	d4 40       	sbci	r29, 0x04	; 4
	ppm136[14] = 135;
    4ce4:	0f 2e       	mov	r0, r31
    4ce6:	f7 e8       	ldi	r31, 0x87	; 135
    4ce8:	af 2e       	mov	r10, r31
    4cea:	b1 2c       	mov	r11, r1
    4cec:	f0 2d       	mov	r31, r0
    4cee:	c5 51       	subi	r28, 0x15	; 21
    4cf0:	db 4f       	sbci	r29, 0xFB	; 251
    4cf2:	b9 82       	std	Y+1, r11	; 0x01
    4cf4:	a8 82       	st	Y, r10
    4cf6:	cb 5e       	subi	r28, 0xEB	; 235
    4cf8:	d4 40       	sbci	r29, 0x04	; 4
	ppm136[15] = 131;
    4cfa:	0f 2e       	mov	r0, r31
    4cfc:	f3 e8       	ldi	r31, 0x83	; 131
    4cfe:	af 2e       	mov	r10, r31
    4d00:	b1 2c       	mov	r11, r1
    4d02:	f0 2d       	mov	r31, r0
    4d04:	c3 51       	subi	r28, 0x13	; 19
    4d06:	db 4f       	sbci	r29, 0xFB	; 251
    4d08:	b9 82       	std	Y+1, r11	; 0x01
    4d0a:	a8 82       	st	Y, r10
    4d0c:	cd 5e       	subi	r28, 0xED	; 237
    4d0e:	d4 40       	sbci	r29, 0x04	; 4
	ppm136[16] = 128;
    4d10:	68 94       	set
    4d12:	aa 24       	eor	r10, r10
    4d14:	a7 f8       	bld	r10, 7
    4d16:	b1 2c       	mov	r11, r1
    4d18:	c1 51       	subi	r28, 0x11	; 17
    4d1a:	db 4f       	sbci	r29, 0xFB	; 251
    4d1c:	b9 82       	std	Y+1, r11	; 0x01
    4d1e:	a8 82       	st	Y, r10
    4d20:	cf 5e       	subi	r28, 0xEF	; 239
    4d22:	d4 40       	sbci	r29, 0x04	; 4
	ppm136[17] = 125;
    4d24:	0f 2e       	mov	r0, r31
    4d26:	fd e7       	ldi	r31, 0x7D	; 125
    4d28:	af 2e       	mov	r10, r31
    4d2a:	b1 2c       	mov	r11, r1
    4d2c:	f0 2d       	mov	r31, r0
    4d2e:	cf 50       	subi	r28, 0x0F	; 15
    4d30:	db 4f       	sbci	r29, 0xFB	; 251
    4d32:	b9 82       	std	Y+1, r11	; 0x01
    4d34:	a8 82       	st	Y, r10
    4d36:	c1 5f       	subi	r28, 0xF1	; 241
    4d38:	d4 40       	sbci	r29, 0x04	; 4
	ppm136[18] = 122;
    4d3a:	0f 2e       	mov	r0, r31
    4d3c:	fa e7       	ldi	r31, 0x7A	; 122
    4d3e:	af 2e       	mov	r10, r31
    4d40:	b1 2c       	mov	r11, r1
    4d42:	f0 2d       	mov	r31, r0
    4d44:	cd 50       	subi	r28, 0x0D	; 13
    4d46:	db 4f       	sbci	r29, 0xFB	; 251
    4d48:	b9 82       	std	Y+1, r11	; 0x01
    4d4a:	a8 82       	st	Y, r10
    4d4c:	c3 5f       	subi	r28, 0xF3	; 243
    4d4e:	d4 40       	sbci	r29, 0x04	; 4
	ppm136[19] = 119;
    4d50:	0f 2e       	mov	r0, r31
    4d52:	f7 e7       	ldi	r31, 0x77	; 119
    4d54:	af 2e       	mov	r10, r31
    4d56:	b1 2c       	mov	r11, r1
    4d58:	f0 2d       	mov	r31, r0
    4d5a:	cb 50       	subi	r28, 0x0B	; 11
    4d5c:	db 4f       	sbci	r29, 0xFB	; 251
    4d5e:	b9 82       	std	Y+1, r11	; 0x01
    4d60:	a8 82       	st	Y, r10
    4d62:	c5 5f       	subi	r28, 0xF5	; 245
    4d64:	d4 40       	sbci	r29, 0x04	; 4
	ppm136[20] = 116;
    4d66:	0f 2e       	mov	r0, r31
    4d68:	f4 e7       	ldi	r31, 0x74	; 116
    4d6a:	af 2e       	mov	r10, r31
    4d6c:	b1 2c       	mov	r11, r1
    4d6e:	f0 2d       	mov	r31, r0
    4d70:	c9 50       	subi	r28, 0x09	; 9
    4d72:	db 4f       	sbci	r29, 0xFB	; 251
    4d74:	b9 82       	std	Y+1, r11	; 0x01
    4d76:	a8 82       	st	Y, r10
    4d78:	c7 5f       	subi	r28, 0xF7	; 247
    4d7a:	d4 40       	sbci	r29, 0x04	; 4
	ppm136[21] = 113;
    4d7c:	0f 2e       	mov	r0, r31
    4d7e:	f1 e7       	ldi	r31, 0x71	; 113
    4d80:	af 2e       	mov	r10, r31
    4d82:	b1 2c       	mov	r11, r1
    4d84:	f0 2d       	mov	r31, r0
    4d86:	c7 50       	subi	r28, 0x07	; 7
    4d88:	db 4f       	sbci	r29, 0xFB	; 251
    4d8a:	b9 82       	std	Y+1, r11	; 0x01
    4d8c:	a8 82       	st	Y, r10
    4d8e:	c9 5f       	subi	r28, 0xF9	; 249
    4d90:	d4 40       	sbci	r29, 0x04	; 4
	ppm136[22] = 110;
    4d92:	0f 2e       	mov	r0, r31
    4d94:	fe e6       	ldi	r31, 0x6E	; 110
    4d96:	af 2e       	mov	r10, r31
    4d98:	b1 2c       	mov	r11, r1
    4d9a:	f0 2d       	mov	r31, r0
    4d9c:	c5 50       	subi	r28, 0x05	; 5
    4d9e:	db 4f       	sbci	r29, 0xFB	; 251
    4da0:	b9 82       	std	Y+1, r11	; 0x01
    4da2:	a8 82       	st	Y, r10
    4da4:	cb 5f       	subi	r28, 0xFB	; 251
    4da6:	d4 40       	sbci	r29, 0x04	; 4
	ppm136[23] = 107;
    4da8:	0f 2e       	mov	r0, r31
    4daa:	fb e6       	ldi	r31, 0x6B	; 107
    4dac:	af 2e       	mov	r10, r31
    4dae:	b1 2c       	mov	r11, r1
    4db0:	f0 2d       	mov	r31, r0
    4db2:	c3 50       	subi	r28, 0x03	; 3
    4db4:	db 4f       	sbci	r29, 0xFB	; 251
    4db6:	b9 82       	std	Y+1, r11	; 0x01
    4db8:	a8 82       	st	Y, r10
    4dba:	cd 5f       	subi	r28, 0xFD	; 253
    4dbc:	d4 40       	sbci	r29, 0x04	; 4
	ppm136[24] = 105;
    4dbe:	0f 2e       	mov	r0, r31
    4dc0:	f9 e6       	ldi	r31, 0x69	; 105
    4dc2:	af 2e       	mov	r10, r31
    4dc4:	b1 2c       	mov	r11, r1
    4dc6:	f0 2d       	mov	r31, r0
    4dc8:	c1 50       	subi	r28, 0x01	; 1
    4dca:	db 4f       	sbci	r29, 0xFB	; 251
    4dcc:	b9 82       	std	Y+1, r11	; 0x01
    4dce:	a8 82       	st	Y, r10
    4dd0:	cf 5f       	subi	r28, 0xFF	; 255
    4dd2:	d4 40       	sbci	r29, 0x04	; 4
	ppm136[25] = 102;
    4dd4:	0f 2e       	mov	r0, r31
    4dd6:	f6 e6       	ldi	r31, 0x66	; 102
    4dd8:	af 2e       	mov	r10, r31
    4dda:	b1 2c       	mov	r11, r1
    4ddc:	f0 2d       	mov	r31, r0
    4dde:	cf 5f       	subi	r28, 0xFF	; 255
    4de0:	da 4f       	sbci	r29, 0xFA	; 250
    4de2:	b9 82       	std	Y+1, r11	; 0x01
    4de4:	a8 82       	st	Y, r10
    4de6:	c1 50       	subi	r28, 0x01	; 1
    4de8:	d5 40       	sbci	r29, 0x05	; 5
	ppm136[26] = 100;
    4dea:	0f 2e       	mov	r0, r31
    4dec:	f4 e6       	ldi	r31, 0x64	; 100
    4dee:	af 2e       	mov	r10, r31
    4df0:	b1 2c       	mov	r11, r1
    4df2:	f0 2d       	mov	r31, r0
    4df4:	cd 5f       	subi	r28, 0xFD	; 253
    4df6:	da 4f       	sbci	r29, 0xFA	; 250
    4df8:	b9 82       	std	Y+1, r11	; 0x01
    4dfa:	a8 82       	st	Y, r10
    4dfc:	c3 50       	subi	r28, 0x03	; 3
    4dfe:	d5 40       	sbci	r29, 0x05	; 5
	ppm136[27] = 97;
    4e00:	0f 2e       	mov	r0, r31
    4e02:	f1 e6       	ldi	r31, 0x61	; 97
    4e04:	af 2e       	mov	r10, r31
    4e06:	b1 2c       	mov	r11, r1
    4e08:	f0 2d       	mov	r31, r0
    4e0a:	cb 5f       	subi	r28, 0xFB	; 251
    4e0c:	da 4f       	sbci	r29, 0xFA	; 250
    4e0e:	b9 82       	std	Y+1, r11	; 0x01
    4e10:	a8 82       	st	Y, r10
    4e12:	c5 50       	subi	r28, 0x05	; 5
    4e14:	d5 40       	sbci	r29, 0x05	; 5
	ppm136[28] = 95;
    4e16:	0f 2e       	mov	r0, r31
    4e18:	ff e5       	ldi	r31, 0x5F	; 95
    4e1a:	af 2e       	mov	r10, r31
    4e1c:	b1 2c       	mov	r11, r1
    4e1e:	f0 2d       	mov	r31, r0
    4e20:	c9 5f       	subi	r28, 0xF9	; 249
    4e22:	da 4f       	sbci	r29, 0xFA	; 250
    4e24:	b9 82       	std	Y+1, r11	; 0x01
    4e26:	a8 82       	st	Y, r10
    4e28:	c7 50       	subi	r28, 0x07	; 7
    4e2a:	d5 40       	sbci	r29, 0x05	; 5
	ppm136[29] = 93;
    4e2c:	0f 2e       	mov	r0, r31
    4e2e:	fd e5       	ldi	r31, 0x5D	; 93
    4e30:	af 2e       	mov	r10, r31
    4e32:	b1 2c       	mov	r11, r1
    4e34:	f0 2d       	mov	r31, r0
    4e36:	c7 5f       	subi	r28, 0xF7	; 247
    4e38:	da 4f       	sbci	r29, 0xFA	; 250
    4e3a:	b9 82       	std	Y+1, r11	; 0x01
    4e3c:	a8 82       	st	Y, r10
    4e3e:	c9 50       	subi	r28, 0x09	; 9
    4e40:	d5 40       	sbci	r29, 0x05	; 5
	ppm136[30] = 91;
    4e42:	0f 2e       	mov	r0, r31
    4e44:	fb e5       	ldi	r31, 0x5B	; 91
    4e46:	af 2e       	mov	r10, r31
    4e48:	b1 2c       	mov	r11, r1
    4e4a:	f0 2d       	mov	r31, r0
    4e4c:	c5 5f       	subi	r28, 0xF5	; 245
    4e4e:	da 4f       	sbci	r29, 0xFA	; 250
    4e50:	b9 82       	std	Y+1, r11	; 0x01
    4e52:	a8 82       	st	Y, r10
    4e54:	cb 50       	subi	r28, 0x0B	; 11
    4e56:	d5 40       	sbci	r29, 0x05	; 5
	ppm136[31] = 89;
    4e58:	0f 2e       	mov	r0, r31
    4e5a:	f9 e5       	ldi	r31, 0x59	; 89
    4e5c:	af 2e       	mov	r10, r31
    4e5e:	b1 2c       	mov	r11, r1
    4e60:	f0 2d       	mov	r31, r0
    4e62:	c3 5f       	subi	r28, 0xF3	; 243
    4e64:	da 4f       	sbci	r29, 0xFA	; 250
    4e66:	b9 82       	std	Y+1, r11	; 0x01
    4e68:	a8 82       	st	Y, r10
    4e6a:	cd 50       	subi	r28, 0x0D	; 13
    4e6c:	d5 40       	sbci	r29, 0x05	; 5
	ppm136[32] = 86;
    4e6e:	0f 2e       	mov	r0, r31
    4e70:	f6 e5       	ldi	r31, 0x56	; 86
    4e72:	af 2e       	mov	r10, r31
    4e74:	b1 2c       	mov	r11, r1
    4e76:	f0 2d       	mov	r31, r0
    4e78:	c1 5f       	subi	r28, 0xF1	; 241
    4e7a:	da 4f       	sbci	r29, 0xFA	; 250
    4e7c:	b9 82       	std	Y+1, r11	; 0x01
    4e7e:	a8 82       	st	Y, r10
    4e80:	cf 50       	subi	r28, 0x0F	; 15
    4e82:	d5 40       	sbci	r29, 0x05	; 5
	ppm136[33] = 84;
    4e84:	0f 2e       	mov	r0, r31
    4e86:	f4 e5       	ldi	r31, 0x54	; 84
    4e88:	af 2e       	mov	r10, r31
    4e8a:	b1 2c       	mov	r11, r1
    4e8c:	f0 2d       	mov	r31, r0
    4e8e:	cf 5e       	subi	r28, 0xEF	; 239
    4e90:	da 4f       	sbci	r29, 0xFA	; 250
    4e92:	b9 82       	std	Y+1, r11	; 0x01
    4e94:	a8 82       	st	Y, r10
    4e96:	c1 51       	subi	r28, 0x11	; 17
    4e98:	d5 40       	sbci	r29, 0x05	; 5
	ppm136[34] = 83;
    4e9a:	0f 2e       	mov	r0, r31
    4e9c:	f3 e5       	ldi	r31, 0x53	; 83
    4e9e:	af 2e       	mov	r10, r31
    4ea0:	b1 2c       	mov	r11, r1
    4ea2:	f0 2d       	mov	r31, r0
    4ea4:	cd 5e       	subi	r28, 0xED	; 237
    4ea6:	da 4f       	sbci	r29, 0xFA	; 250
    4ea8:	b9 82       	std	Y+1, r11	; 0x01
    4eaa:	a8 82       	st	Y, r10
    4eac:	c3 51       	subi	r28, 0x13	; 19
    4eae:	d5 40       	sbci	r29, 0x05	; 5
	ppm136[35] = 81;
    4eb0:	0f 2e       	mov	r0, r31
    4eb2:	f1 e5       	ldi	r31, 0x51	; 81
    4eb4:	af 2e       	mov	r10, r31
    4eb6:	b1 2c       	mov	r11, r1
    4eb8:	f0 2d       	mov	r31, r0
    4eba:	cb 5e       	subi	r28, 0xEB	; 235
    4ebc:	da 4f       	sbci	r29, 0xFA	; 250
    4ebe:	b9 82       	std	Y+1, r11	; 0x01
    4ec0:	a8 82       	st	Y, r10
    4ec2:	c5 51       	subi	r28, 0x15	; 21
    4ec4:	d5 40       	sbci	r29, 0x05	; 5
	ppm136[36] = 79;
    4ec6:	0f 2e       	mov	r0, r31
    4ec8:	ff e4       	ldi	r31, 0x4F	; 79
    4eca:	af 2e       	mov	r10, r31
    4ecc:	b1 2c       	mov	r11, r1
    4ece:	f0 2d       	mov	r31, r0
    4ed0:	c9 5e       	subi	r28, 0xE9	; 233
    4ed2:	da 4f       	sbci	r29, 0xFA	; 250
    4ed4:	b9 82       	std	Y+1, r11	; 0x01
    4ed6:	a8 82       	st	Y, r10
    4ed8:	c7 51       	subi	r28, 0x17	; 23
    4eda:	d5 40       	sbci	r29, 0x05	; 5
	ppm136[37] = 77;
    4edc:	0f 2e       	mov	r0, r31
    4ede:	fd e4       	ldi	r31, 0x4D	; 77
    4ee0:	af 2e       	mov	r10, r31
    4ee2:	b1 2c       	mov	r11, r1
    4ee4:	f0 2d       	mov	r31, r0
    4ee6:	c7 5e       	subi	r28, 0xE7	; 231
    4ee8:	da 4f       	sbci	r29, 0xFA	; 250
    4eea:	b9 82       	std	Y+1, r11	; 0x01
    4eec:	a8 82       	st	Y, r10
    4eee:	c9 51       	subi	r28, 0x19	; 25
    4ef0:	d5 40       	sbci	r29, 0x05	; 5
	ppm136[38] = 75;
    4ef2:	0f 2e       	mov	r0, r31
    4ef4:	fb e4       	ldi	r31, 0x4B	; 75
    4ef6:	af 2e       	mov	r10, r31
    4ef8:	b1 2c       	mov	r11, r1
    4efa:	f0 2d       	mov	r31, r0
    4efc:	c5 5e       	subi	r28, 0xE5	; 229
    4efe:	da 4f       	sbci	r29, 0xFA	; 250
    4f00:	b9 82       	std	Y+1, r11	; 0x01
    4f02:	a8 82       	st	Y, r10
    4f04:	cb 51       	subi	r28, 0x1B	; 27
    4f06:	d5 40       	sbci	r29, 0x05	; 5
	ppm136[39] = 74;
    4f08:	0f 2e       	mov	r0, r31
    4f0a:	fa e4       	ldi	r31, 0x4A	; 74
    4f0c:	af 2e       	mov	r10, r31
    4f0e:	b1 2c       	mov	r11, r1
    4f10:	f0 2d       	mov	r31, r0
    4f12:	c3 5e       	subi	r28, 0xE3	; 227
    4f14:	da 4f       	sbci	r29, 0xFA	; 250
    4f16:	b9 82       	std	Y+1, r11	; 0x01
    4f18:	a8 82       	st	Y, r10
    4f1a:	cd 51       	subi	r28, 0x1D	; 29
    4f1c:	d5 40       	sbci	r29, 0x05	; 5
	ppm136[40] = 72;
    4f1e:	0f 2e       	mov	r0, r31
    4f20:	f8 e4       	ldi	r31, 0x48	; 72
    4f22:	af 2e       	mov	r10, r31
    4f24:	b1 2c       	mov	r11, r1
    4f26:	f0 2d       	mov	r31, r0
    4f28:	c1 5e       	subi	r28, 0xE1	; 225
    4f2a:	da 4f       	sbci	r29, 0xFA	; 250
    4f2c:	b9 82       	std	Y+1, r11	; 0x01
    4f2e:	a8 82       	st	Y, r10
    4f30:	cf 51       	subi	r28, 0x1F	; 31
    4f32:	d5 40       	sbci	r29, 0x05	; 5
	ppm136[41] = 71;
    4f34:	0f 2e       	mov	r0, r31
    4f36:	f7 e4       	ldi	r31, 0x47	; 71
    4f38:	af 2e       	mov	r10, r31
    4f3a:	b1 2c       	mov	r11, r1
    4f3c:	f0 2d       	mov	r31, r0
    4f3e:	cf 5d       	subi	r28, 0xDF	; 223
    4f40:	da 4f       	sbci	r29, 0xFA	; 250
    4f42:	b9 82       	std	Y+1, r11	; 0x01
    4f44:	a8 82       	st	Y, r10
    4f46:	c1 52       	subi	r28, 0x21	; 33
    4f48:	d5 40       	sbci	r29, 0x05	; 5
	ppm136[42] = 69;
    4f4a:	0f 2e       	mov	r0, r31
    4f4c:	f5 e4       	ldi	r31, 0x45	; 69
    4f4e:	af 2e       	mov	r10, r31
    4f50:	b1 2c       	mov	r11, r1
    4f52:	f0 2d       	mov	r31, r0
    4f54:	cd 5d       	subi	r28, 0xDD	; 221
    4f56:	da 4f       	sbci	r29, 0xFA	; 250
    4f58:	b9 82       	std	Y+1, r11	; 0x01
    4f5a:	a8 82       	st	Y, r10
    4f5c:	c3 52       	subi	r28, 0x23	; 35
    4f5e:	d5 40       	sbci	r29, 0x05	; 5
	ppm136[43] = 68;
    4f60:	cb 5d       	subi	r28, 0xDB	; 219
    4f62:	da 4f       	sbci	r29, 0xFA	; 250
    4f64:	d9 82       	std	Y+1, r13	; 0x01
    4f66:	c8 82       	st	Y, r12
    4f68:	c5 52       	subi	r28, 0x25	; 37
    4f6a:	d5 40       	sbci	r29, 0x05	; 5
	ppm136[44] = 66;
    4f6c:	0f 2e       	mov	r0, r31
    4f6e:	f2 e4       	ldi	r31, 0x42	; 66
    4f70:	cf 2e       	mov	r12, r31
    4f72:	d1 2c       	mov	r13, r1
    4f74:	f0 2d       	mov	r31, r0
    4f76:	c9 5d       	subi	r28, 0xD9	; 217
    4f78:	da 4f       	sbci	r29, 0xFA	; 250
    4f7a:	d9 82       	std	Y+1, r13	; 0x01
    4f7c:	c8 82       	st	Y, r12
    4f7e:	c7 52       	subi	r28, 0x27	; 39
    4f80:	d5 40       	sbci	r29, 0x05	; 5
	ppm136[45] = 65;
    4f82:	0f 2e       	mov	r0, r31
    4f84:	f1 e4       	ldi	r31, 0x41	; 65
    4f86:	af 2e       	mov	r10, r31
    4f88:	b1 2c       	mov	r11, r1
    4f8a:	f0 2d       	mov	r31, r0
    4f8c:	c7 5d       	subi	r28, 0xD7	; 215
    4f8e:	da 4f       	sbci	r29, 0xFA	; 250
    4f90:	b9 82       	std	Y+1, r11	; 0x01
    4f92:	a8 82       	st	Y, r10
    4f94:	c9 52       	subi	r28, 0x29	; 41
    4f96:	d5 40       	sbci	r29, 0x05	; 5
	ppm136[46] = 63;
    4f98:	0f 2e       	mov	r0, r31
    4f9a:	ff e3       	ldi	r31, 0x3F	; 63
    4f9c:	cf 2e       	mov	r12, r31
    4f9e:	d1 2c       	mov	r13, r1
    4fa0:	f0 2d       	mov	r31, r0
    4fa2:	c5 5d       	subi	r28, 0xD5	; 213
    4fa4:	da 4f       	sbci	r29, 0xFA	; 250
    4fa6:	d9 82       	std	Y+1, r13	; 0x01
    4fa8:	c8 82       	st	Y, r12
    4faa:	cb 52       	subi	r28, 0x2B	; 43
    4fac:	d5 40       	sbci	r29, 0x05	; 5
	ppm136[47] = 62;
    4fae:	c3 5d       	subi	r28, 0xD3	; 211
    4fb0:	da 4f       	sbci	r29, 0xFA	; 250
    4fb2:	f9 82       	std	Y+1, r15	; 0x01
    4fb4:	e8 82       	st	Y, r14
    4fb6:	cd 52       	subi	r28, 0x2D	; 45
    4fb8:	d5 40       	sbci	r29, 0x05	; 5
	ppm136[48] = 61;
    4fba:	0f 2e       	mov	r0, r31
    4fbc:	fd e3       	ldi	r31, 0x3D	; 61
    4fbe:	ef 2e       	mov	r14, r31
    4fc0:	f1 2c       	mov	r15, r1
    4fc2:	f0 2d       	mov	r31, r0
    4fc4:	c1 5d       	subi	r28, 0xD1	; 209
    4fc6:	da 4f       	sbci	r29, 0xFA	; 250
    4fc8:	f9 82       	std	Y+1, r15	; 0x01
    4fca:	e8 82       	st	Y, r14
    4fcc:	cf 52       	subi	r28, 0x2F	; 47
    4fce:	d5 40       	sbci	r29, 0x05	; 5
	ppm136[49] = 59;
    4fd0:	0f 2e       	mov	r0, r31
    4fd2:	fb e3       	ldi	r31, 0x3B	; 59
    4fd4:	af 2e       	mov	r10, r31
    4fd6:	b1 2c       	mov	r11, r1
    4fd8:	f0 2d       	mov	r31, r0
    4fda:	cf 5c       	subi	r28, 0xCF	; 207
    4fdc:	da 4f       	sbci	r29, 0xFA	; 250
    4fde:	b9 82       	std	Y+1, r11	; 0x01
    4fe0:	a8 82       	st	Y, r10
    4fe2:	c1 53       	subi	r28, 0x31	; 49
    4fe4:	d5 40       	sbci	r29, 0x05	; 5
	ppm136[50] = 58;
    4fe6:	cd 5c       	subi	r28, 0xCD	; 205
    4fe8:	da 4f       	sbci	r29, 0xFA	; 250
    4fea:	19 83       	std	Y+1, r17	; 0x01
    4fec:	08 83       	st	Y, r16
    4fee:	c3 53       	subi	r28, 0x33	; 51
    4ff0:	d5 40       	sbci	r29, 0x05	; 5
	ppm136[51] = 57;
    4ff2:	0f 2e       	mov	r0, r31
    4ff4:	f9 e3       	ldi	r31, 0x39	; 57
    4ff6:	cf 2e       	mov	r12, r31
    4ff8:	d1 2c       	mov	r13, r1
    4ffa:	f0 2d       	mov	r31, r0
    4ffc:	cb 5c       	subi	r28, 0xCB	; 203
    4ffe:	da 4f       	sbci	r29, 0xFA	; 250
    5000:	d9 82       	std	Y+1, r13	; 0x01
    5002:	c8 82       	st	Y, r12
    5004:	c5 53       	subi	r28, 0x35	; 53
    5006:	d5 40       	sbci	r29, 0x05	; 5
	ppm136[52] = 56;
    5008:	c9 5c       	subi	r28, 0xC9	; 201
    500a:	da 4f       	sbci	r29, 0xFA	; 250
    500c:	b9 83       	std	Y+1, r27	; 0x01
    500e:	a8 83       	st	Y, r26
    5010:	c7 53       	subi	r28, 0x37	; 55
    5012:	d5 40       	sbci	r29, 0x05	; 5
	ppm136[53] = 55;
    5014:	c7 5c       	subi	r28, 0xC7	; 199
    5016:	da 4f       	sbci	r29, 0xFA	; 250
    5018:	f9 83       	std	Y+1, r31	; 0x01
    501a:	e8 83       	st	Y, r30
    501c:	c9 53       	subi	r28, 0x39	; 57
    501e:	d5 40       	sbci	r29, 0x05	; 5
	ppm136[54] = 54;
    5020:	c5 5c       	subi	r28, 0xC5	; 197
    5022:	da 4f       	sbci	r29, 0xFA	; 250
    5024:	79 83       	std	Y+1, r23	; 0x01
    5026:	68 83       	st	Y, r22
    5028:	cb 53       	subi	r28, 0x3B	; 59
    502a:	d5 40       	sbci	r29, 0x05	; 5
	ppm136[55] = 53;
    502c:	0f 2e       	mov	r0, r31
    502e:	f5 e3       	ldi	r31, 0x35	; 53
    5030:	ef 2e       	mov	r14, r31
    5032:	f1 2c       	mov	r15, r1
    5034:	f0 2d       	mov	r31, r0
    5036:	c3 5c       	subi	r28, 0xC3	; 195
    5038:	da 4f       	sbci	r29, 0xFA	; 250
    503a:	f9 82       	std	Y+1, r15	; 0x01
    503c:	e8 82       	st	Y, r14
    503e:	cd 53       	subi	r28, 0x3D	; 61
    5040:	d5 40       	sbci	r29, 0x05	; 5
	ppm136[56] = 52;
    5042:	c1 5c       	subi	r28, 0xC1	; 193
    5044:	da 4f       	sbci	r29, 0xFA	; 250
    5046:	59 83       	std	Y+1, r21	; 0x01
    5048:	48 83       	st	Y, r20
    504a:	cf 53       	subi	r28, 0x3F	; 63
    504c:	d5 40       	sbci	r29, 0x05	; 5
	ppm136[57] = 50;
    504e:	cf 5b       	subi	r28, 0xBF	; 191
    5050:	da 4f       	sbci	r29, 0xFA	; 250
    5052:	39 83       	std	Y+1, r19	; 0x01
    5054:	28 83       	st	Y, r18
    5056:	c1 54       	subi	r28, 0x41	; 65
    5058:	d5 40       	sbci	r29, 0x05	; 5
	ppm136[58] = 49;
    505a:	cd 5b       	subi	r28, 0xBD	; 189
    505c:	da 4f       	sbci	r29, 0xFA	; 250
    505e:	99 83       	std	Y+1, r25	; 0x01
    5060:	88 83       	st	Y, r24
    5062:	c3 54       	subi	r28, 0x43	; 67
    5064:	d5 40       	sbci	r29, 0x05	; 5
	ppm136[59] = 49;
    5066:	cb 5b       	subi	r28, 0xBB	; 187
    5068:	da 4f       	sbci	r29, 0xFA	; 250
    506a:	99 83       	std	Y+1, r25	; 0x01
    506c:	88 83       	st	Y, r24
    506e:	c5 54       	subi	r28, 0x45	; 69
    5070:	d5 40       	sbci	r29, 0x05	; 5
	ppm136[60] = 48;
    5072:	80 e3       	ldi	r24, 0x30	; 48
    5074:	90 e0       	ldi	r25, 0x00	; 0
    5076:	c9 5b       	subi	r28, 0xB9	; 185
    5078:	da 4f       	sbci	r29, 0xFA	; 250
    507a:	99 83       	std	Y+1, r25	; 0x01
    507c:	88 83       	st	Y, r24
    507e:	c7 54       	subi	r28, 0x47	; 71
    5080:	d5 40       	sbci	r29, 0x05	; 5
	ppm136[61] = 47;
    5082:	8f e2       	ldi	r24, 0x2F	; 47
    5084:	90 e0       	ldi	r25, 0x00	; 0
    5086:	c7 5b       	subi	r28, 0xB7	; 183
    5088:	da 4f       	sbci	r29, 0xFA	; 250
    508a:	99 83       	std	Y+1, r25	; 0x01
    508c:	88 83       	st	Y, r24
    508e:	c9 54       	subi	r28, 0x49	; 73
    5090:	d5 40       	sbci	r29, 0x05	; 5
	ppm136[62] = 46;
    5092:	8e e2       	ldi	r24, 0x2E	; 46
    5094:	90 e0       	ldi	r25, 0x00	; 0
    5096:	c5 5b       	subi	r28, 0xB5	; 181
    5098:	da 4f       	sbci	r29, 0xFA	; 250
    509a:	99 83       	std	Y+1, r25	; 0x01
    509c:	88 83       	st	Y, r24
    509e:	cb 54       	subi	r28, 0x4B	; 75
    50a0:	d5 40       	sbci	r29, 0x05	; 5
	ppm136[63] = 45;
    50a2:	8d e2       	ldi	r24, 0x2D	; 45
    50a4:	90 e0       	ldi	r25, 0x00	; 0
    50a6:	c3 5b       	subi	r28, 0xB3	; 179
    50a8:	da 4f       	sbci	r29, 0xFA	; 250
    50aa:	99 83       	std	Y+1, r25	; 0x01
    50ac:	88 83       	st	Y, r24
    50ae:	cd 54       	subi	r28, 0x4D	; 77
    50b0:	d5 40       	sbci	r29, 0x05	; 5
	ppm136[64] = 44;
    50b2:	8c e2       	ldi	r24, 0x2C	; 44
    50b4:	90 e0       	ldi	r25, 0x00	; 0
    50b6:	c1 5b       	subi	r28, 0xB1	; 177
    50b8:	da 4f       	sbci	r29, 0xFA	; 250
    50ba:	99 83       	std	Y+1, r25	; 0x01
    50bc:	88 83       	st	Y, r24
    50be:	cf 54       	subi	r28, 0x4F	; 79
    50c0:	d5 40       	sbci	r29, 0x05	; 5
	ppm136[65] = 43;
    50c2:	8b e2       	ldi	r24, 0x2B	; 43
    50c4:	90 e0       	ldi	r25, 0x00	; 0
    50c6:	cf 5a       	subi	r28, 0xAF	; 175
    50c8:	da 4f       	sbci	r29, 0xFA	; 250
    50ca:	99 83       	std	Y+1, r25	; 0x01
    50cc:	88 83       	st	Y, r24
    50ce:	c1 55       	subi	r28, 0x51	; 81
    50d0:	d5 40       	sbci	r29, 0x05	; 5
	ppm136[66] = 42;
    50d2:	8a e2       	ldi	r24, 0x2A	; 42
    50d4:	90 e0       	ldi	r25, 0x00	; 0
    50d6:	cd 5a       	subi	r28, 0xAD	; 173
    50d8:	da 4f       	sbci	r29, 0xFA	; 250
    50da:	99 83       	std	Y+1, r25	; 0x01
    50dc:	88 83       	st	Y, r24
    50de:	c3 55       	subi	r28, 0x53	; 83
    50e0:	d5 40       	sbci	r29, 0x05	; 5
	ppm136[67] = 42;
    50e2:	cb 5a       	subi	r28, 0xAB	; 171
    50e4:	da 4f       	sbci	r29, 0xFA	; 250
    50e6:	99 83       	std	Y+1, r25	; 0x01
    50e8:	88 83       	st	Y, r24
    50ea:	c5 55       	subi	r28, 0x55	; 85
    50ec:	d5 40       	sbci	r29, 0x05	; 5
	ppm136[68] = 41;
    50ee:	89 e2       	ldi	r24, 0x29	; 41
    50f0:	90 e0       	ldi	r25, 0x00	; 0
    50f2:	c9 5a       	subi	r28, 0xA9	; 169
    50f4:	da 4f       	sbci	r29, 0xFA	; 250
    50f6:	99 83       	std	Y+1, r25	; 0x01
    50f8:	88 83       	st	Y, r24
    50fa:	c7 55       	subi	r28, 0x57	; 87
    50fc:	d5 40       	sbci	r29, 0x05	; 5
	ppm136[69] = 40;
    50fe:	88 e2       	ldi	r24, 0x28	; 40
    5100:	90 e0       	ldi	r25, 0x00	; 0
    5102:	c7 5a       	subi	r28, 0xA7	; 167
    5104:	da 4f       	sbci	r29, 0xFA	; 250
    5106:	99 83       	std	Y+1, r25	; 0x01
    5108:	88 83       	st	Y, r24
    510a:	c9 55       	subi	r28, 0x59	; 89
    510c:	d5 40       	sbci	r29, 0x05	; 5
	ppm136[70] = 39;
    510e:	87 e2       	ldi	r24, 0x27	; 39
    5110:	90 e0       	ldi	r25, 0x00	; 0
    5112:	c5 5a       	subi	r28, 0xA5	; 165
    5114:	da 4f       	sbci	r29, 0xFA	; 250
    5116:	99 83       	std	Y+1, r25	; 0x01
    5118:	88 83       	st	Y, r24
    511a:	cb 55       	subi	r28, 0x5B	; 91
    511c:	d5 40       	sbci	r29, 0x05	; 5
	ppm136[71] = 39;
    511e:	c3 5a       	subi	r28, 0xA3	; 163
    5120:	da 4f       	sbci	r29, 0xFA	; 250
    5122:	99 83       	std	Y+1, r25	; 0x01
    5124:	88 83       	st	Y, r24
    5126:	cd 55       	subi	r28, 0x5D	; 93
    5128:	d5 40       	sbci	r29, 0x05	; 5
	ppm136[72] = 38;
    512a:	86 e2       	ldi	r24, 0x26	; 38
    512c:	90 e0       	ldi	r25, 0x00	; 0
    512e:	c1 5a       	subi	r28, 0xA1	; 161
    5130:	da 4f       	sbci	r29, 0xFA	; 250
    5132:	99 83       	std	Y+1, r25	; 0x01
    5134:	88 83       	st	Y, r24
    5136:	cf 55       	subi	r28, 0x5F	; 95
    5138:	d5 40       	sbci	r29, 0x05	; 5
	ppm136[73] = 37;
    513a:	85 e2       	ldi	r24, 0x25	; 37
    513c:	90 e0       	ldi	r25, 0x00	; 0
    513e:	cf 59       	subi	r28, 0x9F	; 159
    5140:	da 4f       	sbci	r29, 0xFA	; 250
    5142:	99 83       	std	Y+1, r25	; 0x01
    5144:	88 83       	st	Y, r24
    5146:	c1 56       	subi	r28, 0x61	; 97
    5148:	d5 40       	sbci	r29, 0x05	; 5
	ppm136[74] = 37;
    514a:	cd 59       	subi	r28, 0x9D	; 157
    514c:	da 4f       	sbci	r29, 0xFA	; 250
    514e:	99 83       	std	Y+1, r25	; 0x01
    5150:	88 83       	st	Y, r24
    5152:	c3 56       	subi	r28, 0x63	; 99
    5154:	d5 40       	sbci	r29, 0x05	; 5
	ppm136[75] = 36;
    5156:	84 e2       	ldi	r24, 0x24	; 36
    5158:	90 e0       	ldi	r25, 0x00	; 0
    515a:	cb 59       	subi	r28, 0x9B	; 155
    515c:	da 4f       	sbci	r29, 0xFA	; 250
    515e:	99 83       	std	Y+1, r25	; 0x01
    5160:	88 83       	st	Y, r24
    5162:	c5 56       	subi	r28, 0x65	; 101
    5164:	d5 40       	sbci	r29, 0x05	; 5
	ppm136[76] = 35;
    5166:	83 e2       	ldi	r24, 0x23	; 35
    5168:	90 e0       	ldi	r25, 0x00	; 0
    516a:	c9 59       	subi	r28, 0x99	; 153
    516c:	da 4f       	sbci	r29, 0xFA	; 250
    516e:	99 83       	std	Y+1, r25	; 0x01
    5170:	88 83       	st	Y, r24
    5172:	c7 56       	subi	r28, 0x67	; 103
    5174:	d5 40       	sbci	r29, 0x05	; 5
	ppm136[77] = 35;
    5176:	c7 59       	subi	r28, 0x97	; 151
    5178:	da 4f       	sbci	r29, 0xFA	; 250
    517a:	99 83       	std	Y+1, r25	; 0x01
    517c:	88 83       	st	Y, r24
    517e:	c9 56       	subi	r28, 0x69	; 105
    5180:	d5 40       	sbci	r29, 0x05	; 5
	ppm136[78] = 34;
    5182:	82 e2       	ldi	r24, 0x22	; 34
    5184:	90 e0       	ldi	r25, 0x00	; 0
    5186:	c5 59       	subi	r28, 0x95	; 149
    5188:	da 4f       	sbci	r29, 0xFA	; 250
    518a:	99 83       	std	Y+1, r25	; 0x01
    518c:	88 83       	st	Y, r24
    518e:	cb 56       	subi	r28, 0x6B	; 107
    5190:	d5 40       	sbci	r29, 0x05	; 5
	ppm136[79] = 33;
    5192:	ef ec       	ldi	r30, 0xCF	; 207
    5194:	f4 e0       	ldi	r31, 0x04	; 4
    5196:	ec 0f       	add	r30, r28
    5198:	fd 1f       	adc	r31, r29
    519a:	e2 56       	subi	r30, 0x62	; 98
    519c:	ff 4f       	sbci	r31, 0xFF	; 255
    519e:	81 e2       	ldi	r24, 0x21	; 33
    51a0:	90 e0       	ldi	r25, 0x00	; 0
    51a2:	91 83       	std	Z+1, r25	; 0x01
    51a4:	80 83       	st	Z, r24
	ppm136[80] = 33;
    51a6:	c1 59       	subi	r28, 0x91	; 145
    51a8:	da 4f       	sbci	r29, 0xFA	; 250
    51aa:	99 83       	std	Y+1, r25	; 0x01
    51ac:	88 83       	st	Y, r24
    51ae:	cf 56       	subi	r28, 0x6F	; 111
    51b0:	d5 40       	sbci	r29, 0x05	; 5
	ppm136[81] = 32;
    51b2:	80 e2       	ldi	r24, 0x20	; 32
    51b4:	90 e0       	ldi	r25, 0x00	; 0
    51b6:	cf 58       	subi	r28, 0x8F	; 143
    51b8:	da 4f       	sbci	r29, 0xFA	; 250
    51ba:	99 83       	std	Y+1, r25	; 0x01
    51bc:	88 83       	st	Y, r24
    51be:	c1 57       	subi	r28, 0x71	; 113
    51c0:	d5 40       	sbci	r29, 0x05	; 5
	ppm136[82] = 32;
    51c2:	cd 58       	subi	r28, 0x8D	; 141
    51c4:	da 4f       	sbci	r29, 0xFA	; 250
    51c6:	99 83       	std	Y+1, r25	; 0x01
    51c8:	88 83       	st	Y, r24
    51ca:	c3 57       	subi	r28, 0x73	; 115
    51cc:	d5 40       	sbci	r29, 0x05	; 5
	ppm136[83] = 31;
    51ce:	8f e1       	ldi	r24, 0x1F	; 31
    51d0:	90 e0       	ldi	r25, 0x00	; 0
    51d2:	cb 58       	subi	r28, 0x8B	; 139
    51d4:	da 4f       	sbci	r29, 0xFA	; 250
    51d6:	99 83       	std	Y+1, r25	; 0x01
    51d8:	88 83       	st	Y, r24
    51da:	c5 57       	subi	r28, 0x75	; 117
    51dc:	d5 40       	sbci	r29, 0x05	; 5
	ppm136[84] = 31;
    51de:	c9 58       	subi	r28, 0x89	; 137
    51e0:	da 4f       	sbci	r29, 0xFA	; 250
    51e2:	99 83       	std	Y+1, r25	; 0x01
    51e4:	88 83       	st	Y, r24
    51e6:	c7 57       	subi	r28, 0x77	; 119
    51e8:	d5 40       	sbci	r29, 0x05	; 5
	ppm136[85] = 30;
    51ea:	8e e1       	ldi	r24, 0x1E	; 30
    51ec:	90 e0       	ldi	r25, 0x00	; 0
    51ee:	c7 58       	subi	r28, 0x87	; 135
    51f0:	da 4f       	sbci	r29, 0xFA	; 250
    51f2:	99 83       	std	Y+1, r25	; 0x01
    51f4:	88 83       	st	Y, r24
    51f6:	c9 57       	subi	r28, 0x79	; 121
    51f8:	d5 40       	sbci	r29, 0x05	; 5
	ppm136[86] = 30;
    51fa:	c5 58       	subi	r28, 0x85	; 133
    51fc:	da 4f       	sbci	r29, 0xFA	; 250
    51fe:	99 83       	std	Y+1, r25	; 0x01
    5200:	88 83       	st	Y, r24
    5202:	cb 57       	subi	r28, 0x7B	; 123
    5204:	d5 40       	sbci	r29, 0x05	; 5
	ppm136[87] = 29;
    5206:	8d e1       	ldi	r24, 0x1D	; 29
    5208:	90 e0       	ldi	r25, 0x00	; 0
    520a:	c3 58       	subi	r28, 0x83	; 131
    520c:	da 4f       	sbci	r29, 0xFA	; 250
    520e:	99 83       	std	Y+1, r25	; 0x01
    5210:	88 83       	st	Y, r24
    5212:	cd 57       	subi	r28, 0x7D	; 125
    5214:	d5 40       	sbci	r29, 0x05	; 5
	ppm136[88] = 29;
    5216:	c1 58       	subi	r28, 0x81	; 129
    5218:	da 4f       	sbci	r29, 0xFA	; 250
    521a:	99 83       	std	Y+1, r25	; 0x01
    521c:	88 83       	st	Y, r24
    521e:	cf 57       	subi	r28, 0x7F	; 127
    5220:	d5 40       	sbci	r29, 0x05	; 5
	ppm136[89] = 28;
    5222:	8c e1       	ldi	r24, 0x1C	; 28
    5224:	90 e0       	ldi	r25, 0x00	; 0
    5226:	cf 57       	subi	r28, 0x7F	; 127
    5228:	da 4f       	sbci	r29, 0xFA	; 250
    522a:	99 83       	std	Y+1, r25	; 0x01
    522c:	88 83       	st	Y, r24
    522e:	c1 58       	subi	r28, 0x81	; 129
    5230:	d5 40       	sbci	r29, 0x05	; 5
	ppm136[90] = 28;
    5232:	cd 57       	subi	r28, 0x7D	; 125
    5234:	da 4f       	sbci	r29, 0xFA	; 250
    5236:	99 83       	std	Y+1, r25	; 0x01
    5238:	88 83       	st	Y, r24
    523a:	c3 58       	subi	r28, 0x83	; 131
    523c:	d5 40       	sbci	r29, 0x05	; 5
	ppm136[91] = 27;
    523e:	8b e1       	ldi	r24, 0x1B	; 27
    5240:	90 e0       	ldi	r25, 0x00	; 0
    5242:	cb 57       	subi	r28, 0x7B	; 123
    5244:	da 4f       	sbci	r29, 0xFA	; 250
    5246:	99 83       	std	Y+1, r25	; 0x01
    5248:	88 83       	st	Y, r24
    524a:	c5 58       	subi	r28, 0x85	; 133
    524c:	d5 40       	sbci	r29, 0x05	; 5
	ppm136[92] = 27;
    524e:	c9 57       	subi	r28, 0x79	; 121
    5250:	da 4f       	sbci	r29, 0xFA	; 250
    5252:	99 83       	std	Y+1, r25	; 0x01
    5254:	88 83       	st	Y, r24
    5256:	c7 58       	subi	r28, 0x87	; 135
    5258:	d5 40       	sbci	r29, 0x05	; 5
	ppm136[93] = 26;
    525a:	8a e1       	ldi	r24, 0x1A	; 26
    525c:	90 e0       	ldi	r25, 0x00	; 0
    525e:	c7 57       	subi	r28, 0x77	; 119
    5260:	da 4f       	sbci	r29, 0xFA	; 250
    5262:	99 83       	std	Y+1, r25	; 0x01
    5264:	88 83       	st	Y, r24
    5266:	c9 58       	subi	r28, 0x89	; 137
    5268:	d5 40       	sbci	r29, 0x05	; 5
	ppm136[94] = 26;
    526a:	c5 57       	subi	r28, 0x75	; 117
    526c:	da 4f       	sbci	r29, 0xFA	; 250
    526e:	99 83       	std	Y+1, r25	; 0x01
    5270:	88 83       	st	Y, r24
    5272:	cb 58       	subi	r28, 0x8B	; 139
    5274:	d5 40       	sbci	r29, 0x05	; 5
	ppm136[95] = 25;
    5276:	89 e1       	ldi	r24, 0x19	; 25
    5278:	90 e0       	ldi	r25, 0x00	; 0
    527a:	c3 57       	subi	r28, 0x73	; 115
    527c:	da 4f       	sbci	r29, 0xFA	; 250
    527e:	99 83       	std	Y+1, r25	; 0x01
    5280:	88 83       	st	Y, r24
    5282:	cd 58       	subi	r28, 0x8D	; 141
    5284:	d5 40       	sbci	r29, 0x05	; 5
	ppm136[96] = 25;
    5286:	c1 57       	subi	r28, 0x71	; 113
    5288:	da 4f       	sbci	r29, 0xFA	; 250
    528a:	99 83       	std	Y+1, r25	; 0x01
    528c:	88 83       	st	Y, r24
    528e:	cf 58       	subi	r28, 0x8F	; 143
    5290:	d5 40       	sbci	r29, 0x05	; 5
	ppm136[97] = 25;
    5292:	cf 56       	subi	r28, 0x6F	; 111
    5294:	da 4f       	sbci	r29, 0xFA	; 250
    5296:	99 83       	std	Y+1, r25	; 0x01
    5298:	88 83       	st	Y, r24
    529a:	c1 59       	subi	r28, 0x91	; 145
    529c:	d5 40       	sbci	r29, 0x05	; 5
	ppm136[98] = 24;
    529e:	88 e1       	ldi	r24, 0x18	; 24
    52a0:	90 e0       	ldi	r25, 0x00	; 0
    52a2:	cd 56       	subi	r28, 0x6D	; 109
    52a4:	da 4f       	sbci	r29, 0xFA	; 250
    52a6:	99 83       	std	Y+1, r25	; 0x01
    52a8:	88 83       	st	Y, r24
    52aa:	c3 59       	subi	r28, 0x93	; 147
    52ac:	d5 40       	sbci	r29, 0x05	; 5
	ppm136[99] = 24;
    52ae:	cb 56       	subi	r28, 0x6B	; 107
    52b0:	da 4f       	sbci	r29, 0xFA	; 250
    52b2:	99 83       	std	Y+1, r25	; 0x01
    52b4:	88 83       	st	Y, r24
    52b6:	c5 59       	subi	r28, 0x95	; 149
    52b8:	d5 40       	sbci	r29, 0x05	; 5
	ppm136[100] = 23;
    52ba:	87 e1       	ldi	r24, 0x17	; 23
    52bc:	90 e0       	ldi	r25, 0x00	; 0
    52be:	c9 56       	subi	r28, 0x69	; 105
    52c0:	da 4f       	sbci	r29, 0xFA	; 250
    52c2:	99 83       	std	Y+1, r25	; 0x01
    52c4:	88 83       	st	Y, r24
    52c6:	c7 59       	subi	r28, 0x97	; 151
    52c8:	d5 40       	sbci	r29, 0x05	; 5
	ppm136[101] = 23;
    52ca:	c7 56       	subi	r28, 0x67	; 103
    52cc:	da 4f       	sbci	r29, 0xFA	; 250
    52ce:	99 83       	std	Y+1, r25	; 0x01
    52d0:	88 83       	st	Y, r24
    52d2:	c9 59       	subi	r28, 0x99	; 153
    52d4:	d5 40       	sbci	r29, 0x05	; 5
	ppm136[102] = 23;
    52d6:	c5 56       	subi	r28, 0x65	; 101
    52d8:	da 4f       	sbci	r29, 0xFA	; 250
    52da:	99 83       	std	Y+1, r25	; 0x01
    52dc:	88 83       	st	Y, r24
    52de:	cb 59       	subi	r28, 0x9B	; 155
    52e0:	d5 40       	sbci	r29, 0x05	; 5
	ppm136[103] = 22;
    52e2:	86 e1       	ldi	r24, 0x16	; 22
    52e4:	90 e0       	ldi	r25, 0x00	; 0
    52e6:	c3 56       	subi	r28, 0x63	; 99
    52e8:	da 4f       	sbci	r29, 0xFA	; 250
    52ea:	99 83       	std	Y+1, r25	; 0x01
    52ec:	88 83       	st	Y, r24
    52ee:	cd 59       	subi	r28, 0x9D	; 157
    52f0:	d5 40       	sbci	r29, 0x05	; 5
	ppm136[104] = 22;
    52f2:	c1 56       	subi	r28, 0x61	; 97
    52f4:	da 4f       	sbci	r29, 0xFA	; 250
    52f6:	99 83       	std	Y+1, r25	; 0x01
    52f8:	88 83       	st	Y, r24
    52fa:	cf 59       	subi	r28, 0x9F	; 159
    52fc:	d5 40       	sbci	r29, 0x05	; 5
	ppm136[105] = 22;
    52fe:	cf 55       	subi	r28, 0x5F	; 95
    5300:	da 4f       	sbci	r29, 0xFA	; 250
    5302:	99 83       	std	Y+1, r25	; 0x01
    5304:	88 83       	st	Y, r24
    5306:	c1 5a       	subi	r28, 0xA1	; 161
    5308:	d5 40       	sbci	r29, 0x05	; 5
	ppm136[106] = 21;
    530a:	85 e1       	ldi	r24, 0x15	; 21
    530c:	90 e0       	ldi	r25, 0x00	; 0
    530e:	cd 55       	subi	r28, 0x5D	; 93
    5310:	da 4f       	sbci	r29, 0xFA	; 250
    5312:	99 83       	std	Y+1, r25	; 0x01
    5314:	88 83       	st	Y, r24
    5316:	c3 5a       	subi	r28, 0xA3	; 163
    5318:	d5 40       	sbci	r29, 0x05	; 5
	ppm136[107] = 21;
    531a:	cb 55       	subi	r28, 0x5B	; 91
    531c:	da 4f       	sbci	r29, 0xFA	; 250
    531e:	99 83       	std	Y+1, r25	; 0x01
    5320:	88 83       	st	Y, r24
    5322:	c5 5a       	subi	r28, 0xA5	; 165
    5324:	d5 40       	sbci	r29, 0x05	; 5
	ppm136[108] = 21;
    5326:	c9 55       	subi	r28, 0x59	; 89
    5328:	da 4f       	sbci	r29, 0xFA	; 250
    532a:	99 83       	std	Y+1, r25	; 0x01
    532c:	88 83       	st	Y, r24
    532e:	c7 5a       	subi	r28, 0xA7	; 167
    5330:	d5 40       	sbci	r29, 0x05	; 5
	ppm136[109] = 20;
    5332:	84 e1       	ldi	r24, 0x14	; 20
    5334:	90 e0       	ldi	r25, 0x00	; 0
    5336:	c7 55       	subi	r28, 0x57	; 87
    5338:	da 4f       	sbci	r29, 0xFA	; 250
    533a:	99 83       	std	Y+1, r25	; 0x01
    533c:	88 83       	st	Y, r24
    533e:	c9 5a       	subi	r28, 0xA9	; 169
    5340:	d5 40       	sbci	r29, 0x05	; 5
	ppm136[110] = 20;
    5342:	c5 55       	subi	r28, 0x55	; 85
    5344:	da 4f       	sbci	r29, 0xFA	; 250
    5346:	99 83       	std	Y+1, r25	; 0x01
    5348:	88 83       	st	Y, r24
    534a:	cb 5a       	subi	r28, 0xAB	; 171
    534c:	d5 40       	sbci	r29, 0x05	; 5
	ppm136[111] = 20;
    534e:	c3 55       	subi	r28, 0x53	; 83
    5350:	da 4f       	sbci	r29, 0xFA	; 250
    5352:	99 83       	std	Y+1, r25	; 0x01
    5354:	88 83       	st	Y, r24
    5356:	cd 5a       	subi	r28, 0xAD	; 173
    5358:	d5 40       	sbci	r29, 0x05	; 5
	ppm136[112] = 19;
    535a:	83 e1       	ldi	r24, 0x13	; 19
    535c:	90 e0       	ldi	r25, 0x00	; 0
    535e:	c1 55       	subi	r28, 0x51	; 81
    5360:	da 4f       	sbci	r29, 0xFA	; 250
    5362:	99 83       	std	Y+1, r25	; 0x01
    5364:	88 83       	st	Y, r24
    5366:	cf 5a       	subi	r28, 0xAF	; 175
    5368:	d5 40       	sbci	r29, 0x05	; 5
	ppm136[113] = 19;
    536a:	cf 54       	subi	r28, 0x4F	; 79
    536c:	da 4f       	sbci	r29, 0xFA	; 250
    536e:	99 83       	std	Y+1, r25	; 0x01
    5370:	88 83       	st	Y, r24
    5372:	c1 5b       	subi	r28, 0xB1	; 177
    5374:	d5 40       	sbci	r29, 0x05	; 5
	ppm136[114] = 19;
    5376:	cd 54       	subi	r28, 0x4D	; 77
    5378:	da 4f       	sbci	r29, 0xFA	; 250
    537a:	99 83       	std	Y+1, r25	; 0x01
    537c:	88 83       	st	Y, r24
    537e:	c3 5b       	subi	r28, 0xB3	; 179
    5380:	d5 40       	sbci	r29, 0x05	; 5
	ppm136[115] = 19;
    5382:	cb 54       	subi	r28, 0x4B	; 75
    5384:	da 4f       	sbci	r29, 0xFA	; 250
    5386:	99 83       	std	Y+1, r25	; 0x01
    5388:	88 83       	st	Y, r24
    538a:	c5 5b       	subi	r28, 0xB5	; 181
    538c:	d5 40       	sbci	r29, 0x05	; 5
	ppm136[116] = 18;
    538e:	82 e1       	ldi	r24, 0x12	; 18
    5390:	90 e0       	ldi	r25, 0x00	; 0
    5392:	c9 54       	subi	r28, 0x49	; 73
    5394:	da 4f       	sbci	r29, 0xFA	; 250
    5396:	99 83       	std	Y+1, r25	; 0x01
    5398:	88 83       	st	Y, r24
    539a:	c7 5b       	subi	r28, 0xB7	; 183
    539c:	d5 40       	sbci	r29, 0x05	; 5
	ppm136[117] = 18;
    539e:	c7 54       	subi	r28, 0x47	; 71
    53a0:	da 4f       	sbci	r29, 0xFA	; 250
    53a2:	99 83       	std	Y+1, r25	; 0x01
    53a4:	88 83       	st	Y, r24
    53a6:	c9 5b       	subi	r28, 0xB9	; 185
    53a8:	d5 40       	sbci	r29, 0x05	; 5
	ppm136[118] = 18;
    53aa:	c5 54       	subi	r28, 0x45	; 69
    53ac:	da 4f       	sbci	r29, 0xFA	; 250
    53ae:	99 83       	std	Y+1, r25	; 0x01
    53b0:	88 83       	st	Y, r24
    53b2:	cb 5b       	subi	r28, 0xBB	; 187
    53b4:	d5 40       	sbci	r29, 0x05	; 5
	ppm136[119] = 17;
    53b6:	81 e1       	ldi	r24, 0x11	; 17
    53b8:	90 e0       	ldi	r25, 0x00	; 0
    53ba:	c3 54       	subi	r28, 0x43	; 67
    53bc:	da 4f       	sbci	r29, 0xFA	; 250
    53be:	99 83       	std	Y+1, r25	; 0x01
    53c0:	88 83       	st	Y, r24
    53c2:	cd 5b       	subi	r28, 0xBD	; 189
    53c4:	d5 40       	sbci	r29, 0x05	; 5
	ppm136[120] = 17;
    53c6:	c1 54       	subi	r28, 0x41	; 65
    53c8:	da 4f       	sbci	r29, 0xFA	; 250
    53ca:	99 83       	std	Y+1, r25	; 0x01
    53cc:	88 83       	st	Y, r24
    53ce:	cf 5b       	subi	r28, 0xBF	; 191
    53d0:	d5 40       	sbci	r29, 0x05	; 5
	ppm136[121] = 17;
    53d2:	cf 53       	subi	r28, 0x3F	; 63
    53d4:	da 4f       	sbci	r29, 0xFA	; 250
    53d6:	99 83       	std	Y+1, r25	; 0x01
    53d8:	88 83       	st	Y, r24
    53da:	c1 5c       	subi	r28, 0xC1	; 193
    53dc:	d5 40       	sbci	r29, 0x05	; 5
	ppm136[122] = 17;
    53de:	cd 53       	subi	r28, 0x3D	; 61
    53e0:	da 4f       	sbci	r29, 0xFA	; 250
    53e2:	99 83       	std	Y+1, r25	; 0x01
    53e4:	88 83       	st	Y, r24
    53e6:	c3 5c       	subi	r28, 0xC3	; 195
    53e8:	d5 40       	sbci	r29, 0x05	; 5
	ppm136[123] = 16;
    53ea:	80 e1       	ldi	r24, 0x10	; 16
    53ec:	90 e0       	ldi	r25, 0x00	; 0
    53ee:	cb 53       	subi	r28, 0x3B	; 59
    53f0:	da 4f       	sbci	r29, 0xFA	; 250
    53f2:	99 83       	std	Y+1, r25	; 0x01
    53f4:	88 83       	st	Y, r24
    53f6:	c5 5c       	subi	r28, 0xC5	; 197
    53f8:	d5 40       	sbci	r29, 0x05	; 5
	ppm136[124] = 16;
    53fa:	c9 53       	subi	r28, 0x39	; 57
    53fc:	da 4f       	sbci	r29, 0xFA	; 250
    53fe:	99 83       	std	Y+1, r25	; 0x01
    5400:	88 83       	st	Y, r24
    5402:	c7 5c       	subi	r28, 0xC7	; 199
    5404:	d5 40       	sbci	r29, 0x05	; 5
	ppm136[125] = 16;
    5406:	c7 53       	subi	r28, 0x37	; 55
    5408:	da 4f       	sbci	r29, 0xFA	; 250
    540a:	99 83       	std	Y+1, r25	; 0x01
    540c:	88 83       	st	Y, r24
    540e:	c9 5c       	subi	r28, 0xC9	; 201
    5410:	d5 40       	sbci	r29, 0x05	; 5
	ppm136[126] = 16;
    5412:	c5 53       	subi	r28, 0x35	; 53
    5414:	da 4f       	sbci	r29, 0xFA	; 250
    5416:	99 83       	std	Y+1, r25	; 0x01
    5418:	88 83       	st	Y, r24
    541a:	cb 5c       	subi	r28, 0xCB	; 203
    541c:	d5 40       	sbci	r29, 0x05	; 5
	ppm136[127] = 16;
    541e:	c3 53       	subi	r28, 0x33	; 51
    5420:	da 4f       	sbci	r29, 0xFA	; 250
    5422:	99 83       	std	Y+1, r25	; 0x01
    5424:	88 83       	st	Y, r24
    5426:	cd 5c       	subi	r28, 0xCD	; 205
    5428:	d5 40       	sbci	r29, 0x05	; 5
	ppm136[128] = 15;
    542a:	8f e0       	ldi	r24, 0x0F	; 15
    542c:	90 e0       	ldi	r25, 0x00	; 0
    542e:	c1 53       	subi	r28, 0x31	; 49
    5430:	da 4f       	sbci	r29, 0xFA	; 250
    5432:	99 83       	std	Y+1, r25	; 0x01
    5434:	88 83       	st	Y, r24
    5436:	cf 5c       	subi	r28, 0xCF	; 207
    5438:	d5 40       	sbci	r29, 0x05	; 5
	ppm136[129] = 15;
    543a:	cf 52       	subi	r28, 0x2F	; 47
    543c:	da 4f       	sbci	r29, 0xFA	; 250
    543e:	99 83       	std	Y+1, r25	; 0x01
    5440:	88 83       	st	Y, r24
    5442:	c1 5d       	subi	r28, 0xD1	; 209
    5444:	d5 40       	sbci	r29, 0x05	; 5
	ppm136[130] = 15;
    5446:	cd 52       	subi	r28, 0x2D	; 45
    5448:	da 4f       	sbci	r29, 0xFA	; 250
    544a:	99 83       	std	Y+1, r25	; 0x01
    544c:	88 83       	st	Y, r24
    544e:	c3 5d       	subi	r28, 0xD3	; 211
    5450:	d5 40       	sbci	r29, 0x05	; 5
	ppm136[131] = 15;
    5452:	cb 52       	subi	r28, 0x2B	; 43
    5454:	da 4f       	sbci	r29, 0xFA	; 250
    5456:	99 83       	std	Y+1, r25	; 0x01
    5458:	88 83       	st	Y, r24
    545a:	c5 5d       	subi	r28, 0xD5	; 213
    545c:	d5 40       	sbci	r29, 0x05	; 5
	ppm136[132] = 14;
    545e:	8e e0       	ldi	r24, 0x0E	; 14
    5460:	90 e0       	ldi	r25, 0x00	; 0
    5462:	c9 52       	subi	r28, 0x29	; 41
    5464:	da 4f       	sbci	r29, 0xFA	; 250
    5466:	99 83       	std	Y+1, r25	; 0x01
    5468:	88 83       	st	Y, r24
    546a:	c7 5d       	subi	r28, 0xD7	; 215
    546c:	d5 40       	sbci	r29, 0x05	; 5
	ppm136[133] = 14;
    546e:	c7 52       	subi	r28, 0x27	; 39
    5470:	da 4f       	sbci	r29, 0xFA	; 250
    5472:	99 83       	std	Y+1, r25	; 0x01
    5474:	88 83       	st	Y, r24
    5476:	c9 5d       	subi	r28, 0xD9	; 217
    5478:	d5 40       	sbci	r29, 0x05	; 5
	ppm136[134] = 14;
    547a:	c5 52       	subi	r28, 0x25	; 37
    547c:	da 4f       	sbci	r29, 0xFA	; 250
    547e:	99 83       	std	Y+1, r25	; 0x01
    5480:	88 83       	st	Y, r24
    5482:	cb 5d       	subi	r28, 0xDB	; 219
    5484:	d5 40       	sbci	r29, 0x05	; 5
	ppm136[135] = 14;
    5486:	c3 52       	subi	r28, 0x23	; 35
    5488:	da 4f       	sbci	r29, 0xFA	; 250
    548a:	99 83       	std	Y+1, r25	; 0x01
    548c:	88 83       	st	Y, r24
    548e:	cd 5d       	subi	r28, 0xDD	; 221
    5490:	d5 40       	sbci	r29, 0x05	; 5
	ppm136[136] = 14;
    5492:	c1 52       	subi	r28, 0x21	; 33
    5494:	da 4f       	sbci	r29, 0xFA	; 250
    5496:	99 83       	std	Y+1, r25	; 0x01
    5498:	88 83       	st	Y, r24
    549a:	cf 5d       	subi	r28, 0xDF	; 223
    549c:	d5 40       	sbci	r29, 0x05	; 5
	ppm136[137] = 14;
    549e:	cf 51       	subi	r28, 0x1F	; 31
    54a0:	da 4f       	sbci	r29, 0xFA	; 250
    54a2:	99 83       	std	Y+1, r25	; 0x01
    54a4:	88 83       	st	Y, r24
    54a6:	c1 5e       	subi	r28, 0xE1	; 225
    54a8:	d5 40       	sbci	r29, 0x05	; 5
	ppm136[138] = 13;
    54aa:	8d e0       	ldi	r24, 0x0D	; 13
    54ac:	90 e0       	ldi	r25, 0x00	; 0
    54ae:	cd 51       	subi	r28, 0x1D	; 29
    54b0:	da 4f       	sbci	r29, 0xFA	; 250
    54b2:	99 83       	std	Y+1, r25	; 0x01
    54b4:	88 83       	st	Y, r24
    54b6:	c3 5e       	subi	r28, 0xE3	; 227
    54b8:	d5 40       	sbci	r29, 0x05	; 5
	ppm136[139] = 13;
    54ba:	cb 51       	subi	r28, 0x1B	; 27
    54bc:	da 4f       	sbci	r29, 0xFA	; 250
    54be:	99 83       	std	Y+1, r25	; 0x01
    54c0:	88 83       	st	Y, r24
    54c2:	c5 5e       	subi	r28, 0xE5	; 229
    54c4:	d5 40       	sbci	r29, 0x05	; 5
	ppm136[140] = 13;
    54c6:	c9 51       	subi	r28, 0x19	; 25
    54c8:	da 4f       	sbci	r29, 0xFA	; 250
    54ca:	99 83       	std	Y+1, r25	; 0x01
    54cc:	88 83       	st	Y, r24
    54ce:	c7 5e       	subi	r28, 0xE7	; 231
    54d0:	d5 40       	sbci	r29, 0x05	; 5
	ppm136[141] = 13;
    54d2:	c7 51       	subi	r28, 0x17	; 23
    54d4:	da 4f       	sbci	r29, 0xFA	; 250
    54d6:	99 83       	std	Y+1, r25	; 0x01
    54d8:	88 83       	st	Y, r24
    54da:	c9 5e       	subi	r28, 0xE9	; 233
    54dc:	d5 40       	sbci	r29, 0x05	; 5
	ppm136[142] = 13;
    54de:	c5 51       	subi	r28, 0x15	; 21
    54e0:	da 4f       	sbci	r29, 0xFA	; 250
    54e2:	99 83       	std	Y+1, r25	; 0x01
    54e4:	88 83       	st	Y, r24
    54e6:	cb 5e       	subi	r28, 0xEB	; 235
    54e8:	d5 40       	sbci	r29, 0x05	; 5
	ppm136[143] = 12;
    54ea:	8c e0       	ldi	r24, 0x0C	; 12
    54ec:	90 e0       	ldi	r25, 0x00	; 0
    54ee:	c3 51       	subi	r28, 0x13	; 19
    54f0:	da 4f       	sbci	r29, 0xFA	; 250
    54f2:	99 83       	std	Y+1, r25	; 0x01
    54f4:	88 83       	st	Y, r24
    54f6:	cd 5e       	subi	r28, 0xED	; 237
    54f8:	d5 40       	sbci	r29, 0x05	; 5
	ppm136[144] = 12;
    54fa:	c1 51       	subi	r28, 0x11	; 17
    54fc:	da 4f       	sbci	r29, 0xFA	; 250
    54fe:	99 83       	std	Y+1, r25	; 0x01
    5500:	88 83       	st	Y, r24
    5502:	cf 5e       	subi	r28, 0xEF	; 239
    5504:	d5 40       	sbci	r29, 0x05	; 5
	ppm136[145] = 12;
    5506:	cf 50       	subi	r28, 0x0F	; 15
    5508:	da 4f       	sbci	r29, 0xFA	; 250
    550a:	99 83       	std	Y+1, r25	; 0x01
    550c:	88 83       	st	Y, r24
    550e:	c1 5f       	subi	r28, 0xF1	; 241
    5510:	d5 40       	sbci	r29, 0x05	; 5
	ppm136[146] = 12;
    5512:	cd 50       	subi	r28, 0x0D	; 13
    5514:	da 4f       	sbci	r29, 0xFA	; 250
    5516:	99 83       	std	Y+1, r25	; 0x01
    5518:	88 83       	st	Y, r24
    551a:	c3 5f       	subi	r28, 0xF3	; 243
    551c:	d5 40       	sbci	r29, 0x05	; 5
	ppm136[147] = 12;
    551e:	cb 50       	subi	r28, 0x0B	; 11
    5520:	da 4f       	sbci	r29, 0xFA	; 250
    5522:	99 83       	std	Y+1, r25	; 0x01
    5524:	88 83       	st	Y, r24
    5526:	c5 5f       	subi	r28, 0xF5	; 245
    5528:	d5 40       	sbci	r29, 0x05	; 5
	ppm136[148] = 12;
    552a:	c9 50       	subi	r28, 0x09	; 9
    552c:	da 4f       	sbci	r29, 0xFA	; 250
    552e:	99 83       	std	Y+1, r25	; 0x01
    5530:	88 83       	st	Y, r24
    5532:	c7 5f       	subi	r28, 0xF7	; 247
    5534:	d5 40       	sbci	r29, 0x05	; 5
	ppm136[149] = 12;
    5536:	c7 50       	subi	r28, 0x07	; 7
    5538:	da 4f       	sbci	r29, 0xFA	; 250
    553a:	99 83       	std	Y+1, r25	; 0x01
    553c:	88 83       	st	Y, r24
    553e:	c9 5f       	subi	r28, 0xF9	; 249
    5540:	d5 40       	sbci	r29, 0x05	; 5
	ppm136[150] = 11;
    5542:	8b e0       	ldi	r24, 0x0B	; 11
    5544:	90 e0       	ldi	r25, 0x00	; 0
    5546:	c5 50       	subi	r28, 0x05	; 5
    5548:	da 4f       	sbci	r29, 0xFA	; 250
    554a:	99 83       	std	Y+1, r25	; 0x01
    554c:	88 83       	st	Y, r24
    554e:	cb 5f       	subi	r28, 0xFB	; 251
    5550:	d5 40       	sbci	r29, 0x05	; 5
	ppm136[151] = 11;
    5552:	c3 50       	subi	r28, 0x03	; 3
    5554:	da 4f       	sbci	r29, 0xFA	; 250
    5556:	99 83       	std	Y+1, r25	; 0x01
    5558:	88 83       	st	Y, r24
    555a:	cd 5f       	subi	r28, 0xFD	; 253
    555c:	d5 40       	sbci	r29, 0x05	; 5
	ppm136[152] = 11;
    555e:	c1 50       	subi	r28, 0x01	; 1
    5560:	da 4f       	sbci	r29, 0xFA	; 250
    5562:	99 83       	std	Y+1, r25	; 0x01
    5564:	88 83       	st	Y, r24
    5566:	cf 5f       	subi	r28, 0xFF	; 255
    5568:	d5 40       	sbci	r29, 0x05	; 5
	ppm136[153] = 11;
    556a:	cf 5f       	subi	r28, 0xFF	; 255
    556c:	d9 4f       	sbci	r29, 0xF9	; 249
    556e:	99 83       	std	Y+1, r25	; 0x01
    5570:	88 83       	st	Y, r24
    5572:	c1 50       	subi	r28, 0x01	; 1
    5574:	d6 40       	sbci	r29, 0x06	; 6
	ppm136[154] = 11;
    5576:	cd 5f       	subi	r28, 0xFD	; 253
    5578:	d9 4f       	sbci	r29, 0xF9	; 249
    557a:	99 83       	std	Y+1, r25	; 0x01
    557c:	88 83       	st	Y, r24
    557e:	c3 50       	subi	r28, 0x03	; 3
    5580:	d6 40       	sbci	r29, 0x06	; 6
	ppm136[155] = 11;
    5582:	cb 5f       	subi	r28, 0xFB	; 251
    5584:	d9 4f       	sbci	r29, 0xF9	; 249
    5586:	99 83       	std	Y+1, r25	; 0x01
    5588:	88 83       	st	Y, r24
    558a:	c5 50       	subi	r28, 0x05	; 5
    558c:	d6 40       	sbci	r29, 0x06	; 6
	ppm136[156] = 11;
    558e:	c9 5f       	subi	r28, 0xF9	; 249
    5590:	d9 4f       	sbci	r29, 0xF9	; 249
    5592:	99 83       	std	Y+1, r25	; 0x01
    5594:	88 83       	st	Y, r24
    5596:	c7 50       	subi	r28, 0x07	; 7
    5598:	d6 40       	sbci	r29, 0x06	; 6
	ppm136[157] = 10;
    559a:	8a e0       	ldi	r24, 0x0A	; 10
    559c:	90 e0       	ldi	r25, 0x00	; 0
    559e:	c7 5f       	subi	r28, 0xF7	; 247
    55a0:	d9 4f       	sbci	r29, 0xF9	; 249
    55a2:	99 83       	std	Y+1, r25	; 0x01
    55a4:	88 83       	st	Y, r24
    55a6:	c9 50       	subi	r28, 0x09	; 9
    55a8:	d6 40       	sbci	r29, 0x06	; 6
	ppm136[158] = 10;
    55aa:	c5 5f       	subi	r28, 0xF5	; 245
    55ac:	d9 4f       	sbci	r29, 0xF9	; 249
    55ae:	99 83       	std	Y+1, r25	; 0x01
    55b0:	88 83       	st	Y, r24
    55b2:	cb 50       	subi	r28, 0x0B	; 11
    55b4:	d6 40       	sbci	r29, 0x06	; 6
	ppm136[159] = 10;
    55b6:	c3 5f       	subi	r28, 0xF3	; 243
    55b8:	d9 4f       	sbci	r29, 0xF9	; 249
    55ba:	99 83       	std	Y+1, r25	; 0x01
    55bc:	88 83       	st	Y, r24
    55be:	cd 50       	subi	r28, 0x0D	; 13
    55c0:	d6 40       	sbci	r29, 0x06	; 6
	ppm136[160] = 10;
    55c2:	c1 5f       	subi	r28, 0xF1	; 241
    55c4:	d9 4f       	sbci	r29, 0xF9	; 249
    55c6:	99 83       	std	Y+1, r25	; 0x01
    55c8:	88 83       	st	Y, r24
    55ca:	cf 50       	subi	r28, 0x0F	; 15
    55cc:	d6 40       	sbci	r29, 0x06	; 6

	TCNT1 = 57723;
    55ce:	8b e7       	ldi	r24, 0x7B	; 123
    55d0:	91 ee       	ldi	r25, 0xE1	; 225
    55d2:	90 93 85 00 	sts	0x0085, r25
    55d6:	80 93 84 00 	sts	0x0084, r24
	TCCR1B = (1<<CS12) | (1<<CS10);
    55da:	85 e0       	ldi	r24, 0x05	; 5
    55dc:	80 93 81 00 	sts	0x0081, r24
	TIMSK1 = (1<<TOIE1);
    55e0:	81 e0       	ldi	r24, 0x01	; 1
    55e2:	80 93 6f 00 	sts	0x006F, r24
	usart_init(0);
    55e6:	80 e0       	ldi	r24, 0x00	; 0
    55e8:	90 e0       	ldi	r25, 0x00	; 0
    55ea:	0e 94 a4 14 	call	0x2948	; 0x2948 <usart_init>
	usart_init(1);
    55ee:	81 e0       	ldi	r24, 0x01	; 1
    55f0:	90 e0       	ldi	r25, 0x00	; 0
    55f2:	0e 94 a4 14 	call	0x2948	; 0x2948 <usart_init>
	usart_init(2);
    55f6:	82 e0       	ldi	r24, 0x02	; 2
    55f8:	90 e0       	ldi	r25, 0x00	; 0
    55fa:	0e 94 a4 14 	call	0x2948	; 0x2948 <usart_init>
	usart_init(3);
    55fe:	83 e0       	ldi	r24, 0x03	; 3
    5600:	90 e0       	ldi	r25, 0x00	; 0
    5602:	0e 94 a4 14 	call	0x2948	; 0x2948 <usart_init>
	init_GPS();
    5606:	0e 94 a4 17 	call	0x2f48	; 0x2f48 <init_GPS>
	F = 0;
	int f_num = 0;
	char tick = 10;
	char sd_valid = 0;
	f_mount(&FatFs, "", 0);		/* Give a work area to the default drive */
    560a:	40 e0       	ldi	r20, 0x00	; 0
    560c:	62 e7       	ldi	r22, 0x72	; 114
    560e:	75 e0       	ldi	r23, 0x05	; 5
    5610:	8e e7       	ldi	r24, 0x7E	; 126
    5612:	95 e0       	ldi	r25, 0x05	; 5
    5614:	0e 94 b2 0b 	call	0x1764	; 0x1764 <f_mount>
	sei();
    5618:	78 94       	sei
	usart_init(3);
	init_GPS();
	F = 0;
	int f_num = 0;
	char tick = 10;
	char sd_valid = 0;
    561a:	b1 2c       	mov	r11, r1
	usart_init(2);
	usart_init(3);
	init_GPS();
	F = 0;
	int f_num = 0;
	char tick = 10;
    561c:	0f 2e       	mov	r0, r31
    561e:	fa e0       	ldi	r31, 0x0A	; 10
    5620:	4f 2e       	mov	r4, r31
    5622:	f0 2d       	mov	r31, r0
	usart_init(1);
	usart_init(2);
	usart_init(3);
	init_GPS();
	F = 0;
	int f_num = 0;
    5624:	81 2c       	mov	r8, r1
    5626:	91 2c       	mov	r9, r1
	char buffer[30];
	int GPS_data[15];
	int dylos_data[2];
	int C3H8, CH4, CO, H2S, F;
	char new_GPS_data = 0;
	char new_dylos_data = 0;
    5628:	31 2c       	mov	r3, r1
	char sd_buff[150];
	char buffer[30];
	int GPS_data[15];
	int dylos_data[2];
	int C3H8, CH4, CO, H2S, F;
	char new_GPS_data = 0;
    562a:	ce 5e       	subi	r28, 0xEE	; 238
    562c:	d9 4f       	sbci	r29, 0xF9	; 249
    562e:	18 82       	st	Y, r1
    5630:	c2 51       	subi	r28, 0x12	; 18
    5632:	d6 40       	sbci	r29, 0x06	; 6
{
	DDRF = 0;
	char GPS[100];
	char dylos[10];
	char GPS_line = 0;
	char dylos_line = 0;
    5634:	cf 5e       	subi	r28, 0xEF	; 239
    5636:	d9 4f       	sbci	r29, 0xF9	; 249
    5638:	18 82       	st	Y, r1
    563a:	c1 51       	subi	r28, 0x11	; 17
    563c:	d6 40       	sbci	r29, 0x06	; 6
int main(void)
{
	DDRF = 0;
	char GPS[100];
	char dylos[10];
	char GPS_line = 0;
    563e:	51 2c       	mov	r5, r1

    while (1) 
	{
		if(sd_valid == 0)
		{
			sprintf(fil_nm, "data%d.txt",f_num);
    5640:	0f 2e       	mov	r0, r31
    5642:	fc ea       	ldi	r31, 0xAC	; 172
    5644:	cf 2e       	mov	r12, r31
    5646:	f7 e0       	ldi	r31, 0x07	; 7
    5648:	df 2e       	mov	r13, r31
    564a:	f0 2d       	mov	r31, r0
				new_dylos_data = 0;
			}
			else
				usart_send(3,"0,0,");			
			F = read_temp();
			sprintf(sd_buff, "Temperature %dF\n", F);
    564c:	8e 01       	movw	r16, r28
    564e:	01 59       	subi	r16, 0x91	; 145
    5650:	1f 4f       	sbci	r17, 0xFF	; 255
			sprintf(buffer, "%d,", F);
    5652:	7e 01       	movw	r14, r28
    5654:	2b ef       	ldi	r18, 0xFB	; 251
    5656:	e2 1a       	sub	r14, r18
    5658:	2e ef       	ldi	r18, 0xFE	; 254
    565a:	f2 0a       	sbc	r15, r18
	f_mount(&FatFs, "", 0);		/* Give a work area to the default drive */
	sei();

    while (1) 
	{
		if(sd_valid == 0)
    565c:	b1 10       	cpse	r11, r1
    565e:	26 c0       	rjmp	.+76     	; 0x56ac <main+0x2744>
		{
			sprintf(fil_nm, "data%d.txt",f_num);
    5660:	9f 92       	push	r9
    5662:	8f 92       	push	r8
    5664:	ae e5       	ldi	r26, 0x5E	; 94
    5666:	b3 e0       	ldi	r27, 0x03	; 3
    5668:	bf 93       	push	r27
    566a:	af 93       	push	r26
    566c:	df 92       	push	r13
    566e:	cf 92       	push	r12
    5670:	0e 94 87 36 	call	0x6d0e	; 0x6d0e <sprintf>
			if((fr = f_open(&Fil, fil_nm, FA_WRITE | FA_CREATE_NEW)) && f_num < 9999)
    5674:	46 e0       	ldi	r20, 0x06	; 6
    5676:	b6 01       	movw	r22, r12
    5678:	89 e2       	ldi	r24, 0x29	; 41
    567a:	98 e0       	ldi	r25, 0x08	; 8
    567c:	0e 94 04 0c 	call	0x1808	; 0x1808 <f_open>
    5680:	0f 90       	pop	r0
    5682:	0f 90       	pop	r0
    5684:	0f 90       	pop	r0
    5686:	0f 90       	pop	r0
    5688:	0f 90       	pop	r0
    568a:	0f 90       	pop	r0
    568c:	88 23       	and	r24, r24
    568e:	49 f0       	breq	.+18     	; 0x56a2 <main+0x273a>
    5690:	2f e0       	ldi	r18, 0x0F	; 15
    5692:	82 16       	cp	r8, r18
    5694:	27 e2       	ldi	r18, 0x27	; 39
    5696:	92 06       	cpc	r9, r18
    5698:	3c f4       	brge	.+14     	; 0x56a8 <main+0x2740>
				f_num++;
    569a:	3f ef       	ldi	r19, 0xFF	; 255
    569c:	83 1a       	sub	r8, r19
    569e:	93 0a       	sbc	r9, r19
    56a0:	05 c0       	rjmp	.+10     	; 0x56ac <main+0x2744>
			else
				sd_valid = 1;
    56a2:	bb 24       	eor	r11, r11
    56a4:	b3 94       	inc	r11
    56a6:	02 c0       	rjmp	.+4      	; 0x56ac <main+0x2744>
    56a8:	bb 24       	eor	r11, r11
    56aa:	b3 94       	inc	r11
		}

		if(rec_dylos_flag == 1)
    56ac:	80 91 7c 05 	lds	r24, 0x057C
    56b0:	81 30       	cpi	r24, 0x01	; 1
    56b2:	41 f5       	brne	.+80     	; 0x5704 <main+0x279c>
		{
			rec_dylos_flag = 0;
    56b4:	10 92 7c 05 	sts	0x057C, r1
			new_dylos_data = 1;
			tick = 0;
			if(rec_dylos[strlen(rec_dylos) - 1] == '\n')
    56b8:	ef e1       	ldi	r30, 0x1F	; 31
    56ba:	f8 e0       	ldi	r31, 0x08	; 8
    56bc:	01 90       	ld	r0, Z+
    56be:	00 20       	and	r0, r0
    56c0:	e9 f7       	brne	.-6      	; 0x56bc <main+0x2754>
    56c2:	31 97       	sbiw	r30, 0x01	; 1
    56c4:	af 01       	movw	r20, r30
    56c6:	4f 51       	subi	r20, 0x1F	; 31
    56c8:	58 40       	sbci	r21, 0x08	; 8
    56ca:	da 01       	movw	r26, r20
    56cc:	a2 5e       	subi	r26, 0xE2	; 226
    56ce:	b7 4f       	sbci	r27, 0xF7	; 247
    56d0:	8c 91       	ld	r24, X
    56d2:	8a 30       	cpi	r24, 0x0A	; 10
    56d4:	a1 f4       	brne	.+40     	; 0x56fe <main+0x2796>
			{
				dylos_line = 1;
				strncpy(dylos, rec_dylos, strlen(rec_dylos));
    56d6:	6f e1       	ldi	r22, 0x1F	; 31
    56d8:	78 e0       	ldi	r23, 0x08	; 8
    56da:	ce 01       	movw	r24, r28
    56dc:	8b 59       	subi	r24, 0x9B	; 155
    56de:	9f 4f       	sbci	r25, 0xFF	; 255
    56e0:	0e 94 78 36 	call	0x6cf0	; 0x6cf0 <strncpy>
				strclr(rec_dylos);			
    56e4:	8f e1       	ldi	r24, 0x1F	; 31
    56e6:	98 e0       	ldi	r25, 0x08	; 8
    56e8:	0e 94 93 17 	call	0x2f26	; 0x2f26 <strclr>
			}
		}

		if(rec_GPS_flag == 1)
    56ec:	80 91 7b 05 	lds	r24, 0x057B
    56f0:	81 30       	cpi	r24, 0x01	; 1
    56f2:	09 f4       	brne	.+2      	; 0x56f6 <main+0x278e>
    56f4:	6a c4       	rjmp	.+2260   	; 0x5fca <main+0x3062>

		if(rec_dylos_flag == 1)
		{
			rec_dylos_flag = 0;
			new_dylos_data = 1;
			tick = 0;
    56f6:	41 2c       	mov	r4, r1
		}

		if(rec_dylos_flag == 1)
		{
			rec_dylos_flag = 0;
			new_dylos_data = 1;
    56f8:	33 24       	eor	r3, r3
    56fa:	33 94       	inc	r3
    56fc:	46 c0       	rjmp	.+140    	; 0x578a <main+0x2822>
			tick = 0;
    56fe:	41 2c       	mov	r4, r1
		}

		if(rec_dylos_flag == 1)
		{
			rec_dylos_flag = 0;
			new_dylos_data = 1;
    5700:	33 24       	eor	r3, r3
    5702:	33 94       	inc	r3
				strncpy(dylos, rec_dylos, strlen(rec_dylos));
				strclr(rec_dylos);			
			}
		}

		if(rec_GPS_flag == 1)
    5704:	80 91 7b 05 	lds	r24, 0x057B
    5708:	81 30       	cpi	r24, 0x01	; 1
    570a:	79 f5       	brne	.+94     	; 0x576a <main+0x2802>
		{
			rec_GPS_flag = 0;
    570c:	10 92 7b 05 	sts	0x057B, r1
			new_GPS_data = 1;
			if(rec_GPS[strlen(rec_GPS) - 1] == '\n')
    5710:	eb eb       	ldi	r30, 0xBB	; 187
    5712:	f7 e0       	ldi	r31, 0x07	; 7
    5714:	01 90       	ld	r0, Z+
    5716:	00 20       	and	r0, r0
    5718:	e9 f7       	brne	.-6      	; 0x5714 <main+0x27ac>
    571a:	31 97       	sbiw	r30, 0x01	; 1
    571c:	af 01       	movw	r20, r30
    571e:	4b 5b       	subi	r20, 0xBB	; 187
    5720:	57 40       	sbci	r21, 0x07	; 7
    5722:	da 01       	movw	r26, r20
    5724:	a6 54       	subi	r26, 0x46	; 70
    5726:	b8 4f       	sbci	r27, 0xF8	; 248
    5728:	8c 91       	ld	r24, X
    572a:	8a 30       	cpi	r24, 0x0A	; 10
    572c:	c1 f4       	brne	.+48     	; 0x575e <main+0x27f6>
			{
				GPS_line = 1;
				strncpy(GPS, rec_GPS, strlen(rec_GPS));
    572e:	6b eb       	ldi	r22, 0xBB	; 187
    5730:	77 e0       	ldi	r23, 0x07	; 7
    5732:	ce 01       	movw	r24, r28
    5734:	01 96       	adiw	r24, 0x01	; 1
    5736:	0e 94 78 36 	call	0x6cf0	; 0x6cf0 <strncpy>
				strclr(rec_GPS);
    573a:	8b eb       	ldi	r24, 0xBB	; 187
    573c:	97 e0       	ldi	r25, 0x07	; 7
    573e:	0e 94 93 17 	call	0x2f26	; 0x2f26 <strclr>
			}
		}
		
		if(dylos_line == 1)
    5742:	cf 5e       	subi	r28, 0xEF	; 239
    5744:	d9 4f       	sbci	r29, 0xF9	; 249
    5746:	68 81       	ld	r22, Y
    5748:	c1 51       	subi	r28, 0x11	; 17
    574a:	d6 40       	sbci	r29, 0x06	; 6
    574c:	61 30       	cpi	r22, 0x01	; 1
    574e:	a9 f0       	breq	.+42     	; 0x577a <main+0x2812>
		}

		if(rec_GPS_flag == 1)
		{
			rec_GPS_flag = 0;
			new_GPS_data = 1;
    5750:	71 e0       	ldi	r23, 0x01	; 1
    5752:	ce 5e       	subi	r28, 0xEE	; 238
    5754:	d9 4f       	sbci	r29, 0xF9	; 249
    5756:	78 83       	st	Y, r23
    5758:	c2 51       	subi	r28, 0x12	; 18
    575a:	d6 40       	sbci	r29, 0x06	; 6
    575c:	26 c0       	rjmp	.+76     	; 0x57aa <main+0x2842>
    575e:	81 e0       	ldi	r24, 0x01	; 1
    5760:	ce 5e       	subi	r28, 0xEE	; 238
    5762:	d9 4f       	sbci	r29, 0xF9	; 249
    5764:	88 83       	st	Y, r24
    5766:	c2 51       	subi	r28, 0x12	; 18
    5768:	d6 40       	sbci	r29, 0x06	; 6
				strncpy(GPS, rec_GPS, strlen(rec_GPS));
				strclr(rec_GPS);
			}
		}
		
		if(dylos_line == 1)
    576a:	cf 5e       	subi	r28, 0xEF	; 239
    576c:	d9 4f       	sbci	r29, 0xF9	; 249
    576e:	98 81       	ld	r25, Y
    5770:	c1 51       	subi	r28, 0x11	; 17
    5772:	d6 40       	sbci	r29, 0x06	; 6
    5774:	91 30       	cpi	r25, 0x01	; 1
    5776:	b1 f4       	brne	.+44     	; 0x57a4 <main+0x283c>
    5778:	08 c0       	rjmp	.+16     	; 0x578a <main+0x2822>
		}

		if(rec_GPS_flag == 1)
		{
			rec_GPS_flag = 0;
			new_GPS_data = 1;
    577a:	a1 e0       	ldi	r26, 0x01	; 1
    577c:	ce 5e       	subi	r28, 0xEE	; 238
    577e:	d9 4f       	sbci	r29, 0xF9	; 249
    5780:	a8 83       	st	Y, r26
    5782:	c2 51       	subi	r28, 0x12	; 18
    5784:	d6 40       	sbci	r29, 0x06	; 6
			if(rec_GPS[strlen(rec_GPS) - 1] == '\n')
			{
				GPS_line = 1;
    5786:	55 24       	eor	r5, r5
    5788:	53 94       	inc	r5
			}
		}
		
		if(dylos_line == 1)
		{
			parse_dylos(dylos, dylos_data);
    578a:	be 01       	movw	r22, r28
    578c:	6f 5b       	subi	r22, 0xBF	; 191
    578e:	7e 4f       	sbci	r23, 0xFE	; 254
    5790:	ce 01       	movw	r24, r28
    5792:	8b 59       	subi	r24, 0x9B	; 155
    5794:	9f 4f       	sbci	r25, 0xFF	; 255
    5796:	0e 94 62 17 	call	0x2ec4	; 0x2ec4 <parse_dylos>
			dylos_line = 0;
    579a:	cf 5e       	subi	r28, 0xEF	; 239
    579c:	d9 4f       	sbci	r29, 0xF9	; 249
    579e:	18 82       	st	Y, r1
    57a0:	c1 51       	subi	r28, 0x11	; 17
    57a2:	d6 40       	sbci	r29, 0x06	; 6
		}
		
		if(GPS_line == 1)
    57a4:	b1 e0       	ldi	r27, 0x01	; 1
    57a6:	5b 12       	cpse	r5, r27
    57a8:	08 c0       	rjmp	.+16     	; 0x57ba <main+0x2852>
		{
			parse_GPS(GPS, GPS_data);
    57aa:	be 01       	movw	r22, r28
    57ac:	6d 5d       	subi	r22, 0xDD	; 221
    57ae:	7e 4f       	sbci	r23, 0xFE	; 254
    57b0:	ce 01       	movw	r24, r28
    57b2:	01 96       	adiw	r24, 0x01	; 1
    57b4:	0e 94 6b 15 	call	0x2ad6	; 0x2ad6 <parse_GPS>
			GPS_line = 0;
    57b8:	51 2c       	mov	r5, r1
		}
	
		if(ov_flag == 1)
    57ba:	80 91 7a 05 	lds	r24, 0x057A
    57be:	81 30       	cpi	r24, 0x01	; 1
    57c0:	09 f0       	breq	.+2      	; 0x57c4 <main+0x285c>
    57c2:	4c cf       	rjmp	.-360    	; 0x565c <main+0x26f4>
		{
			ov_flag = 0;
    57c4:	10 92 7a 05 	sts	0x057A, r1
			tick++;
    57c8:	43 94       	inc	r4
			if(new_GPS_data == 1)
    57ca:	ce 5e       	subi	r28, 0xEE	; 238
    57cc:	d9 4f       	sbci	r29, 0xF9	; 249
    57ce:	28 81       	ld	r18, Y
    57d0:	c2 51       	subi	r28, 0x12	; 18
    57d2:	d6 40       	sbci	r29, 0x06	; 6
    57d4:	21 30       	cpi	r18, 0x01	; 1
    57d6:	09 f0       	breq	.+2      	; 0x57da <main+0x2872>
    57d8:	c0 c1       	rjmp	.+896    	; 0x5b5a <main+0x2bf2>
			{
				if(GPS_data[9] == 1)
    57da:	cb 5c       	subi	r28, 0xCB	; 203
    57dc:	de 4f       	sbci	r29, 0xFE	; 254
    57de:	88 81       	ld	r24, Y
    57e0:	99 81       	ldd	r25, Y+1	; 0x01
    57e2:	c5 53       	subi	r28, 0x35	; 53
    57e4:	d1 40       	sbci	r29, 0x01	; 1
    57e6:	01 97       	sbiw	r24, 0x01	; 1
    57e8:	09 f0       	breq	.+2      	; 0x57ec <main+0x2884>
    57ea:	47 c1       	rjmp	.+654    	; 0x5a7a <main+0x2b12>
				{
					sprintf(sd_buff, "Date: %.2d/%.2d/%.2d\nTime: %.2d:%.2d:%.2d\nLatitude: %d %d.%d\nLongitude: %d %d.%d\nAltitude %d.%d\n", GPS_data[12], GPS_data[13], GPS_data[14], GPS_data[0], GPS_data[1], GPS_data[2], GPS_data[3], GPS_data[4], GPS_data[5], GPS_data[6], GPS_data[7], GPS_data[8], GPS_data[10], GPS_data[11]);
    57ec:	c6 5c       	subi	r28, 0xC6	; 198
    57ee:	de 4f       	sbci	r29, 0xFE	; 254
    57f0:	88 81       	ld	r24, Y
    57f2:	ca 53       	subi	r28, 0x3A	; 58
    57f4:	d1 40       	sbci	r29, 0x01	; 1
    57f6:	8f 93       	push	r24
    57f8:	c7 5c       	subi	r28, 0xC7	; 199
    57fa:	de 4f       	sbci	r29, 0xFE	; 254
    57fc:	88 81       	ld	r24, Y
    57fe:	c9 53       	subi	r28, 0x39	; 57
    5800:	d1 40       	sbci	r29, 0x01	; 1
    5802:	8f 93       	push	r24
    5804:	c8 5c       	subi	r28, 0xC8	; 200
    5806:	de 4f       	sbci	r29, 0xFE	; 254
    5808:	88 81       	ld	r24, Y
    580a:	c8 53       	subi	r28, 0x38	; 56
    580c:	d1 40       	sbci	r29, 0x01	; 1
    580e:	8f 93       	push	r24
    5810:	c9 5c       	subi	r28, 0xC9	; 201
    5812:	de 4f       	sbci	r29, 0xFE	; 254
    5814:	88 81       	ld	r24, Y
    5816:	c7 53       	subi	r28, 0x37	; 55
    5818:	d1 40       	sbci	r29, 0x01	; 1
    581a:	8f 93       	push	r24
    581c:	cc 5c       	subi	r28, 0xCC	; 204
    581e:	de 4f       	sbci	r29, 0xFE	; 254
    5820:	88 81       	ld	r24, Y
    5822:	c4 53       	subi	r28, 0x34	; 52
    5824:	d1 40       	sbci	r29, 0x01	; 1
    5826:	8f 93       	push	r24
    5828:	cd 5c       	subi	r28, 0xCD	; 205
    582a:	de 4f       	sbci	r29, 0xFE	; 254
    582c:	88 81       	ld	r24, Y
    582e:	c3 53       	subi	r28, 0x33	; 51
    5830:	d1 40       	sbci	r29, 0x01	; 1
    5832:	8f 93       	push	r24
    5834:	ce 5c       	subi	r28, 0xCE	; 206
    5836:	de 4f       	sbci	r29, 0xFE	; 254
    5838:	88 81       	ld	r24, Y
    583a:	c2 53       	subi	r28, 0x32	; 50
    583c:	d1 40       	sbci	r29, 0x01	; 1
    583e:	8f 93       	push	r24
    5840:	cf 5c       	subi	r28, 0xCF	; 207
    5842:	de 4f       	sbci	r29, 0xFE	; 254
    5844:	88 81       	ld	r24, Y
    5846:	c1 53       	subi	r28, 0x31	; 49
    5848:	d1 40       	sbci	r29, 0x01	; 1
    584a:	8f 93       	push	r24
    584c:	c0 5d       	subi	r28, 0xD0	; 208
    584e:	de 4f       	sbci	r29, 0xFE	; 254
    5850:	88 81       	ld	r24, Y
    5852:	c0 53       	subi	r28, 0x30	; 48
    5854:	d1 40       	sbci	r29, 0x01	; 1
    5856:	8f 93       	push	r24
    5858:	c1 5d       	subi	r28, 0xD1	; 209
    585a:	de 4f       	sbci	r29, 0xFE	; 254
    585c:	88 81       	ld	r24, Y
    585e:	cf 52       	subi	r28, 0x2F	; 47
    5860:	d1 40       	sbci	r29, 0x01	; 1
    5862:	8f 93       	push	r24
    5864:	c2 5d       	subi	r28, 0xD2	; 210
    5866:	de 4f       	sbci	r29, 0xFE	; 254
    5868:	88 81       	ld	r24, Y
    586a:	ce 52       	subi	r28, 0x2E	; 46
    586c:	d1 40       	sbci	r29, 0x01	; 1
    586e:	8f 93       	push	r24
    5870:	c3 5d       	subi	r28, 0xD3	; 211
    5872:	de 4f       	sbci	r29, 0xFE	; 254
    5874:	88 81       	ld	r24, Y
    5876:	cd 52       	subi	r28, 0x2D	; 45
    5878:	d1 40       	sbci	r29, 0x01	; 1
    587a:	8f 93       	push	r24
    587c:	c4 5d       	subi	r28, 0xD4	; 212
    587e:	de 4f       	sbci	r29, 0xFE	; 254
    5880:	88 81       	ld	r24, Y
    5882:	cc 52       	subi	r28, 0x2C	; 44
    5884:	d1 40       	sbci	r29, 0x01	; 1
    5886:	8f 93       	push	r24
    5888:	c5 5d       	subi	r28, 0xD5	; 213
    588a:	de 4f       	sbci	r29, 0xFE	; 254
    588c:	88 81       	ld	r24, Y
    588e:	cb 52       	subi	r28, 0x2B	; 43
    5890:	d1 40       	sbci	r29, 0x01	; 1
    5892:	8f 93       	push	r24
    5894:	c6 5d       	subi	r28, 0xD6	; 214
    5896:	de 4f       	sbci	r29, 0xFE	; 254
    5898:	88 81       	ld	r24, Y
    589a:	ca 52       	subi	r28, 0x2A	; 42
    589c:	d1 40       	sbci	r29, 0x01	; 1
    589e:	8f 93       	push	r24
    58a0:	c7 5d       	subi	r28, 0xD7	; 215
    58a2:	de 4f       	sbci	r29, 0xFE	; 254
    58a4:	88 81       	ld	r24, Y
    58a6:	c9 52       	subi	r28, 0x29	; 41
    58a8:	d1 40       	sbci	r29, 0x01	; 1
    58aa:	8f 93       	push	r24
    58ac:	c8 5d       	subi	r28, 0xD8	; 216
    58ae:	de 4f       	sbci	r29, 0xFE	; 254
    58b0:	88 81       	ld	r24, Y
    58b2:	c8 52       	subi	r28, 0x28	; 40
    58b4:	d1 40       	sbci	r29, 0x01	; 1
    58b6:	8f 93       	push	r24
    58b8:	c9 5d       	subi	r28, 0xD9	; 217
    58ba:	de 4f       	sbci	r29, 0xFE	; 254
    58bc:	88 81       	ld	r24, Y
    58be:	c7 52       	subi	r28, 0x27	; 39
    58c0:	d1 40       	sbci	r29, 0x01	; 1
    58c2:	8f 93       	push	r24
    58c4:	ca 5d       	subi	r28, 0xDA	; 218
    58c6:	de 4f       	sbci	r29, 0xFE	; 254
    58c8:	88 81       	ld	r24, Y
    58ca:	c6 52       	subi	r28, 0x26	; 38
    58cc:	d1 40       	sbci	r29, 0x01	; 1
    58ce:	8f 93       	push	r24
    58d0:	cb 5d       	subi	r28, 0xDB	; 219
    58d2:	de 4f       	sbci	r29, 0xFE	; 254
    58d4:	88 81       	ld	r24, Y
    58d6:	c5 52       	subi	r28, 0x25	; 37
    58d8:	d1 40       	sbci	r29, 0x01	; 1
    58da:	8f 93       	push	r24
    58dc:	cc 5d       	subi	r28, 0xDC	; 220
    58de:	de 4f       	sbci	r29, 0xFE	; 254
    58e0:	88 81       	ld	r24, Y
    58e2:	c4 52       	subi	r28, 0x24	; 36
    58e4:	d1 40       	sbci	r29, 0x01	; 1
    58e6:	8f 93       	push	r24
    58e8:	cd 5d       	subi	r28, 0xDD	; 221
    58ea:	de 4f       	sbci	r29, 0xFE	; 254
    58ec:	88 81       	ld	r24, Y
    58ee:	c3 52       	subi	r28, 0x23	; 35
    58f0:	d1 40       	sbci	r29, 0x01	; 1
    58f2:	8f 93       	push	r24
    58f4:	c0 5c       	subi	r28, 0xC0	; 192
    58f6:	de 4f       	sbci	r29, 0xFE	; 254
    58f8:	88 81       	ld	r24, Y
    58fa:	c0 54       	subi	r28, 0x40	; 64
    58fc:	d1 40       	sbci	r29, 0x01	; 1
    58fe:	8f 93       	push	r24
    5900:	c1 5c       	subi	r28, 0xC1	; 193
    5902:	de 4f       	sbci	r29, 0xFE	; 254
    5904:	88 81       	ld	r24, Y
    5906:	cf 53       	subi	r28, 0x3F	; 63
    5908:	d1 40       	sbci	r29, 0x01	; 1
    590a:	8f 93       	push	r24
    590c:	c2 5c       	subi	r28, 0xC2	; 194
    590e:	de 4f       	sbci	r29, 0xFE	; 254
    5910:	88 81       	ld	r24, Y
    5912:	ce 53       	subi	r28, 0x3E	; 62
    5914:	d1 40       	sbci	r29, 0x01	; 1
    5916:	8f 93       	push	r24
    5918:	c3 5c       	subi	r28, 0xC3	; 195
    591a:	de 4f       	sbci	r29, 0xFE	; 254
    591c:	88 81       	ld	r24, Y
    591e:	cd 53       	subi	r28, 0x3D	; 61
    5920:	d1 40       	sbci	r29, 0x01	; 1
    5922:	8f 93       	push	r24
    5924:	c4 5c       	subi	r28, 0xC4	; 196
    5926:	de 4f       	sbci	r29, 0xFE	; 254
    5928:	88 81       	ld	r24, Y
    592a:	cc 53       	subi	r28, 0x3C	; 60
    592c:	d1 40       	sbci	r29, 0x01	; 1
    592e:	8f 93       	push	r24
    5930:	c5 5c       	subi	r28, 0xC5	; 197
    5932:	de 4f       	sbci	r29, 0xFE	; 254
    5934:	88 81       	ld	r24, Y
    5936:	cb 53       	subi	r28, 0x3B	; 59
    5938:	d1 40       	sbci	r29, 0x01	; 1
    593a:	8f 93       	push	r24
    593c:	89 e6       	ldi	r24, 0x69	; 105
    593e:	93 e0       	ldi	r25, 0x03	; 3
    5940:	9f 93       	push	r25
    5942:	8f 93       	push	r24
    5944:	1f 93       	push	r17
    5946:	0f 93       	push	r16
    5948:	0e 94 87 36 	call	0x6d0e	; 0x6d0e <sprintf>
					sprintf(buffer,"%.2d:%.2d:%.2d,%d,%d.%d,%d,%d.%d,%d.%d,",GPS_data[0], GPS_data[1], GPS_data[2], GPS_data[3], GPS_data[4], GPS_data[5], GPS_data[6], GPS_data[7], GPS_data[8], GPS_data[10], GPS_data[11]);
    594c:	0f b6       	in	r0, 0x3f	; 63
    594e:	f8 94       	cli
    5950:	de bf       	out	0x3e, r29	; 62
    5952:	0f be       	out	0x3f, r0	; 63
    5954:	cd bf       	out	0x3d, r28	; 61
    5956:	c6 5c       	subi	r28, 0xC6	; 198
    5958:	de 4f       	sbci	r29, 0xFE	; 254
    595a:	88 81       	ld	r24, Y
    595c:	ca 53       	subi	r28, 0x3A	; 58
    595e:	d1 40       	sbci	r29, 0x01	; 1
    5960:	8f 93       	push	r24
    5962:	c7 5c       	subi	r28, 0xC7	; 199
    5964:	de 4f       	sbci	r29, 0xFE	; 254
    5966:	88 81       	ld	r24, Y
    5968:	c9 53       	subi	r28, 0x39	; 57
    596a:	d1 40       	sbci	r29, 0x01	; 1
    596c:	8f 93       	push	r24
    596e:	c8 5c       	subi	r28, 0xC8	; 200
    5970:	de 4f       	sbci	r29, 0xFE	; 254
    5972:	88 81       	ld	r24, Y
    5974:	c8 53       	subi	r28, 0x38	; 56
    5976:	d1 40       	sbci	r29, 0x01	; 1
    5978:	8f 93       	push	r24
    597a:	c9 5c       	subi	r28, 0xC9	; 201
    597c:	de 4f       	sbci	r29, 0xFE	; 254
    597e:	88 81       	ld	r24, Y
    5980:	c7 53       	subi	r28, 0x37	; 55
    5982:	d1 40       	sbci	r29, 0x01	; 1
    5984:	8f 93       	push	r24
    5986:	cc 5c       	subi	r28, 0xCC	; 204
    5988:	de 4f       	sbci	r29, 0xFE	; 254
    598a:	88 81       	ld	r24, Y
    598c:	c4 53       	subi	r28, 0x34	; 52
    598e:	d1 40       	sbci	r29, 0x01	; 1
    5990:	8f 93       	push	r24
    5992:	cd 5c       	subi	r28, 0xCD	; 205
    5994:	de 4f       	sbci	r29, 0xFE	; 254
    5996:	88 81       	ld	r24, Y
    5998:	c3 53       	subi	r28, 0x33	; 51
    599a:	d1 40       	sbci	r29, 0x01	; 1
    599c:	8f 93       	push	r24
    599e:	ce 5c       	subi	r28, 0xCE	; 206
    59a0:	de 4f       	sbci	r29, 0xFE	; 254
    59a2:	88 81       	ld	r24, Y
    59a4:	c2 53       	subi	r28, 0x32	; 50
    59a6:	d1 40       	sbci	r29, 0x01	; 1
    59a8:	8f 93       	push	r24
    59aa:	cf 5c       	subi	r28, 0xCF	; 207
    59ac:	de 4f       	sbci	r29, 0xFE	; 254
    59ae:	88 81       	ld	r24, Y
    59b0:	c1 53       	subi	r28, 0x31	; 49
    59b2:	d1 40       	sbci	r29, 0x01	; 1
    59b4:	8f 93       	push	r24
    59b6:	c0 5d       	subi	r28, 0xD0	; 208
    59b8:	de 4f       	sbci	r29, 0xFE	; 254
    59ba:	88 81       	ld	r24, Y
    59bc:	c0 53       	subi	r28, 0x30	; 48
    59be:	d1 40       	sbci	r29, 0x01	; 1
    59c0:	8f 93       	push	r24
    59c2:	c1 5d       	subi	r28, 0xD1	; 209
    59c4:	de 4f       	sbci	r29, 0xFE	; 254
    59c6:	88 81       	ld	r24, Y
    59c8:	cf 52       	subi	r28, 0x2F	; 47
    59ca:	d1 40       	sbci	r29, 0x01	; 1
    59cc:	8f 93       	push	r24
    59ce:	c2 5d       	subi	r28, 0xD2	; 210
    59d0:	de 4f       	sbci	r29, 0xFE	; 254
    59d2:	88 81       	ld	r24, Y
    59d4:	ce 52       	subi	r28, 0x2E	; 46
    59d6:	d1 40       	sbci	r29, 0x01	; 1
    59d8:	8f 93       	push	r24
    59da:	c3 5d       	subi	r28, 0xD3	; 211
    59dc:	de 4f       	sbci	r29, 0xFE	; 254
    59de:	88 81       	ld	r24, Y
    59e0:	cd 52       	subi	r28, 0x2D	; 45
    59e2:	d1 40       	sbci	r29, 0x01	; 1
    59e4:	8f 93       	push	r24
    59e6:	c4 5d       	subi	r28, 0xD4	; 212
    59e8:	de 4f       	sbci	r29, 0xFE	; 254
    59ea:	88 81       	ld	r24, Y
    59ec:	cc 52       	subi	r28, 0x2C	; 44
    59ee:	d1 40       	sbci	r29, 0x01	; 1
    59f0:	8f 93       	push	r24
    59f2:	c5 5d       	subi	r28, 0xD5	; 213
    59f4:	de 4f       	sbci	r29, 0xFE	; 254
    59f6:	88 81       	ld	r24, Y
    59f8:	cb 52       	subi	r28, 0x2B	; 43
    59fa:	d1 40       	sbci	r29, 0x01	; 1
    59fc:	8f 93       	push	r24
    59fe:	c6 5d       	subi	r28, 0xD6	; 214
    5a00:	de 4f       	sbci	r29, 0xFE	; 254
    5a02:	88 81       	ld	r24, Y
    5a04:	ca 52       	subi	r28, 0x2A	; 42
    5a06:	d1 40       	sbci	r29, 0x01	; 1
    5a08:	8f 93       	push	r24
    5a0a:	c7 5d       	subi	r28, 0xD7	; 215
    5a0c:	de 4f       	sbci	r29, 0xFE	; 254
    5a0e:	88 81       	ld	r24, Y
    5a10:	c9 52       	subi	r28, 0x29	; 41
    5a12:	d1 40       	sbci	r29, 0x01	; 1
    5a14:	8f 93       	push	r24
    5a16:	c8 5d       	subi	r28, 0xD8	; 216
    5a18:	de 4f       	sbci	r29, 0xFE	; 254
    5a1a:	88 81       	ld	r24, Y
    5a1c:	c8 52       	subi	r28, 0x28	; 40
    5a1e:	d1 40       	sbci	r29, 0x01	; 1
    5a20:	8f 93       	push	r24
    5a22:	c9 5d       	subi	r28, 0xD9	; 217
    5a24:	de 4f       	sbci	r29, 0xFE	; 254
    5a26:	88 81       	ld	r24, Y
    5a28:	c7 52       	subi	r28, 0x27	; 39
    5a2a:	d1 40       	sbci	r29, 0x01	; 1
    5a2c:	8f 93       	push	r24
    5a2e:	ca 5d       	subi	r28, 0xDA	; 218
    5a30:	de 4f       	sbci	r29, 0xFE	; 254
    5a32:	88 81       	ld	r24, Y
    5a34:	c6 52       	subi	r28, 0x26	; 38
    5a36:	d1 40       	sbci	r29, 0x01	; 1
    5a38:	8f 93       	push	r24
    5a3a:	cb 5d       	subi	r28, 0xDB	; 219
    5a3c:	de 4f       	sbci	r29, 0xFE	; 254
    5a3e:	88 81       	ld	r24, Y
    5a40:	c5 52       	subi	r28, 0x25	; 37
    5a42:	d1 40       	sbci	r29, 0x01	; 1
    5a44:	8f 93       	push	r24
    5a46:	cc 5d       	subi	r28, 0xDC	; 220
    5a48:	de 4f       	sbci	r29, 0xFE	; 254
    5a4a:	88 81       	ld	r24, Y
    5a4c:	c4 52       	subi	r28, 0x24	; 36
    5a4e:	d1 40       	sbci	r29, 0x01	; 1
    5a50:	8f 93       	push	r24
    5a52:	cd 5d       	subi	r28, 0xDD	; 221
    5a54:	de 4f       	sbci	r29, 0xFE	; 254
    5a56:	88 81       	ld	r24, Y
    5a58:	c3 52       	subi	r28, 0x23	; 35
    5a5a:	d1 40       	sbci	r29, 0x01	; 1
    5a5c:	8f 93       	push	r24
    5a5e:	8a ec       	ldi	r24, 0xCA	; 202
    5a60:	93 e0       	ldi	r25, 0x03	; 3
    5a62:	9f 93       	push	r25
    5a64:	8f 93       	push	r24
    5a66:	ff 92       	push	r15
    5a68:	ef 92       	push	r14
    5a6a:	0e 94 87 36 	call	0x6d0e	; 0x6d0e <sprintf>
    5a6e:	0f b6       	in	r0, 0x3f	; 63
    5a70:	f8 94       	cli
    5a72:	de bf       	out	0x3e, r29	; 62
    5a74:	0f be       	out	0x3f, r0	; 63
    5a76:	cd bf       	out	0x3d, r28	; 61
    5a78:	5d c0       	rjmp	.+186    	; 0x5b34 <main+0x2bcc>
				}
				else
				{
					sprintf(sd_buff, "Time: %.2d:%.2d:%.2d\nNO GPS DATA AVAILABLE\n", GPS_data[0], GPS_data[1], GPS_data[2]);
    5a7a:	c8 5d       	subi	r28, 0xD8	; 216
    5a7c:	de 4f       	sbci	r29, 0xFE	; 254
    5a7e:	88 81       	ld	r24, Y
    5a80:	c8 52       	subi	r28, 0x28	; 40
    5a82:	d1 40       	sbci	r29, 0x01	; 1
    5a84:	8f 93       	push	r24
    5a86:	c9 5d       	subi	r28, 0xD9	; 217
    5a88:	de 4f       	sbci	r29, 0xFE	; 254
    5a8a:	88 81       	ld	r24, Y
    5a8c:	c7 52       	subi	r28, 0x27	; 39
    5a8e:	d1 40       	sbci	r29, 0x01	; 1
    5a90:	8f 93       	push	r24
    5a92:	ca 5d       	subi	r28, 0xDA	; 218
    5a94:	de 4f       	sbci	r29, 0xFE	; 254
    5a96:	88 81       	ld	r24, Y
    5a98:	c6 52       	subi	r28, 0x26	; 38
    5a9a:	d1 40       	sbci	r29, 0x01	; 1
    5a9c:	8f 93       	push	r24
    5a9e:	cb 5d       	subi	r28, 0xDB	; 219
    5aa0:	de 4f       	sbci	r29, 0xFE	; 254
    5aa2:	88 81       	ld	r24, Y
    5aa4:	c5 52       	subi	r28, 0x25	; 37
    5aa6:	d1 40       	sbci	r29, 0x01	; 1
    5aa8:	8f 93       	push	r24
    5aaa:	cc 5d       	subi	r28, 0xDC	; 220
    5aac:	de 4f       	sbci	r29, 0xFE	; 254
    5aae:	88 81       	ld	r24, Y
    5ab0:	c4 52       	subi	r28, 0x24	; 36
    5ab2:	d1 40       	sbci	r29, 0x01	; 1
    5ab4:	8f 93       	push	r24
    5ab6:	cd 5d       	subi	r28, 0xDD	; 221
    5ab8:	de 4f       	sbci	r29, 0xFE	; 254
    5aba:	88 81       	ld	r24, Y
    5abc:	c3 52       	subi	r28, 0x23	; 35
    5abe:	d1 40       	sbci	r29, 0x01	; 1
    5ac0:	8f 93       	push	r24
    5ac2:	82 ef       	ldi	r24, 0xF2	; 242
    5ac4:	93 e0       	ldi	r25, 0x03	; 3
    5ac6:	9f 93       	push	r25
    5ac8:	8f 93       	push	r24
    5aca:	1f 93       	push	r17
    5acc:	0f 93       	push	r16
    5ace:	0e 94 87 36 	call	0x6d0e	; 0x6d0e <sprintf>
					sprintf(buffer,"%.2d:%.2d:%.2d,0,0.0,0,0.0,0.0,", GPS_data[0], GPS_data[1], GPS_data[2]);
    5ad2:	c8 5d       	subi	r28, 0xD8	; 216
    5ad4:	de 4f       	sbci	r29, 0xFE	; 254
    5ad6:	88 81       	ld	r24, Y
    5ad8:	c8 52       	subi	r28, 0x28	; 40
    5ada:	d1 40       	sbci	r29, 0x01	; 1
    5adc:	8f 93       	push	r24
    5ade:	c9 5d       	subi	r28, 0xD9	; 217
    5ae0:	de 4f       	sbci	r29, 0xFE	; 254
    5ae2:	88 81       	ld	r24, Y
    5ae4:	c7 52       	subi	r28, 0x27	; 39
    5ae6:	d1 40       	sbci	r29, 0x01	; 1
    5ae8:	8f 93       	push	r24
    5aea:	ca 5d       	subi	r28, 0xDA	; 218
    5aec:	de 4f       	sbci	r29, 0xFE	; 254
    5aee:	88 81       	ld	r24, Y
    5af0:	c6 52       	subi	r28, 0x26	; 38
    5af2:	d1 40       	sbci	r29, 0x01	; 1
    5af4:	8f 93       	push	r24
    5af6:	cb 5d       	subi	r28, 0xDB	; 219
    5af8:	de 4f       	sbci	r29, 0xFE	; 254
    5afa:	88 81       	ld	r24, Y
    5afc:	c5 52       	subi	r28, 0x25	; 37
    5afe:	d1 40       	sbci	r29, 0x01	; 1
    5b00:	8f 93       	push	r24
    5b02:	cc 5d       	subi	r28, 0xDC	; 220
    5b04:	de 4f       	sbci	r29, 0xFE	; 254
    5b06:	88 81       	ld	r24, Y
    5b08:	c4 52       	subi	r28, 0x24	; 36
    5b0a:	d1 40       	sbci	r29, 0x01	; 1
    5b0c:	8f 93       	push	r24
    5b0e:	cd 5d       	subi	r28, 0xDD	; 221
    5b10:	de 4f       	sbci	r29, 0xFE	; 254
    5b12:	88 81       	ld	r24, Y
    5b14:	c3 52       	subi	r28, 0x23	; 35
    5b16:	d1 40       	sbci	r29, 0x01	; 1
    5b18:	8f 93       	push	r24
    5b1a:	8e e1       	ldi	r24, 0x1E	; 30
    5b1c:	94 e0       	ldi	r25, 0x04	; 4
    5b1e:	9f 93       	push	r25
    5b20:	8f 93       	push	r24
    5b22:	ff 92       	push	r15
    5b24:	ef 92       	push	r14
    5b26:	0e 94 87 36 	call	0x6d0e	; 0x6d0e <sprintf>
    5b2a:	0f b6       	in	r0, 0x3f	; 63
    5b2c:	f8 94       	cli
    5b2e:	de bf       	out	0x3e, r29	; 62
    5b30:	0f be       	out	0x3f, r0	; 63
    5b32:	cd bf       	out	0x3d, r28	; 61
				}
				sd_write(sd_buff, &Fil, fil_nm, sd_valid);
    5b34:	2b 2d       	mov	r18, r11
    5b36:	30 e0       	ldi	r19, 0x00	; 0
    5b38:	a6 01       	movw	r20, r12
    5b3a:	69 e2       	ldi	r22, 0x29	; 41
    5b3c:	78 e0       	ldi	r23, 0x08	; 8
    5b3e:	c8 01       	movw	r24, r16
    5b40:	0e 94 72 12 	call	0x24e4	; 0x24e4 <sd_write>
				usart_send(3, buffer);
    5b44:	b7 01       	movw	r22, r14
    5b46:	83 e0       	ldi	r24, 0x03	; 3
    5b48:	90 e0       	ldi	r25, 0x00	; 0
    5b4a:	0e 94 e5 14 	call	0x29ca	; 0x29ca <usart_send>
				new_GPS_data = 0;
    5b4e:	ce 5e       	subi	r28, 0xEE	; 238
    5b50:	d9 4f       	sbci	r29, 0xF9	; 249
    5b52:	18 82       	st	Y, r1
    5b54:	c2 51       	subi	r28, 0x12	; 18
    5b56:	d6 40       	sbci	r29, 0x06	; 6
    5b58:	06 c0       	rjmp	.+12     	; 0x5b66 <main+0x2bfe>
			}
			else
				usart_send(3,"00:00:00,0,0.0,0,0.0,0.0,");
    5b5a:	6e e3       	ldi	r22, 0x3E	; 62
    5b5c:	74 e0       	ldi	r23, 0x04	; 4
    5b5e:	83 e0       	ldi	r24, 0x03	; 3
    5b60:	90 e0       	ldi	r25, 0x00	; 0
    5b62:	0e 94 e5 14 	call	0x29ca	; 0x29ca <usart_send>
			if(new_dylos_data == 1 || tick < 8)
    5b66:	b1 e0       	ldi	r27, 0x01	; 1
    5b68:	3b 16       	cp	r3, r27
    5b6a:	39 f0       	breq	.+14     	; 0x5b7a <main+0x2c12>
    5b6c:	0f 2e       	mov	r0, r31
    5b6e:	f7 e0       	ldi	r31, 0x07	; 7
    5b70:	af 2e       	mov	r10, r31
    5b72:	f0 2d       	mov	r31, r0
    5b74:	a4 14       	cp	r10, r4
    5b76:	08 f4       	brcc	.+2      	; 0x5b7a <main+0x2c12>
    5b78:	54 c0       	rjmp	.+168    	; 0x5c22 <main+0x2cba>
			{
				sprintf(sd_buff, "Small: %d\n Large: %d\n", dylos_data[0], dylos_data[1]);
    5b7a:	cc 5b       	subi	r28, 0xBC	; 188
    5b7c:	de 4f       	sbci	r29, 0xFE	; 254
    5b7e:	88 81       	ld	r24, Y
    5b80:	c4 54       	subi	r28, 0x44	; 68
    5b82:	d1 40       	sbci	r29, 0x01	; 1
    5b84:	8f 93       	push	r24
    5b86:	cd 5b       	subi	r28, 0xBD	; 189
    5b88:	de 4f       	sbci	r29, 0xFE	; 254
    5b8a:	88 81       	ld	r24, Y
    5b8c:	c3 54       	subi	r28, 0x43	; 67
    5b8e:	d1 40       	sbci	r29, 0x01	; 1
    5b90:	8f 93       	push	r24
    5b92:	ce 5b       	subi	r28, 0xBE	; 190
    5b94:	de 4f       	sbci	r29, 0xFE	; 254
    5b96:	88 81       	ld	r24, Y
    5b98:	c2 54       	subi	r28, 0x42	; 66
    5b9a:	d1 40       	sbci	r29, 0x01	; 1
    5b9c:	8f 93       	push	r24
    5b9e:	cf 5b       	subi	r28, 0xBF	; 191
    5ba0:	de 4f       	sbci	r29, 0xFE	; 254
    5ba2:	88 81       	ld	r24, Y
    5ba4:	c1 54       	subi	r28, 0x41	; 65
    5ba6:	d1 40       	sbci	r29, 0x01	; 1
    5ba8:	8f 93       	push	r24
    5baa:	88 e5       	ldi	r24, 0x58	; 88
    5bac:	94 e0       	ldi	r25, 0x04	; 4
    5bae:	9f 93       	push	r25
    5bb0:	8f 93       	push	r24
    5bb2:	1f 93       	push	r17
    5bb4:	0f 93       	push	r16
    5bb6:	0e 94 87 36 	call	0x6d0e	; 0x6d0e <sprintf>
				sprintf(buffer, "%d,%d,", dylos_data[0], dylos_data[1]);
    5bba:	cc 5b       	subi	r28, 0xBC	; 188
    5bbc:	de 4f       	sbci	r29, 0xFE	; 254
    5bbe:	88 81       	ld	r24, Y
    5bc0:	c4 54       	subi	r28, 0x44	; 68
    5bc2:	d1 40       	sbci	r29, 0x01	; 1
    5bc4:	8f 93       	push	r24
    5bc6:	cd 5b       	subi	r28, 0xBD	; 189
    5bc8:	de 4f       	sbci	r29, 0xFE	; 254
    5bca:	88 81       	ld	r24, Y
    5bcc:	c3 54       	subi	r28, 0x43	; 67
    5bce:	d1 40       	sbci	r29, 0x01	; 1
    5bd0:	8f 93       	push	r24
    5bd2:	ce 5b       	subi	r28, 0xBE	; 190
    5bd4:	de 4f       	sbci	r29, 0xFE	; 254
    5bd6:	88 81       	ld	r24, Y
    5bd8:	c2 54       	subi	r28, 0x42	; 66
    5bda:	d1 40       	sbci	r29, 0x01	; 1
    5bdc:	8f 93       	push	r24
    5bde:	cf 5b       	subi	r28, 0xBF	; 191
    5be0:	de 4f       	sbci	r29, 0xFE	; 254
    5be2:	88 81       	ld	r24, Y
    5be4:	c1 54       	subi	r28, 0x41	; 65
    5be6:	d1 40       	sbci	r29, 0x01	; 1
    5be8:	8f 93       	push	r24
    5bea:	8e e6       	ldi	r24, 0x6E	; 110
    5bec:	94 e0       	ldi	r25, 0x04	; 4
    5bee:	9f 93       	push	r25
    5bf0:	8f 93       	push	r24
    5bf2:	ff 92       	push	r15
    5bf4:	ef 92       	push	r14
    5bf6:	0e 94 87 36 	call	0x6d0e	; 0x6d0e <sprintf>
				usart_send(3, buffer);
    5bfa:	b7 01       	movw	r22, r14
    5bfc:	83 e0       	ldi	r24, 0x03	; 3
    5bfe:	90 e0       	ldi	r25, 0x00	; 0
    5c00:	0e 94 e5 14 	call	0x29ca	; 0x29ca <usart_send>
				sd_write(sd_buff, &Fil, fil_nm, sd_valid);
    5c04:	2b 2d       	mov	r18, r11
    5c06:	30 e0       	ldi	r19, 0x00	; 0
    5c08:	a6 01       	movw	r20, r12
    5c0a:	69 e2       	ldi	r22, 0x29	; 41
    5c0c:	78 e0       	ldi	r23, 0x08	; 8
    5c0e:	c8 01       	movw	r24, r16
    5c10:	0e 94 72 12 	call	0x24e4	; 0x24e4 <sd_write>
				new_dylos_data = 0;
    5c14:	0f b6       	in	r0, 0x3f	; 63
    5c16:	f8 94       	cli
    5c18:	de bf       	out	0x3e, r29	; 62
    5c1a:	0f be       	out	0x3f, r0	; 63
    5c1c:	cd bf       	out	0x3d, r28	; 61
    5c1e:	31 2c       	mov	r3, r1
    5c20:	06 c0       	rjmp	.+12     	; 0x5c2e <main+0x2cc6>
			}
			else
				usart_send(3,"0,0,");			
    5c22:	65 e7       	ldi	r22, 0x75	; 117
    5c24:	74 e0       	ldi	r23, 0x04	; 4
    5c26:	83 e0       	ldi	r24, 0x03	; 3
    5c28:	90 e0       	ldi	r25, 0x00	; 0
    5c2a:	0e 94 e5 14 	call	0x29ca	; 0x29ca <usart_send>
			F = read_temp();
    5c2e:	0e 94 b0 12 	call	0x2560	; 0x2560 <read_temp>
    5c32:	a8 2e       	mov	r10, r24
    5c34:	79 2e       	mov	r7, r25
			sprintf(sd_buff, "Temperature %dF\n", F);
    5c36:	9f 93       	push	r25
    5c38:	8f 93       	push	r24
    5c3a:	8a e7       	ldi	r24, 0x7A	; 122
    5c3c:	94 e0       	ldi	r25, 0x04	; 4
    5c3e:	9f 93       	push	r25
    5c40:	8f 93       	push	r24
    5c42:	1f 93       	push	r17
    5c44:	0f 93       	push	r16
    5c46:	0e 94 87 36 	call	0x6d0e	; 0x6d0e <sprintf>
			sprintf(buffer, "%d,", F);
    5c4a:	7f 92       	push	r7
    5c4c:	af 92       	push	r10
    5c4e:	81 e7       	ldi	r24, 0x71	; 113
    5c50:	94 e0       	ldi	r25, 0x04	; 4
    5c52:	9f 93       	push	r25
    5c54:	8f 93       	push	r24
    5c56:	ff 92       	push	r15
    5c58:	ef 92       	push	r14
    5c5a:	0e 94 87 36 	call	0x6d0e	; 0x6d0e <sprintf>
			usart_send(3, buffer);
    5c5e:	b7 01       	movw	r22, r14
    5c60:	83 e0       	ldi	r24, 0x03	; 3
    5c62:	90 e0       	ldi	r25, 0x00	; 0
    5c64:	0e 94 e5 14 	call	0x29ca	; 0x29ca <usart_send>
			sd_write(sd_buff, &Fil, fil_nm, sd_valid);			
    5c68:	6b 2c       	mov	r6, r11
    5c6a:	71 2c       	mov	r7, r1
    5c6c:	93 01       	movw	r18, r6
    5c6e:	a6 01       	movw	r20, r12
    5c70:	69 e2       	ldi	r22, 0x29	; 41
    5c72:	78 e0       	ldi	r23, 0x08	; 8
    5c74:	c8 01       	movw	r24, r16
    5c76:	0e 94 72 12 	call	0x24e4	; 0x24e4 <sd_write>
			C3H8 = read_MQ2();
    5c7a:	0e 94 db 12 	call	0x25b6	; 0x25b6 <read_MQ2>
			if(C3H8 < -1)
    5c7e:	0f b6       	in	r0, 0x3f	; 63
    5c80:	f8 94       	cli
    5c82:	de bf       	out	0x3e, r29	; 62
    5c84:	0f be       	out	0x3f, r0	; 63
    5c86:	cd bf       	out	0x3d, r28	; 61
    5c88:	8f 3f       	cpi	r24, 0xFF	; 255
    5c8a:	7f ef       	ldi	r23, 0xFF	; 255
    5c8c:	97 07       	cpc	r25, r23
    5c8e:	7c f4       	brge	.+30     	; 0x5cae <main+0x2d46>
			{
				usart_send(3, "-1,");
    5c90:	6b e8       	ldi	r22, 0x8B	; 139
    5c92:	74 e0       	ldi	r23, 0x04	; 4
    5c94:	83 e0       	ldi	r24, 0x03	; 3
    5c96:	90 e0       	ldi	r25, 0x00	; 0
    5c98:	0e 94 e5 14 	call	0x29ca	; 0x29ca <usart_send>
				sd_write("C3H8: ERROR - MQ2 reading out of range\n", &Fil, fil_nm, sd_valid);
    5c9c:	93 01       	movw	r18, r6
    5c9e:	a6 01       	movw	r20, r12
    5ca0:	69 e2       	ldi	r22, 0x29	; 41
    5ca2:	78 e0       	ldi	r23, 0x08	; 8
    5ca4:	8f e8       	ldi	r24, 0x8F	; 143
    5ca6:	94 e0       	ldi	r25, 0x04	; 4
    5ca8:	0e 94 72 12 	call	0x24e4	; 0x24e4 <sd_write>
    5cac:	4f c0       	rjmp	.+158    	; 0x5d4c <main+0x2de4>
			}
			else if(C3H8 == -1)
    5cae:	8f 3f       	cpi	r24, 0xFF	; 255
    5cb0:	af ef       	ldi	r26, 0xFF	; 255
    5cb2:	9a 07       	cpc	r25, r26
    5cb4:	f1 f4       	brne	.+60     	; 0x5cf2 <main+0x2d8a>
			{
				sprintf(sd_buff, "C3H8: %d ppm \n",0);
    5cb6:	1f 92       	push	r1
    5cb8:	1f 92       	push	r1
    5cba:	87 eb       	ldi	r24, 0xB7	; 183
    5cbc:	94 e0       	ldi	r25, 0x04	; 4
    5cbe:	9f 93       	push	r25
    5cc0:	8f 93       	push	r24
    5cc2:	1f 93       	push	r17
    5cc4:	0f 93       	push	r16
    5cc6:	0e 94 87 36 	call	0x6d0e	; 0x6d0e <sprintf>
				usart_send(3, "0,");
    5cca:	67 e7       	ldi	r22, 0x77	; 119
    5ccc:	74 e0       	ldi	r23, 0x04	; 4
    5cce:	83 e0       	ldi	r24, 0x03	; 3
    5cd0:	90 e0       	ldi	r25, 0x00	; 0
    5cd2:	0e 94 e5 14 	call	0x29ca	; 0x29ca <usart_send>
				sd_write(sd_buff, &Fil, fil_nm, sd_valid);
    5cd6:	93 01       	movw	r18, r6
    5cd8:	a6 01       	movw	r20, r12
    5cda:	69 e2       	ldi	r22, 0x29	; 41
    5cdc:	78 e0       	ldi	r23, 0x08	; 8
    5cde:	c8 01       	movw	r24, r16
    5ce0:	0e 94 72 12 	call	0x24e4	; 0x24e4 <sd_write>
    5ce4:	0f 90       	pop	r0
    5ce6:	0f 90       	pop	r0
    5ce8:	0f 90       	pop	r0
    5cea:	0f 90       	pop	r0
    5cec:	0f 90       	pop	r0
    5cee:	0f 90       	pop	r0
    5cf0:	2d c0       	rjmp	.+90     	; 0x5d4c <main+0x2de4>
			}
			else
			{
				sprintf(sd_buff, "C3H8: %d ppm \n",ppm2[C3H8]);
    5cf2:	88 0f       	add	r24, r24
    5cf4:	99 1f       	adc	r25, r25
    5cf6:	e5 e4       	ldi	r30, 0x45	; 69
    5cf8:	f1 e0       	ldi	r31, 0x01	; 1
    5cfa:	ec 0f       	add	r30, r28
    5cfc:	fd 1f       	adc	r31, r29
    5cfe:	e8 0f       	add	r30, r24
    5d00:	f9 1f       	adc	r31, r25
    5d02:	a0 80       	ld	r10, Z
    5d04:	21 80       	ldd	r2, Z+1	; 0x01
    5d06:	2f 92       	push	r2
    5d08:	af 92       	push	r10
    5d0a:	87 eb       	ldi	r24, 0xB7	; 183
    5d0c:	94 e0       	ldi	r25, 0x04	; 4
    5d0e:	9f 93       	push	r25
    5d10:	8f 93       	push	r24
    5d12:	1f 93       	push	r17
    5d14:	0f 93       	push	r16
    5d16:	fb d7       	rcall	.+4086   	; 0x6d0e <sprintf>
				sprintf(buffer, "%d,", ppm2[C3H8]);
    5d18:	2f 92       	push	r2
    5d1a:	af 92       	push	r10
    5d1c:	81 e7       	ldi	r24, 0x71	; 113
    5d1e:	94 e0       	ldi	r25, 0x04	; 4
    5d20:	9f 93       	push	r25
    5d22:	8f 93       	push	r24
    5d24:	ff 92       	push	r15
    5d26:	ef 92       	push	r14
    5d28:	f2 d7       	rcall	.+4068   	; 0x6d0e <sprintf>
				usart_send(3, buffer);
    5d2a:	b7 01       	movw	r22, r14
    5d2c:	83 e0       	ldi	r24, 0x03	; 3
    5d2e:	90 e0       	ldi	r25, 0x00	; 0
    5d30:	0e 94 e5 14 	call	0x29ca	; 0x29ca <usart_send>
				sd_write(sd_buff, &Fil, fil_nm, sd_valid);
    5d34:	93 01       	movw	r18, r6
    5d36:	a6 01       	movw	r20, r12
    5d38:	69 e2       	ldi	r22, 0x29	; 41
    5d3a:	78 e0       	ldi	r23, 0x08	; 8
    5d3c:	c8 01       	movw	r24, r16
    5d3e:	0e 94 72 12 	call	0x24e4	; 0x24e4 <sd_write>
    5d42:	0f b6       	in	r0, 0x3f	; 63
    5d44:	f8 94       	cli
    5d46:	de bf       	out	0x3e, r29	; 62
    5d48:	0f be       	out	0x3f, r0	; 63
    5d4a:	cd bf       	out	0x3d, r28	; 61
			}
			CH4 = read_MQ5();
    5d4c:	0e 94 4b 13 	call	0x2696	; 0x2696 <read_MQ5>
			if(CH4 < -1)
    5d50:	8f 3f       	cpi	r24, 0xFF	; 255
    5d52:	3f ef       	ldi	r19, 0xFF	; 255
    5d54:	93 07       	cpc	r25, r19
    5d56:	7c f4       	brge	.+30     	; 0x5d76 <main+0x2e0e>
			{
				usart_send(3, "-1,");
    5d58:	6b e8       	ldi	r22, 0x8B	; 139
    5d5a:	74 e0       	ldi	r23, 0x04	; 4
    5d5c:	83 e0       	ldi	r24, 0x03	; 3
    5d5e:	90 e0       	ldi	r25, 0x00	; 0
    5d60:	0e 94 e5 14 	call	0x29ca	; 0x29ca <usart_send>
				sd_write("CH4 : ERROR - MQ5 reading out of range\n", &Fil, fil_nm, sd_valid);
    5d64:	93 01       	movw	r18, r6
    5d66:	a6 01       	movw	r20, r12
    5d68:	69 e2       	ldi	r22, 0x29	; 41
    5d6a:	78 e0       	ldi	r23, 0x08	; 8
    5d6c:	86 ec       	ldi	r24, 0xC6	; 198
    5d6e:	94 e0       	ldi	r25, 0x04	; 4
    5d70:	0e 94 72 12 	call	0x24e4	; 0x24e4 <sd_write>
    5d74:	4e c0       	rjmp	.+156    	; 0x5e12 <main+0x2eaa>
			}
			else if(CH4 == -1)
    5d76:	8f 3f       	cpi	r24, 0xFF	; 255
    5d78:	6f ef       	ldi	r22, 0xFF	; 255
    5d7a:	96 07       	cpc	r25, r22
    5d7c:	e9 f4       	brne	.+58     	; 0x5db8 <main+0x2e50>
			{
				sprintf(sd_buff, "CH4 : %d ppm \n",0);
    5d7e:	1f 92       	push	r1
    5d80:	1f 92       	push	r1
    5d82:	8e ee       	ldi	r24, 0xEE	; 238
    5d84:	94 e0       	ldi	r25, 0x04	; 4
    5d86:	9f 93       	push	r25
    5d88:	8f 93       	push	r24
    5d8a:	1f 93       	push	r17
    5d8c:	0f 93       	push	r16
    5d8e:	bf d7       	rcall	.+3966   	; 0x6d0e <sprintf>
				usart_send(3, "0,");
    5d90:	67 e7       	ldi	r22, 0x77	; 119
    5d92:	74 e0       	ldi	r23, 0x04	; 4
    5d94:	83 e0       	ldi	r24, 0x03	; 3
    5d96:	90 e0       	ldi	r25, 0x00	; 0
    5d98:	0e 94 e5 14 	call	0x29ca	; 0x29ca <usart_send>
				sd_write(sd_buff, &Fil, fil_nm, sd_valid);
    5d9c:	93 01       	movw	r18, r6
    5d9e:	a6 01       	movw	r20, r12
    5da0:	69 e2       	ldi	r22, 0x29	; 41
    5da2:	78 e0       	ldi	r23, 0x08	; 8
    5da4:	c8 01       	movw	r24, r16
    5da6:	0e 94 72 12 	call	0x24e4	; 0x24e4 <sd_write>
    5daa:	0f 90       	pop	r0
    5dac:	0f 90       	pop	r0
    5dae:	0f 90       	pop	r0
    5db0:	0f 90       	pop	r0
    5db2:	0f 90       	pop	r0
    5db4:	0f 90       	pop	r0
    5db6:	2d c0       	rjmp	.+90     	; 0x5e12 <main+0x2eaa>
			}
			else
			{
				sprintf(sd_buff, "CH4 : %d ppm \n",ppm5[CH4]);
    5db8:	88 0f       	add	r24, r24
    5dba:	99 1f       	adc	r25, r25
    5dbc:	e3 e7       	ldi	r30, 0x73	; 115
    5dbe:	f2 e0       	ldi	r31, 0x02	; 2
    5dc0:	ec 0f       	add	r30, r28
    5dc2:	fd 1f       	adc	r31, r29
    5dc4:	e8 0f       	add	r30, r24
    5dc6:	f9 1f       	adc	r31, r25
    5dc8:	a0 80       	ld	r10, Z
    5dca:	21 80       	ldd	r2, Z+1	; 0x01
    5dcc:	2f 92       	push	r2
    5dce:	af 92       	push	r10
    5dd0:	8e ee       	ldi	r24, 0xEE	; 238
    5dd2:	94 e0       	ldi	r25, 0x04	; 4
    5dd4:	9f 93       	push	r25
    5dd6:	8f 93       	push	r24
    5dd8:	1f 93       	push	r17
    5dda:	0f 93       	push	r16
    5ddc:	98 d7       	rcall	.+3888   	; 0x6d0e <sprintf>
				sprintf(buffer, "%d,", ppm5[CH4]);
    5dde:	2f 92       	push	r2
    5de0:	af 92       	push	r10
    5de2:	81 e7       	ldi	r24, 0x71	; 113
    5de4:	94 e0       	ldi	r25, 0x04	; 4
    5de6:	9f 93       	push	r25
    5de8:	8f 93       	push	r24
    5dea:	ff 92       	push	r15
    5dec:	ef 92       	push	r14
    5dee:	8f d7       	rcall	.+3870   	; 0x6d0e <sprintf>
				usart_send(3, buffer);
    5df0:	b7 01       	movw	r22, r14
    5df2:	83 e0       	ldi	r24, 0x03	; 3
    5df4:	90 e0       	ldi	r25, 0x00	; 0
    5df6:	0e 94 e5 14 	call	0x29ca	; 0x29ca <usart_send>
				sd_write(sd_buff, &Fil, fil_nm, sd_valid);
    5dfa:	93 01       	movw	r18, r6
    5dfc:	a6 01       	movw	r20, r12
    5dfe:	69 e2       	ldi	r22, 0x29	; 41
    5e00:	78 e0       	ldi	r23, 0x08	; 8
    5e02:	c8 01       	movw	r24, r16
    5e04:	0e 94 72 12 	call	0x24e4	; 0x24e4 <sd_write>
    5e08:	0f b6       	in	r0, 0x3f	; 63
    5e0a:	f8 94       	cli
    5e0c:	de bf       	out	0x3e, r29	; 62
    5e0e:	0f be       	out	0x3f, r0	; 63
    5e10:	cd bf       	out	0x3d, r28	; 61
			}
			CO = read_MQ7();
    5e12:	0e 94 c2 13 	call	0x2784	; 0x2784 <read_MQ7>
			if(CO < -1)
    5e16:	8f 3f       	cpi	r24, 0xFF	; 255
    5e18:	af ef       	ldi	r26, 0xFF	; 255
    5e1a:	9a 07       	cpc	r25, r26
    5e1c:	7c f4       	brge	.+30     	; 0x5e3c <main+0x2ed4>
			{
				usart_send(3, "-1,");
    5e1e:	6b e8       	ldi	r22, 0x8B	; 139
    5e20:	74 e0       	ldi	r23, 0x04	; 4
    5e22:	83 e0       	ldi	r24, 0x03	; 3
    5e24:	90 e0       	ldi	r25, 0x00	; 0
    5e26:	0e 94 e5 14 	call	0x29ca	; 0x29ca <usart_send>
				sd_write("CO  : ERROR - MQ7 reading out of range\n", &Fil, fil_nm, sd_valid);
    5e2a:	93 01       	movw	r18, r6
    5e2c:	a6 01       	movw	r20, r12
    5e2e:	69 e2       	ldi	r22, 0x29	; 41
    5e30:	78 e0       	ldi	r23, 0x08	; 8
    5e32:	8d ef       	ldi	r24, 0xFD	; 253
    5e34:	94 e0       	ldi	r25, 0x04	; 4
    5e36:	0e 94 72 12 	call	0x24e4	; 0x24e4 <sd_write>
    5e3a:	4e c0       	rjmp	.+156    	; 0x5ed8 <main+0x2f70>
			}
			else if(CO == -1)
    5e3c:	8f 3f       	cpi	r24, 0xFF	; 255
    5e3e:	bf ef       	ldi	r27, 0xFF	; 255
    5e40:	9b 07       	cpc	r25, r27
    5e42:	e9 f4       	brne	.+58     	; 0x5e7e <main+0x2f16>
			{
				sprintf(sd_buff, "CO  : %d ppm \n",0);
    5e44:	1f 92       	push	r1
    5e46:	1f 92       	push	r1
    5e48:	85 e2       	ldi	r24, 0x25	; 37
    5e4a:	95 e0       	ldi	r25, 0x05	; 5
    5e4c:	9f 93       	push	r25
    5e4e:	8f 93       	push	r24
    5e50:	1f 93       	push	r17
    5e52:	0f 93       	push	r16
    5e54:	5c d7       	rcall	.+3768   	; 0x6d0e <sprintf>
				usart_send(3, "0,");
    5e56:	67 e7       	ldi	r22, 0x77	; 119
    5e58:	74 e0       	ldi	r23, 0x04	; 4
    5e5a:	83 e0       	ldi	r24, 0x03	; 3
    5e5c:	90 e0       	ldi	r25, 0x00	; 0
    5e5e:	0e 94 e5 14 	call	0x29ca	; 0x29ca <usart_send>
				sd_write(sd_buff, &Fil, fil_nm, sd_valid);
    5e62:	93 01       	movw	r18, r6
    5e64:	a6 01       	movw	r20, r12
    5e66:	69 e2       	ldi	r22, 0x29	; 41
    5e68:	78 e0       	ldi	r23, 0x08	; 8
    5e6a:	c8 01       	movw	r24, r16
    5e6c:	0e 94 72 12 	call	0x24e4	; 0x24e4 <sd_write>
    5e70:	0f 90       	pop	r0
    5e72:	0f 90       	pop	r0
    5e74:	0f 90       	pop	r0
    5e76:	0f 90       	pop	r0
    5e78:	0f 90       	pop	r0
    5e7a:	0f 90       	pop	r0
    5e7c:	2d c0       	rjmp	.+90     	; 0x5ed8 <main+0x2f70>
			}
			else
			{
				sprintf(sd_buff, "CO  : %d ppm \n",ppm7[CO]);
    5e7e:	88 0f       	add	r24, r24
    5e80:	99 1f       	adc	r25, r25
    5e82:	e1 ea       	ldi	r30, 0xA1	; 161
    5e84:	f3 e0       	ldi	r31, 0x03	; 3
    5e86:	ec 0f       	add	r30, r28
    5e88:	fd 1f       	adc	r31, r29
    5e8a:	e8 0f       	add	r30, r24
    5e8c:	f9 1f       	adc	r31, r25
    5e8e:	a0 80       	ld	r10, Z
    5e90:	21 80       	ldd	r2, Z+1	; 0x01
    5e92:	2f 92       	push	r2
    5e94:	af 92       	push	r10
    5e96:	85 e2       	ldi	r24, 0x25	; 37
    5e98:	95 e0       	ldi	r25, 0x05	; 5
    5e9a:	9f 93       	push	r25
    5e9c:	8f 93       	push	r24
    5e9e:	1f 93       	push	r17
    5ea0:	0f 93       	push	r16
    5ea2:	35 d7       	rcall	.+3690   	; 0x6d0e <sprintf>
				sprintf(buffer, "%d,", ppm7[CO]);
    5ea4:	2f 92       	push	r2
    5ea6:	af 92       	push	r10
    5ea8:	81 e7       	ldi	r24, 0x71	; 113
    5eaa:	94 e0       	ldi	r25, 0x04	; 4
    5eac:	9f 93       	push	r25
    5eae:	8f 93       	push	r24
    5eb0:	ff 92       	push	r15
    5eb2:	ef 92       	push	r14
    5eb4:	2c d7       	rcall	.+3672   	; 0x6d0e <sprintf>
				usart_send(3, buffer);
    5eb6:	b7 01       	movw	r22, r14
    5eb8:	83 e0       	ldi	r24, 0x03	; 3
    5eba:	90 e0       	ldi	r25, 0x00	; 0
    5ebc:	0e 94 e5 14 	call	0x29ca	; 0x29ca <usart_send>
				sd_write(sd_buff, &Fil, fil_nm, sd_valid);
    5ec0:	93 01       	movw	r18, r6
    5ec2:	a6 01       	movw	r20, r12
    5ec4:	69 e2       	ldi	r22, 0x29	; 41
    5ec6:	78 e0       	ldi	r23, 0x08	; 8
    5ec8:	c8 01       	movw	r24, r16
    5eca:	0e 94 72 12 	call	0x24e4	; 0x24e4 <sd_write>
    5ece:	0f b6       	in	r0, 0x3f	; 63
    5ed0:	f8 94       	cli
    5ed2:	de bf       	out	0x3e, r29	; 62
    5ed4:	0f be       	out	0x3f, r0	; 63
    5ed6:	cd bf       	out	0x3d, r28	; 61
			}			
			H2S = read_MQ136();
    5ed8:	0e 94 33 14 	call	0x2866	; 0x2866 <read_MQ136>
			if(H2S < -1)
    5edc:	8f 3f       	cpi	r24, 0xFF	; 255
    5ede:	3f ef       	ldi	r19, 0xFF	; 255
    5ee0:	93 07       	cpc	r25, r19
    5ee2:	7c f4       	brge	.+30     	; 0x5f02 <main+0x2f9a>
			{
				usart_send(3, "-1\n");
    5ee4:	64 e3       	ldi	r22, 0x34	; 52
    5ee6:	75 e0       	ldi	r23, 0x05	; 5
    5ee8:	83 e0       	ldi	r24, 0x03	; 3
    5eea:	90 e0       	ldi	r25, 0x00	; 0
    5eec:	0e 94 e5 14 	call	0x29ca	; 0x29ca <usart_send>
				sd_write("H2S : ERROR - MQ136 reading out of range\n\n", &Fil, fil_nm, sd_valid);
    5ef0:	93 01       	movw	r18, r6
    5ef2:	a6 01       	movw	r20, r12
    5ef4:	69 e2       	ldi	r22, 0x29	; 41
    5ef6:	78 e0       	ldi	r23, 0x08	; 8
    5ef8:	88 e3       	ldi	r24, 0x38	; 56
    5efa:	95 e0       	ldi	r25, 0x05	; 5
    5efc:	0e 94 72 12 	call	0x24e4	; 0x24e4 <sd_write>
    5f00:	ad cb       	rjmp	.-2214   	; 0x565c <main+0x26f4>
			}
			else if(H2S == -1)
    5f02:	8f 3f       	cpi	r24, 0xFF	; 255
    5f04:	6f ef       	ldi	r22, 0xFF	; 255
    5f06:	96 07       	cpc	r25, r22
    5f08:	e9 f4       	brne	.+58     	; 0x5f44 <main+0x2fdc>
			{
				sprintf(sd_buff, "H2S : %d ppm \n\n",0);
    5f0a:	1f 92       	push	r1
    5f0c:	1f 92       	push	r1
    5f0e:	83 e6       	ldi	r24, 0x63	; 99
    5f10:	95 e0       	ldi	r25, 0x05	; 5
    5f12:	9f 93       	push	r25
    5f14:	8f 93       	push	r24
    5f16:	1f 93       	push	r17
    5f18:	0f 93       	push	r16
    5f1a:	f9 d6       	rcall	.+3570   	; 0x6d0e <sprintf>
				usart_send(3, "0\n");
    5f1c:	63 e7       	ldi	r22, 0x73	; 115
    5f1e:	75 e0       	ldi	r23, 0x05	; 5
    5f20:	83 e0       	ldi	r24, 0x03	; 3
    5f22:	90 e0       	ldi	r25, 0x00	; 0
    5f24:	0e 94 e5 14 	call	0x29ca	; 0x29ca <usart_send>
				sd_write(sd_buff, &Fil, fil_nm, sd_valid);
    5f28:	93 01       	movw	r18, r6
    5f2a:	a6 01       	movw	r20, r12
    5f2c:	69 e2       	ldi	r22, 0x29	; 41
    5f2e:	78 e0       	ldi	r23, 0x08	; 8
    5f30:	c8 01       	movw	r24, r16
    5f32:	0e 94 72 12 	call	0x24e4	; 0x24e4 <sd_write>
    5f36:	0f 90       	pop	r0
    5f38:	0f 90       	pop	r0
    5f3a:	0f 90       	pop	r0
    5f3c:	0f 90       	pop	r0
    5f3e:	0f 90       	pop	r0
    5f40:	0f 90       	pop	r0
    5f42:	8c cb       	rjmp	.-2280   	; 0x565c <main+0x26f4>
			}
			else
			{
				sprintf(sd_buff, "H2S : %d ppm \n\n",ppm136[H2S]);
    5f44:	88 0f       	add	r24, r24
    5f46:	99 1f       	adc	r25, r25
    5f48:	ef ec       	ldi	r30, 0xCF	; 207
    5f4a:	f4 e0       	ldi	r31, 0x04	; 4
    5f4c:	ec 0f       	add	r30, r28
    5f4e:	fd 1f       	adc	r31, r29
    5f50:	e8 0f       	add	r30, r24
    5f52:	f9 1f       	adc	r31, r25
    5f54:	a0 80       	ld	r10, Z
    5f56:	21 80       	ldd	r2, Z+1	; 0x01
    5f58:	2f 92       	push	r2
    5f5a:	af 92       	push	r10
    5f5c:	83 e6       	ldi	r24, 0x63	; 99
    5f5e:	95 e0       	ldi	r25, 0x05	; 5
    5f60:	9f 93       	push	r25
    5f62:	8f 93       	push	r24
    5f64:	1f 93       	push	r17
    5f66:	0f 93       	push	r16
    5f68:	d2 d6       	rcall	.+3492   	; 0x6d0e <sprintf>
				sprintf(buffer, "%d\n", ppm136[H2S]);
    5f6a:	2f 92       	push	r2
    5f6c:	af 92       	push	r10
    5f6e:	8a e6       	ldi	r24, 0x6A	; 106
    5f70:	94 e0       	ldi	r25, 0x04	; 4
    5f72:	9f 93       	push	r25
    5f74:	8f 93       	push	r24
    5f76:	ff 92       	push	r15
    5f78:	ef 92       	push	r14
    5f7a:	c9 d6       	rcall	.+3474   	; 0x6d0e <sprintf>
				usart_send(3, buffer);
    5f7c:	b7 01       	movw	r22, r14
    5f7e:	83 e0       	ldi	r24, 0x03	; 3
    5f80:	90 e0       	ldi	r25, 0x00	; 0
    5f82:	0e 94 e5 14 	call	0x29ca	; 0x29ca <usart_send>
				sd_write(sd_buff, &Fil, fil_nm, sd_valid);
    5f86:	93 01       	movw	r18, r6
    5f88:	a6 01       	movw	r20, r12
    5f8a:	69 e2       	ldi	r22, 0x29	; 41
    5f8c:	78 e0       	ldi	r23, 0x08	; 8
    5f8e:	c8 01       	movw	r24, r16
    5f90:	0e 94 72 12 	call	0x24e4	; 0x24e4 <sd_write>
    5f94:	0f b6       	in	r0, 0x3f	; 63
    5f96:	f8 94       	cli
    5f98:	de bf       	out	0x3e, r29	; 62
    5f9a:	0f be       	out	0x3f, r0	; 63
    5f9c:	cd bf       	out	0x3d, r28	; 61
    5f9e:	5e cb       	rjmp	.-2372   	; 0x565c <main+0x26f4>
			rec_GPS_flag = 0;
			new_GPS_data = 1;
			if(rec_GPS[strlen(rec_GPS) - 1] == '\n')
			{
				GPS_line = 1;
				strncpy(GPS, rec_GPS, strlen(rec_GPS));
    5fa0:	6b eb       	ldi	r22, 0xBB	; 187
    5fa2:	77 e0       	ldi	r23, 0x07	; 7
    5fa4:	ce 01       	movw	r24, r28
    5fa6:	01 96       	adiw	r24, 0x01	; 1
    5fa8:	a3 d6       	rcall	.+3398   	; 0x6cf0 <strncpy>
				strclr(rec_GPS);
    5faa:	8b eb       	ldi	r24, 0xBB	; 187
    5fac:	97 e0       	ldi	r25, 0x07	; 7
    5fae:	0e 94 93 17 	call	0x2f26	; 0x2f26 <strclr>

		if(rec_dylos_flag == 1)
		{
			rec_dylos_flag = 0;
			new_dylos_data = 1;
			tick = 0;
    5fb2:	41 2c       	mov	r4, r1
		}

		if(rec_dylos_flag == 1)
		{
			rec_dylos_flag = 0;
			new_dylos_data = 1;
    5fb4:	33 24       	eor	r3, r3
    5fb6:	33 94       	inc	r3
		}

		if(rec_GPS_flag == 1)
		{
			rec_GPS_flag = 0;
			new_GPS_data = 1;
    5fb8:	91 e0       	ldi	r25, 0x01	; 1
    5fba:	ce 5e       	subi	r28, 0xEE	; 238
    5fbc:	d9 4f       	sbci	r29, 0xF9	; 249
    5fbe:	98 83       	st	Y, r25
    5fc0:	c2 51       	subi	r28, 0x12	; 18
    5fc2:	d6 40       	sbci	r29, 0x06	; 6
			if(rec_GPS[strlen(rec_GPS) - 1] == '\n')
			{
				GPS_line = 1;
    5fc4:	55 24       	eor	r5, r5
    5fc6:	53 94       	inc	r5
    5fc8:	e0 cb       	rjmp	.-2112   	; 0x578a <main+0x2822>
			}
		}

		if(rec_GPS_flag == 1)
		{
			rec_GPS_flag = 0;
    5fca:	10 92 7b 05 	sts	0x057B, r1
			new_GPS_data = 1;
			if(rec_GPS[strlen(rec_GPS) - 1] == '\n')
    5fce:	eb eb       	ldi	r30, 0xBB	; 187
    5fd0:	f7 e0       	ldi	r31, 0x07	; 7
    5fd2:	01 90       	ld	r0, Z+
    5fd4:	00 20       	and	r0, r0
    5fd6:	e9 f7       	brne	.-6      	; 0x5fd2 <main+0x306a>
    5fd8:	31 97       	sbiw	r30, 0x01	; 1
    5fda:	af 01       	movw	r20, r30
    5fdc:	4b 5b       	subi	r20, 0xBB	; 187
    5fde:	57 40       	sbci	r21, 0x07	; 7
    5fe0:	da 01       	movw	r26, r20
    5fe2:	a6 54       	subi	r26, 0x46	; 70
    5fe4:	b8 4f       	sbci	r27, 0xF8	; 248
    5fe6:	8c 91       	ld	r24, X
    5fe8:	8a 30       	cpi	r24, 0x0A	; 10
    5fea:	d1 f2       	breq	.-76     	; 0x5fa0 <main+0x3038>

		if(rec_dylos_flag == 1)
		{
			rec_dylos_flag = 0;
			new_dylos_data = 1;
			tick = 0;
    5fec:	41 2c       	mov	r4, r1
		}

		if(rec_dylos_flag == 1)
		{
			rec_dylos_flag = 0;
			new_dylos_data = 1;
    5fee:	33 24       	eor	r3, r3
    5ff0:	33 94       	inc	r3
			tick = 0;
			if(rec_dylos[strlen(rec_dylos) - 1] == '\n')
			{
				dylos_line = 1;
    5ff2:	a1 e0       	ldi	r26, 0x01	; 1
    5ff4:	cf 5e       	subi	r28, 0xEF	; 239
    5ff6:	d9 4f       	sbci	r29, 0xF9	; 249
    5ff8:	a8 83       	st	Y, r26
    5ffa:	c1 51       	subi	r28, 0x11	; 17
    5ffc:	d6 40       	sbci	r29, 0x06	; 6
		}

		if(rec_GPS_flag == 1)
		{
			rec_GPS_flag = 0;
			new_GPS_data = 1;
    5ffe:	b1 e0       	ldi	r27, 0x01	; 1
    6000:	ce 5e       	subi	r28, 0xEE	; 238
    6002:	d9 4f       	sbci	r29, 0xF9	; 249
    6004:	b8 83       	st	Y, r27
    6006:	c2 51       	subi	r28, 0x12	; 18
    6008:	d6 40       	sbci	r29, 0x06	; 6
    600a:	af cb       	rjmp	.-2210   	; 0x576a <main+0x2802>

0000600c <dly_us>:

static
void dly_us (UINT n)	/* Delay n microseconds (avr-gcc -Os) */
{
	do {
		PINB;
    600c:	23 b1       	in	r18, 0x03	; 3
#if F_CPU >= 6000000
		PINB;
    600e:	23 b1       	in	r18, 0x03	; 3
#endif
#if F_CPU >= 7000000
		PINB;
    6010:	23 b1       	in	r18, 0x03	; 3
#endif
#if F_CPU >= 8000000
		PINB;
    6012:	23 b1       	in	r18, 0x03	; 3
		PINB; PINB;
#endif
#if F_CPU >= 14000000
#error Too fast clock
#endif
	} while (--n);
    6014:	01 97       	sbiw	r24, 0x01	; 1
    6016:	d1 f7       	brne	.-12     	; 0x600c <dly_us>
}
    6018:	08 95       	ret

0000601a <xmit_mmc>:
static
void xmit_mmc (
	const BYTE* buff,	/* Data to be sent */
	UINT bc				/* Number of bytes to send */
)
{
    601a:	fc 01       	movw	r30, r24
    601c:	68 0f       	add	r22, r24
    601e:	79 1f       	adc	r23, r25
	BYTE d;


	do {
		d = *buff++;	/* Get a byte to be sent */
    6020:	91 91       	ld	r25, Z+
		if (d & 0x80) DI_H(); else DI_L();	/* bit7 */
    6022:	99 23       	and	r25, r25
    6024:	14 f4       	brge	.+4      	; 0x602a <xmit_mmc+0x10>
    6026:	42 9a       	sbi	0x08, 2	; 8
    6028:	01 c0       	rjmp	.+2      	; 0x602c <xmit_mmc+0x12>
    602a:	42 98       	cbi	0x08, 2	; 8
		CK_H(); CK_L();
    602c:	41 9a       	sbi	0x08, 1	; 8
    602e:	41 98       	cbi	0x08, 1	; 8
		if (d & 0x40) DI_H(); else DI_L();	/* bit6 */
    6030:	96 ff       	sbrs	r25, 6
    6032:	02 c0       	rjmp	.+4      	; 0x6038 <xmit_mmc+0x1e>
    6034:	42 9a       	sbi	0x08, 2	; 8
    6036:	01 c0       	rjmp	.+2      	; 0x603a <xmit_mmc+0x20>
    6038:	42 98       	cbi	0x08, 2	; 8
		CK_H(); CK_L();
    603a:	41 9a       	sbi	0x08, 1	; 8
    603c:	41 98       	cbi	0x08, 1	; 8
		if (d & 0x20) DI_H(); else DI_L();	/* bit5 */
    603e:	95 ff       	sbrs	r25, 5
    6040:	02 c0       	rjmp	.+4      	; 0x6046 <xmit_mmc+0x2c>
    6042:	42 9a       	sbi	0x08, 2	; 8
    6044:	01 c0       	rjmp	.+2      	; 0x6048 <xmit_mmc+0x2e>
    6046:	42 98       	cbi	0x08, 2	; 8
		CK_H(); CK_L();
    6048:	41 9a       	sbi	0x08, 1	; 8
    604a:	41 98       	cbi	0x08, 1	; 8
		if (d & 0x10) DI_H(); else DI_L();	/* bit4 */
    604c:	94 ff       	sbrs	r25, 4
    604e:	02 c0       	rjmp	.+4      	; 0x6054 <xmit_mmc+0x3a>
    6050:	42 9a       	sbi	0x08, 2	; 8
    6052:	01 c0       	rjmp	.+2      	; 0x6056 <xmit_mmc+0x3c>
    6054:	42 98       	cbi	0x08, 2	; 8
		CK_H(); CK_L();
    6056:	41 9a       	sbi	0x08, 1	; 8
    6058:	41 98       	cbi	0x08, 1	; 8
		if (d & 0x08) DI_H(); else DI_L();	/* bit3 */
    605a:	93 ff       	sbrs	r25, 3
    605c:	02 c0       	rjmp	.+4      	; 0x6062 <xmit_mmc+0x48>
    605e:	42 9a       	sbi	0x08, 2	; 8
    6060:	01 c0       	rjmp	.+2      	; 0x6064 <xmit_mmc+0x4a>
    6062:	42 98       	cbi	0x08, 2	; 8
		CK_H(); CK_L();
    6064:	41 9a       	sbi	0x08, 1	; 8
    6066:	41 98       	cbi	0x08, 1	; 8
		if (d & 0x04) DI_H(); else DI_L();	/* bit2 */
    6068:	92 ff       	sbrs	r25, 2
    606a:	02 c0       	rjmp	.+4      	; 0x6070 <xmit_mmc+0x56>
    606c:	42 9a       	sbi	0x08, 2	; 8
    606e:	01 c0       	rjmp	.+2      	; 0x6072 <xmit_mmc+0x58>
    6070:	42 98       	cbi	0x08, 2	; 8
		CK_H(); CK_L();
    6072:	41 9a       	sbi	0x08, 1	; 8
    6074:	41 98       	cbi	0x08, 1	; 8
		if (d & 0x02) DI_H(); else DI_L();	/* bit1 */
    6076:	91 ff       	sbrs	r25, 1
    6078:	02 c0       	rjmp	.+4      	; 0x607e <xmit_mmc+0x64>
    607a:	42 9a       	sbi	0x08, 2	; 8
    607c:	01 c0       	rjmp	.+2      	; 0x6080 <xmit_mmc+0x66>
    607e:	42 98       	cbi	0x08, 2	; 8
		CK_H(); CK_L();
    6080:	41 9a       	sbi	0x08, 1	; 8
    6082:	41 98       	cbi	0x08, 1	; 8
		if (d & 0x01) DI_H(); else DI_L();	/* bit0 */
    6084:	90 ff       	sbrs	r25, 0
    6086:	02 c0       	rjmp	.+4      	; 0x608c <xmit_mmc+0x72>
    6088:	42 9a       	sbi	0x08, 2	; 8
    608a:	01 c0       	rjmp	.+2      	; 0x608e <xmit_mmc+0x74>
    608c:	42 98       	cbi	0x08, 2	; 8
		CK_H(); CK_L();
    608e:	41 9a       	sbi	0x08, 1	; 8
    6090:	41 98       	cbi	0x08, 1	; 8
	} while (--bc);
    6092:	e6 17       	cp	r30, r22
    6094:	f7 07       	cpc	r31, r23
    6096:	21 f6       	brne	.-120    	; 0x6020 <xmit_mmc+0x6>
}
    6098:	08 95       	ret

0000609a <rcvr_mmc>:
)
{
	BYTE r;


	DI_H();	/* Send 0xFF */
    609a:	42 9a       	sbi	0x08, 2	; 8
    609c:	fc 01       	movw	r30, r24
    609e:	68 0f       	add	r22, r24
    60a0:	79 1f       	adc	r23, r25

	do {
		r = 0;	 if (DO) r++;	/* bit7 */
    60a2:	96 b1       	in	r25, 0x06	; 6
		CK_H(); CK_L();
    60a4:	41 9a       	sbi	0x08, 1	; 8
    60a6:	41 98       	cbi	0x08, 1	; 8


	DI_H();	/* Send 0xFF */

	do {
		r = 0;	 if (DO) r++;	/* bit7 */
    60a8:	93 fb       	bst	r25, 3
    60aa:	99 27       	eor	r25, r25
    60ac:	90 f9       	bld	r25, 0
		CK_H(); CK_L();
		r <<= 1; if (DO) r++;	/* bit6 */
    60ae:	99 0f       	add	r25, r25
    60b0:	33 99       	sbic	0x06, 3	; 6
    60b2:	9f 5f       	subi	r25, 0xFF	; 255
		CK_H(); CK_L();
    60b4:	41 9a       	sbi	0x08, 1	; 8
    60b6:	41 98       	cbi	0x08, 1	; 8
		r <<= 1; if (DO) r++;	/* bit5 */
    60b8:	99 0f       	add	r25, r25
    60ba:	33 99       	sbic	0x06, 3	; 6
    60bc:	9f 5f       	subi	r25, 0xFF	; 255
		CK_H(); CK_L();
    60be:	41 9a       	sbi	0x08, 1	; 8
    60c0:	41 98       	cbi	0x08, 1	; 8
		r <<= 1; if (DO) r++;	/* bit4 */
    60c2:	99 0f       	add	r25, r25
    60c4:	33 99       	sbic	0x06, 3	; 6
    60c6:	9f 5f       	subi	r25, 0xFF	; 255
		CK_H(); CK_L();
    60c8:	41 9a       	sbi	0x08, 1	; 8
    60ca:	41 98       	cbi	0x08, 1	; 8
		r <<= 1; if (DO) r++;	/* bit3 */
    60cc:	99 0f       	add	r25, r25
    60ce:	33 99       	sbic	0x06, 3	; 6
    60d0:	9f 5f       	subi	r25, 0xFF	; 255
		CK_H(); CK_L();
    60d2:	41 9a       	sbi	0x08, 1	; 8
    60d4:	41 98       	cbi	0x08, 1	; 8
		r <<= 1; if (DO) r++;	/* bit2 */
    60d6:	99 0f       	add	r25, r25
    60d8:	33 99       	sbic	0x06, 3	; 6
    60da:	9f 5f       	subi	r25, 0xFF	; 255
		CK_H(); CK_L();
    60dc:	41 9a       	sbi	0x08, 1	; 8
    60de:	41 98       	cbi	0x08, 1	; 8
		r <<= 1; if (DO) r++;	/* bit1 */
    60e0:	99 0f       	add	r25, r25
    60e2:	33 99       	sbic	0x06, 3	; 6
    60e4:	9f 5f       	subi	r25, 0xFF	; 255
		CK_H(); CK_L();
    60e6:	41 9a       	sbi	0x08, 1	; 8
    60e8:	41 98       	cbi	0x08, 1	; 8
		r <<= 1; if (DO) r++;	/* bit0 */
    60ea:	99 0f       	add	r25, r25
    60ec:	33 99       	sbic	0x06, 3	; 6
    60ee:	9f 5f       	subi	r25, 0xFF	; 255
		CK_H(); CK_L();
    60f0:	41 9a       	sbi	0x08, 1	; 8
    60f2:	41 98       	cbi	0x08, 1	; 8
		*buff++ = r;			/* Store a received byte */
    60f4:	91 93       	st	Z+, r25
	} while (--bc);
    60f6:	e6 17       	cp	r30, r22
    60f8:	f7 07       	cpc	r31, r23
    60fa:	99 f6       	brne	.-90     	; 0x60a2 <rcvr_mmc+0x8>
}
    60fc:	08 95       	ret

000060fe <wait_ready>:
/* Wait for card ready                                                   */
/*-----------------------------------------------------------------------*/

static
int wait_ready (void)	/* 1:OK, 0:Timeout */
{
    60fe:	0f 93       	push	r16
    6100:	1f 93       	push	r17
    6102:	cf 93       	push	r28
    6104:	df 93       	push	r29
    6106:	1f 92       	push	r1
    6108:	cd b7       	in	r28, 0x3d	; 61
    610a:	de b7       	in	r29, 0x3e	; 62
	BYTE d;
	UINT tmr;


	for (tmr = 5000; tmr; tmr--) {	/* Wait for ready in timeout of 500ms */
    610c:	08 e8       	ldi	r16, 0x88	; 136
    610e:	13 e1       	ldi	r17, 0x13	; 19
		rcvr_mmc(&d, 1);
    6110:	61 e0       	ldi	r22, 0x01	; 1
    6112:	70 e0       	ldi	r23, 0x00	; 0
    6114:	ce 01       	movw	r24, r28
    6116:	01 96       	adiw	r24, 0x01	; 1
    6118:	c0 df       	rcall	.-128    	; 0x609a <rcvr_mmc>
		if (d == 0xFF) break;
    611a:	89 81       	ldd	r24, Y+1	; 0x01
    611c:	8f 3f       	cpi	r24, 0xFF	; 255
    611e:	31 f0       	breq	.+12     	; 0x612c <wait_ready+0x2e>
		dly_us(100);
    6120:	84 e6       	ldi	r24, 0x64	; 100
    6122:	90 e0       	ldi	r25, 0x00	; 0
    6124:	73 df       	rcall	.-282    	; 0x600c <dly_us>
{
	BYTE d;
	UINT tmr;


	for (tmr = 5000; tmr; tmr--) {	/* Wait for ready in timeout of 500ms */
    6126:	01 50       	subi	r16, 0x01	; 1
    6128:	11 09       	sbc	r17, r1
    612a:	91 f7       	brne	.-28     	; 0x6110 <wait_ready+0x12>
		rcvr_mmc(&d, 1);
		if (d == 0xFF) break;
		dly_us(100);
	}

	return tmr ? 1 : 0;
    612c:	81 e0       	ldi	r24, 0x01	; 1
    612e:	90 e0       	ldi	r25, 0x00	; 0
    6130:	01 2b       	or	r16, r17
    6132:	11 f4       	brne	.+4      	; 0x6138 <wait_ready+0x3a>
    6134:	80 e0       	ldi	r24, 0x00	; 0
    6136:	90 e0       	ldi	r25, 0x00	; 0
}
    6138:	0f 90       	pop	r0
    613a:	df 91       	pop	r29
    613c:	cf 91       	pop	r28
    613e:	1f 91       	pop	r17
    6140:	0f 91       	pop	r16
    6142:	08 95       	ret

00006144 <deselect>:
/* Deselect the card and release SPI bus                                 */
/*-----------------------------------------------------------------------*/

static
void deselect (void)
{
    6144:	cf 93       	push	r28
    6146:	df 93       	push	r29
    6148:	1f 92       	push	r1
    614a:	cd b7       	in	r28, 0x3d	; 61
    614c:	de b7       	in	r29, 0x3e	; 62
	BYTE d;

	CS_H();				/* Set CS# high */
    614e:	40 9a       	sbi	0x08, 0	; 8
	rcvr_mmc(&d, 1);	/* Dummy clock (force DO hi-z for multiple slave SPI) */
    6150:	61 e0       	ldi	r22, 0x01	; 1
    6152:	70 e0       	ldi	r23, 0x00	; 0
    6154:	ce 01       	movw	r24, r28
    6156:	01 96       	adiw	r24, 0x01	; 1
    6158:	a0 df       	rcall	.-192    	; 0x609a <rcvr_mmc>
}
    615a:	0f 90       	pop	r0
    615c:	df 91       	pop	r29
    615e:	cf 91       	pop	r28
    6160:	08 95       	ret

00006162 <select>:
/* Select the card and wait for ready                                    */
/*-----------------------------------------------------------------------*/

static
int select (void)	/* 1:OK, 0:Timeout */
{
    6162:	0f 93       	push	r16
    6164:	1f 93       	push	r17
    6166:	cf 93       	push	r28
    6168:	df 93       	push	r29
    616a:	1f 92       	push	r1
    616c:	cd b7       	in	r28, 0x3d	; 61
    616e:	de b7       	in	r29, 0x3e	; 62
	BYTE d;

	CS_L();				/* Set CS# low */
    6170:	40 98       	cbi	0x08, 0	; 8
	rcvr_mmc(&d, 1);	/* Dummy clock (force DO enabled) */
    6172:	61 e0       	ldi	r22, 0x01	; 1
    6174:	70 e0       	ldi	r23, 0x00	; 0
    6176:	ce 01       	movw	r24, r28
    6178:	01 96       	adiw	r24, 0x01	; 1
    617a:	8f df       	rcall	.-226    	; 0x609a <rcvr_mmc>
	if (wait_ready()) return 1;	/* Wait for card ready */
    617c:	c0 df       	rcall	.-128    	; 0x60fe <wait_ready>
    617e:	8c 01       	movw	r16, r24
    6180:	89 2b       	or	r24, r25
    6182:	11 f4       	brne	.+4      	; 0x6188 <select+0x26>

	deselect();
    6184:	df df       	rcall	.-66     	; 0x6144 <deselect>
	return 0;			/* Failed */
    6186:	02 c0       	rjmp	.+4      	; 0x618c <select+0x2a>
{
	BYTE d;

	CS_L();				/* Set CS# low */
	rcvr_mmc(&d, 1);	/* Dummy clock (force DO enabled) */
	if (wait_ready()) return 1;	/* Wait for card ready */
    6188:	01 e0       	ldi	r16, 0x01	; 1
    618a:	10 e0       	ldi	r17, 0x00	; 0

	deselect();
	return 0;			/* Failed */
}
    618c:	c8 01       	movw	r24, r16
    618e:	0f 90       	pop	r0
    6190:	df 91       	pop	r29
    6192:	cf 91       	pop	r28
    6194:	1f 91       	pop	r17
    6196:	0f 91       	pop	r16
    6198:	08 95       	ret

0000619a <rcvr_datablock>:
static
int rcvr_datablock (	/* 1:OK, 0:Failed */
	BYTE *buff,			/* Data buffer to store received data */
	UINT btr			/* Byte count */
)
{
    619a:	cf 92       	push	r12
    619c:	df 92       	push	r13
    619e:	ef 92       	push	r14
    61a0:	ff 92       	push	r15
    61a2:	0f 93       	push	r16
    61a4:	1f 93       	push	r17
    61a6:	cf 93       	push	r28
    61a8:	df 93       	push	r29
    61aa:	1f 92       	push	r1
    61ac:	1f 92       	push	r1
    61ae:	cd b7       	in	r28, 0x3d	; 61
    61b0:	de b7       	in	r29, 0x3e	; 62
    61b2:	7c 01       	movw	r14, r24
    61b4:	6b 01       	movw	r12, r22
    61b6:	08 ee       	ldi	r16, 0xE8	; 232
    61b8:	13 e0       	ldi	r17, 0x03	; 3
	BYTE d[2];
	UINT tmr;


	for (tmr = 1000; tmr; tmr--) {	/* Wait for data packet in timeout of 100ms */
		rcvr_mmc(d, 1);
    61ba:	61 e0       	ldi	r22, 0x01	; 1
    61bc:	70 e0       	ldi	r23, 0x00	; 0
    61be:	ce 01       	movw	r24, r28
    61c0:	01 96       	adiw	r24, 0x01	; 1
    61c2:	6b df       	rcall	.-298    	; 0x609a <rcvr_mmc>
		if (d[0] != 0xFF) break;
    61c4:	99 81       	ldd	r25, Y+1	; 0x01
    61c6:	9f 3f       	cpi	r25, 0xFF	; 255
    61c8:	31 f4       	brne	.+12     	; 0x61d6 <rcvr_datablock+0x3c>
		dly_us(100);
    61ca:	84 e6       	ldi	r24, 0x64	; 100
    61cc:	90 e0       	ldi	r25, 0x00	; 0
    61ce:	1e df       	rcall	.-452    	; 0x600c <dly_us>
    61d0:	01 50       	subi	r16, 0x01	; 1
    61d2:	11 09       	sbc	r17, r1
{
	BYTE d[2];
	UINT tmr;


	for (tmr = 1000; tmr; tmr--) {	/* Wait for data packet in timeout of 100ms */
    61d4:	91 f7       	brne	.-28     	; 0x61ba <rcvr_datablock+0x20>
		rcvr_mmc(d, 1);
		if (d[0] != 0xFF) break;
		dly_us(100);
	}
	if (d[0] != 0xFE) return 0;		/* If not valid data token, return with error */
    61d6:	99 81       	ldd	r25, Y+1	; 0x01
    61d8:	9e 3f       	cpi	r25, 0xFE	; 254
    61da:	59 f4       	brne	.+22     	; 0x61f2 <rcvr_datablock+0x58>

	rcvr_mmc(buff, btr);			/* Receive the data block into buffer */
    61dc:	b6 01       	movw	r22, r12
    61de:	c7 01       	movw	r24, r14
    61e0:	5c df       	rcall	.-328    	; 0x609a <rcvr_mmc>
	rcvr_mmc(d, 2);					/* Discard CRC */
    61e2:	62 e0       	ldi	r22, 0x02	; 2
    61e4:	70 e0       	ldi	r23, 0x00	; 0
    61e6:	ce 01       	movw	r24, r28
    61e8:	01 96       	adiw	r24, 0x01	; 1
    61ea:	57 df       	rcall	.-338    	; 0x609a <rcvr_mmc>

	return 1;						/* Return with success */
    61ec:	81 e0       	ldi	r24, 0x01	; 1
    61ee:	90 e0       	ldi	r25, 0x00	; 0
    61f0:	02 c0       	rjmp	.+4      	; 0x61f6 <rcvr_datablock+0x5c>
	for (tmr = 1000; tmr; tmr--) {	/* Wait for data packet in timeout of 100ms */
		rcvr_mmc(d, 1);
		if (d[0] != 0xFF) break;
		dly_us(100);
	}
	if (d[0] != 0xFE) return 0;		/* If not valid data token, return with error */
    61f2:	80 e0       	ldi	r24, 0x00	; 0
    61f4:	90 e0       	ldi	r25, 0x00	; 0

	rcvr_mmc(buff, btr);			/* Receive the data block into buffer */
	rcvr_mmc(d, 2);					/* Discard CRC */

	return 1;						/* Return with success */
}
    61f6:	0f 90       	pop	r0
    61f8:	0f 90       	pop	r0
    61fa:	df 91       	pop	r29
    61fc:	cf 91       	pop	r28
    61fe:	1f 91       	pop	r17
    6200:	0f 91       	pop	r16
    6202:	ff 90       	pop	r15
    6204:	ef 90       	pop	r14
    6206:	df 90       	pop	r13
    6208:	cf 90       	pop	r12
    620a:	08 95       	ret

0000620c <xmit_datablock>:
static
int xmit_datablock (	/* 1:OK, 0:Failed */
	const BYTE *buff,	/* 512 byte data block to be transmitted */
	BYTE token			/* Data/Stop token */
)
{
    620c:	ef 92       	push	r14
    620e:	ff 92       	push	r15
    6210:	1f 93       	push	r17
    6212:	cf 93       	push	r28
    6214:	df 93       	push	r29
    6216:	1f 92       	push	r1
    6218:	1f 92       	push	r1
    621a:	cd b7       	in	r28, 0x3d	; 61
    621c:	de b7       	in	r29, 0x3e	; 62
    621e:	7c 01       	movw	r14, r24
    6220:	16 2f       	mov	r17, r22
	BYTE d[2];


	if (!wait_ready()) return 0;
    6222:	6d df       	rcall	.-294    	; 0x60fe <wait_ready>
    6224:	00 97       	sbiw	r24, 0x00	; 0
    6226:	11 f1       	breq	.+68     	; 0x626c <xmit_datablock+0x60>

	d[0] = token;
    6228:	19 83       	std	Y+1, r17	; 0x01
	xmit_mmc(d, 1);				/* Xmit a token */
    622a:	61 e0       	ldi	r22, 0x01	; 1
    622c:	70 e0       	ldi	r23, 0x00	; 0
    622e:	ce 01       	movw	r24, r28
    6230:	01 96       	adiw	r24, 0x01	; 1
    6232:	f3 de       	rcall	.-538    	; 0x601a <xmit_mmc>
	if (token != 0xFD) {		/* Is it data token? */
    6234:	1d 3f       	cpi	r17, 0xFD	; 253
    6236:	c1 f0       	breq	.+48     	; 0x6268 <xmit_datablock+0x5c>
		xmit_mmc(buff, 512);	/* Xmit the 512 byte data block to MMC */
    6238:	60 e0       	ldi	r22, 0x00	; 0
    623a:	72 e0       	ldi	r23, 0x02	; 2
    623c:	c7 01       	movw	r24, r14
    623e:	ed de       	rcall	.-550    	; 0x601a <xmit_mmc>
		rcvr_mmc(d, 2);			/* Xmit dummy CRC (0xFF,0xFF) */
    6240:	62 e0       	ldi	r22, 0x02	; 2
    6242:	70 e0       	ldi	r23, 0x00	; 0
    6244:	ce 01       	movw	r24, r28
    6246:	01 96       	adiw	r24, 0x01	; 1
    6248:	28 df       	rcall	.-432    	; 0x609a <rcvr_mmc>
		rcvr_mmc(d, 1);			/* Receive data response */
    624a:	61 e0       	ldi	r22, 0x01	; 1
    624c:	70 e0       	ldi	r23, 0x00	; 0
    624e:	ce 01       	movw	r24, r28
    6250:	01 96       	adiw	r24, 0x01	; 1
    6252:	23 df       	rcall	.-442    	; 0x609a <rcvr_mmc>
		if ((d[0] & 0x1F) != 0x05)	/* If not accepted, return with error */
    6254:	89 81       	ldd	r24, Y+1	; 0x01
    6256:	8f 71       	andi	r24, 0x1F	; 31
    6258:	31 e0       	ldi	r19, 0x01	; 1
    625a:	20 e0       	ldi	r18, 0x00	; 0
    625c:	85 30       	cpi	r24, 0x05	; 5
    625e:	09 f0       	breq	.+2      	; 0x6262 <xmit_datablock+0x56>
    6260:	30 e0       	ldi	r19, 0x00	; 0
)
{
	BYTE d[2];


	if (!wait_ready()) return 0;
    6262:	83 2f       	mov	r24, r19
    6264:	92 2f       	mov	r25, r18
    6266:	02 c0       	rjmp	.+4      	; 0x626c <xmit_datablock+0x60>
		rcvr_mmc(d, 1);			/* Receive data response */
		if ((d[0] & 0x1F) != 0x05)	/* If not accepted, return with error */
			return 0;
	}

	return 1;
    6268:	81 e0       	ldi	r24, 0x01	; 1
    626a:	90 e0       	ldi	r25, 0x00	; 0
}
    626c:	0f 90       	pop	r0
    626e:	0f 90       	pop	r0
    6270:	df 91       	pop	r29
    6272:	cf 91       	pop	r28
    6274:	1f 91       	pop	r17
    6276:	ff 90       	pop	r15
    6278:	ef 90       	pop	r14
    627a:	08 95       	ret

0000627c <send_cmd>:
static
BYTE send_cmd (		/* Returns command response (bit7==1:Send failed)*/
	BYTE cmd,		/* Command byte */
	DWORD arg		/* Argument */
)
{
    627c:	df 92       	push	r13
    627e:	ef 92       	push	r14
    6280:	ff 92       	push	r15
    6282:	0f 93       	push	r16
    6284:	1f 93       	push	r17
    6286:	cf 93       	push	r28
    6288:	df 93       	push	r29
    628a:	cd b7       	in	r28, 0x3d	; 61
    628c:	de b7       	in	r29, 0x3e	; 62
    628e:	27 97       	sbiw	r28, 0x07	; 7
    6290:	0f b6       	in	r0, 0x3f	; 63
    6292:	f8 94       	cli
    6294:	de bf       	out	0x3e, r29	; 62
    6296:	0f be       	out	0x3f, r0	; 63
    6298:	cd bf       	out	0x3d, r28	; 61
    629a:	18 2f       	mov	r17, r24
    629c:	04 2f       	mov	r16, r20
    629e:	f5 2e       	mov	r15, r21
    62a0:	e6 2e       	mov	r14, r22
    62a2:	d7 2e       	mov	r13, r23
	BYTE n, d, buf[6];


	if (cmd & 0x80) {	/* ACMD<n> is the command sequense of CMD55-CMD<n> */
    62a4:	88 23       	and	r24, r24
    62a6:	4c f4       	brge	.+18     	; 0x62ba <send_cmd+0x3e>
		cmd &= 0x7F;
		n = send_cmd(CMD55, 0);
    62a8:	40 e0       	ldi	r20, 0x00	; 0
    62aa:	50 e0       	ldi	r21, 0x00	; 0
    62ac:	ba 01       	movw	r22, r20
    62ae:	87 e3       	ldi	r24, 0x37	; 55
    62b0:	e5 df       	rcall	.-54     	; 0x627c <send_cmd>
		if (n > 1) return n;
    62b2:	82 30       	cpi	r24, 0x02	; 2
    62b4:	08 f0       	brcs	.+2      	; 0x62b8 <send_cmd+0x3c>
    62b6:	4f c0       	rjmp	.+158    	; 0x6356 <send_cmd+0xda>
{
	BYTE n, d, buf[6];


	if (cmd & 0x80) {	/* ACMD<n> is the command sequense of CMD55-CMD<n> */
		cmd &= 0x7F;
    62b8:	1f 77       	andi	r17, 0x7F	; 127
		n = send_cmd(CMD55, 0);
		if (n > 1) return n;
	}

	/* Select the card and wait for ready except to stop multiple block read */
	if (cmd != CMD12) {
    62ba:	1c 30       	cpi	r17, 0x0C	; 12
    62bc:	09 f1       	breq	.+66     	; 0x6300 <send_cmd+0x84>
		deselect();
    62be:	42 df       	rcall	.-380    	; 0x6144 <deselect>
		if (!select()) return 0xFF;
    62c0:	50 df       	rcall	.-352    	; 0x6162 <select>
    62c2:	89 2b       	or	r24, r25
    62c4:	d9 f0       	breq	.+54     	; 0x62fc <send_cmd+0x80>
	}

	/* Send a command packet */
	buf[0] = 0x40 | cmd;			/* Start + Command index */
    62c6:	81 2f       	mov	r24, r17
    62c8:	80 64       	ori	r24, 0x40	; 64
    62ca:	8a 83       	std	Y+2, r24	; 0x02
	buf[1] = (BYTE)(arg >> 24);		/* Argument[31..24] */
    62cc:	db 82       	std	Y+3, r13	; 0x03
	buf[2] = (BYTE)(arg >> 16);		/* Argument[23..16] */
    62ce:	ec 82       	std	Y+4, r14	; 0x04
	buf[3] = (BYTE)(arg >> 8);		/* Argument[15..8] */
    62d0:	fd 82       	std	Y+5, r15	; 0x05
	buf[4] = (BYTE)arg;				/* Argument[7..0] */
    62d2:	0e 83       	std	Y+6, r16	; 0x06
	n = 0x01;						/* Dummy CRC + Stop */
	if (cmd == CMD0) n = 0x95;		/* (valid CRC for CMD0(0)) */
    62d4:	11 23       	and	r17, r17
    62d6:	b9 f1       	breq	.+110    	; 0x6346 <send_cmd+0xca>
    62d8:	33 c0       	rjmp	.+102    	; 0x6340 <send_cmd+0xc4>
	if (cmd == CMD8) n = 0x87;		/* (valid CRC for CMD8(0x1AA)) */
	buf[5] = n;
	xmit_mmc(buf, 6);

	/* Receive command response */
	if (cmd == CMD12) rcvr_mmc(&d, 1);	/* Skip a stuff byte when stop reading */
    62da:	61 e0       	ldi	r22, 0x01	; 1
    62dc:	70 e0       	ldi	r23, 0x00	; 0
    62de:	ce 01       	movw	r24, r28
    62e0:	01 96       	adiw	r24, 0x01	; 1
    62e2:	db de       	rcall	.-586    	; 0x609a <rcvr_mmc>
static
BYTE send_cmd (		/* Returns command response (bit7==1:Send failed)*/
	BYTE cmd,		/* Command byte */
	DWORD arg		/* Argument */
)
{
    62e4:	1a e0       	ldi	r17, 0x0A	; 10

	/* Receive command response */
	if (cmd == CMD12) rcvr_mmc(&d, 1);	/* Skip a stuff byte when stop reading */
	n = 10;								/* Wait for a valid response in timeout of 10 attempts */
	do
		rcvr_mmc(&d, 1);
    62e6:	61 e0       	ldi	r22, 0x01	; 1
    62e8:	70 e0       	ldi	r23, 0x00	; 0
    62ea:	ce 01       	movw	r24, r28
    62ec:	01 96       	adiw	r24, 0x01	; 1
    62ee:	d5 de       	rcall	.-598    	; 0x609a <rcvr_mmc>
	while ((d & 0x80) && --n);
    62f0:	89 81       	ldd	r24, Y+1	; 0x01
    62f2:	88 23       	and	r24, r24
    62f4:	84 f5       	brge	.+96     	; 0x6356 <send_cmd+0xda>
    62f6:	11 50       	subi	r17, 0x01	; 1
    62f8:	b1 f7       	brne	.-20     	; 0x62e6 <send_cmd+0x6a>
    62fa:	2d c0       	rjmp	.+90     	; 0x6356 <send_cmd+0xda>
	}

	/* Select the card and wait for ready except to stop multiple block read */
	if (cmd != CMD12) {
		deselect();
		if (!select()) return 0xFF;
    62fc:	8f ef       	ldi	r24, 0xFF	; 255
    62fe:	2b c0       	rjmp	.+86     	; 0x6356 <send_cmd+0xda>
	}

	/* Send a command packet */
	buf[0] = 0x40 | cmd;			/* Start + Command index */
    6300:	8c e4       	ldi	r24, 0x4C	; 76
    6302:	8a 83       	std	Y+2, r24	; 0x02
	buf[1] = (BYTE)(arg >> 24);		/* Argument[31..24] */
    6304:	db 82       	std	Y+3, r13	; 0x03
	buf[2] = (BYTE)(arg >> 16);		/* Argument[23..16] */
    6306:	ec 82       	std	Y+4, r14	; 0x04
	buf[3] = (BYTE)(arg >> 8);		/* Argument[15..8] */
    6308:	fd 82       	std	Y+5, r15	; 0x05
	buf[4] = (BYTE)arg;				/* Argument[7..0] */
    630a:	0e 83       	std	Y+6, r16	; 0x06
	n = 0x01;						/* Dummy CRC + Stop */
	if (cmd == CMD0) n = 0x95;		/* (valid CRC for CMD0(0)) */
	if (cmd == CMD8) n = 0x87;		/* (valid CRC for CMD8(0x1AA)) */
	buf[5] = n;
    630c:	81 e0       	ldi	r24, 0x01	; 1
    630e:	8f 83       	std	Y+7, r24	; 0x07
	xmit_mmc(buf, 6);
    6310:	66 e0       	ldi	r22, 0x06	; 6
    6312:	70 e0       	ldi	r23, 0x00	; 0
    6314:	ce 01       	movw	r24, r28
    6316:	02 96       	adiw	r24, 0x02	; 2
    6318:	80 de       	rcall	.-768    	; 0x601a <xmit_mmc>

	/* Receive command response */
	if (cmd == CMD12) rcvr_mmc(&d, 1);	/* Skip a stuff byte when stop reading */
    631a:	1c 30       	cpi	r17, 0x0C	; 12
    631c:	19 f7       	brne	.-58     	; 0x62e4 <send_cmd+0x68>
    631e:	dd cf       	rjmp	.-70     	; 0x62da <send_cmd+0x5e>
	buf[3] = (BYTE)(arg >> 8);		/* Argument[15..8] */
	buf[4] = (BYTE)arg;				/* Argument[7..0] */
	n = 0x01;						/* Dummy CRC + Stop */
	if (cmd == CMD0) n = 0x95;		/* (valid CRC for CMD0(0)) */
	if (cmd == CMD8) n = 0x87;		/* (valid CRC for CMD8(0x1AA)) */
	buf[5] = n;
    6320:	87 e8       	ldi	r24, 0x87	; 135
    6322:	8f 83       	std	Y+7, r24	; 0x07
	xmit_mmc(buf, 6);
    6324:	66 e0       	ldi	r22, 0x06	; 6
    6326:	70 e0       	ldi	r23, 0x00	; 0
    6328:	ce 01       	movw	r24, r28
    632a:	02 96       	adiw	r24, 0x02	; 2
    632c:	76 de       	rcall	.-788    	; 0x601a <xmit_mmc>
    632e:	da cf       	rjmp	.-76     	; 0x62e4 <send_cmd+0x68>
	buf[3] = (BYTE)(arg >> 8);		/* Argument[15..8] */
	buf[4] = (BYTE)arg;				/* Argument[7..0] */
	n = 0x01;						/* Dummy CRC + Stop */
	if (cmd == CMD0) n = 0x95;		/* (valid CRC for CMD0(0)) */
	if (cmd == CMD8) n = 0x87;		/* (valid CRC for CMD8(0x1AA)) */
	buf[5] = n;
    6330:	81 e0       	ldi	r24, 0x01	; 1
    6332:	8f 83       	std	Y+7, r24	; 0x07
	xmit_mmc(buf, 6);
    6334:	66 e0       	ldi	r22, 0x06	; 6
    6336:	70 e0       	ldi	r23, 0x00	; 0
    6338:	ce 01       	movw	r24, r28
    633a:	02 96       	adiw	r24, 0x02	; 2
    633c:	6e de       	rcall	.-804    	; 0x601a <xmit_mmc>
    633e:	d2 cf       	rjmp	.-92     	; 0x62e4 <send_cmd+0x68>
	buf[2] = (BYTE)(arg >> 16);		/* Argument[23..16] */
	buf[3] = (BYTE)(arg >> 8);		/* Argument[15..8] */
	buf[4] = (BYTE)arg;				/* Argument[7..0] */
	n = 0x01;						/* Dummy CRC + Stop */
	if (cmd == CMD0) n = 0x95;		/* (valid CRC for CMD0(0)) */
	if (cmd == CMD8) n = 0x87;		/* (valid CRC for CMD8(0x1AA)) */
    6340:	18 30       	cpi	r17, 0x08	; 8
    6342:	71 f3       	breq	.-36     	; 0x6320 <send_cmd+0xa4>
    6344:	f5 cf       	rjmp	.-22     	; 0x6330 <send_cmd+0xb4>
	buf[5] = n;
    6346:	85 e9       	ldi	r24, 0x95	; 149
    6348:	8f 83       	std	Y+7, r24	; 0x07
	xmit_mmc(buf, 6);
    634a:	66 e0       	ldi	r22, 0x06	; 6
    634c:	70 e0       	ldi	r23, 0x00	; 0
    634e:	ce 01       	movw	r24, r28
    6350:	02 96       	adiw	r24, 0x02	; 2
    6352:	63 de       	rcall	.-826    	; 0x601a <xmit_mmc>
    6354:	c7 cf       	rjmp	.-114    	; 0x62e4 <send_cmd+0x68>
	do
		rcvr_mmc(&d, 1);
	while ((d & 0x80) && --n);

	return d;			/* Return with the response value */
}
    6356:	27 96       	adiw	r28, 0x07	; 7
    6358:	0f b6       	in	r0, 0x3f	; 63
    635a:	f8 94       	cli
    635c:	de bf       	out	0x3e, r29	; 62
    635e:	0f be       	out	0x3f, r0	; 63
    6360:	cd bf       	out	0x3d, r28	; 61
    6362:	df 91       	pop	r29
    6364:	cf 91       	pop	r28
    6366:	1f 91       	pop	r17
    6368:	0f 91       	pop	r16
    636a:	ff 90       	pop	r15
    636c:	ef 90       	pop	r14
    636e:	df 90       	pop	r13
    6370:	08 95       	ret

00006372 <disk_status>:

DSTATUS disk_status (
	BYTE drv			/* Drive number (always 0) */
)
{
	if (drv) return STA_NOINIT;
    6372:	81 11       	cpse	r24, r1
    6374:	03 c0       	rjmp	.+6      	; 0x637c <disk_status+0xa>

	return Stat;
    6376:	80 91 00 02 	lds	r24, 0x0200
    637a:	08 95       	ret

DSTATUS disk_status (
	BYTE drv			/* Drive number (always 0) */
)
{
	if (drv) return STA_NOINIT;
    637c:	81 e0       	ldi	r24, 0x01	; 1

	return Stat;
}
    637e:	08 95       	ret

00006380 <disk_initialize>:
/*-----------------------------------------------------------------------*/

DSTATUS disk_initialize (
	BYTE drv		/* Physical drive nmuber (0) */
)
{
    6380:	ef 92       	push	r14
    6382:	ff 92       	push	r15
    6384:	0f 93       	push	r16
    6386:	1f 93       	push	r17
    6388:	cf 93       	push	r28
    638a:	df 93       	push	r29
    638c:	00 d0       	rcall	.+0      	; 0x638e <disk_initialize+0xe>
    638e:	1f 92       	push	r1
    6390:	cd b7       	in	r28, 0x3d	; 61
    6392:	de b7       	in	r29, 0x3e	; 62
	BYTE n, ty, cmd, buf[4];
	UINT tmr;
	DSTATUS s;


	if (drv) return RES_NOTRDY;
    6394:	81 11       	cpse	r24, r1
    6396:	a5 c0       	rjmp	.+330    	; 0x64e2 <disk_initialize+0x162>

	dly_us(10000);			/* 10ms */
    6398:	80 e1       	ldi	r24, 0x10	; 16
    639a:	97 e2       	ldi	r25, 0x27	; 39
    639c:	37 de       	rcall	.-914    	; 0x600c <dly_us>
	CS_INIT(); CS_H();		/* Initialize port pin tied to CS */
    639e:	38 9a       	sbi	0x07, 0	; 7
    63a0:	40 9a       	sbi	0x08, 0	; 8
	CK_INIT(); CK_L();		/* Initialize port pin tied to SCLK */
    63a2:	39 9a       	sbi	0x07, 1	; 7
    63a4:	41 98       	cbi	0x08, 1	; 8
	DI_INIT();				/* Initialize port pin tied to DI */
    63a6:	3a 9a       	sbi	0x07, 2	; 7
	DO_INIT();				/* Initialize port pin tied to DO */
    63a8:	3b 98       	cbi	0x07, 3	; 7
    63aa:	2a e0       	ldi	r18, 0x0A	; 10
/*-----------------------------------------------------------------------*/

DSTATUS disk_initialize (
	BYTE drv		/* Physical drive nmuber (0) */
)
{
    63ac:	48 e0       	ldi	r20, 0x08	; 8
    63ae:	30 e0       	ldi	r19, 0x00	; 0
    63b0:	06 c0       	rjmp	.+12     	; 0x63be <disk_initialize+0x3e>

	for (n = 10; n > 0; n--)
	{
		for (int i = 0; i < 8; i++)
		{
			CK_H(); CK_L();
    63b2:	41 9a       	sbi	0x08, 1	; 8
    63b4:	41 98       	cbi	0x08, 1	; 8
    63b6:	01 97       	sbiw	r24, 0x01	; 1
	DI_INIT();				/* Initialize port pin tied to DI */
	DO_INIT();				/* Initialize port pin tied to DO */

	for (n = 10; n > 0; n--)
	{
		for (int i = 0; i < 8; i++)
    63b8:	e1 f7       	brne	.-8      	; 0x63b2 <disk_initialize+0x32>
    63ba:	21 50       	subi	r18, 0x01	; 1
	CS_INIT(); CS_H();		/* Initialize port pin tied to CS */
	CK_INIT(); CK_L();		/* Initialize port pin tied to SCLK */
	DI_INIT();				/* Initialize port pin tied to DI */
	DO_INIT();				/* Initialize port pin tied to DO */

	for (n = 10; n > 0; n--)
    63bc:	19 f0       	breq	.+6      	; 0x63c4 <disk_initialize+0x44>
/*-----------------------------------------------------------------------*/

DSTATUS disk_initialize (
	BYTE drv		/* Physical drive nmuber (0) */
)
{
    63be:	84 2f       	mov	r24, r20
    63c0:	93 2f       	mov	r25, r19
    63c2:	f7 cf       	rjmp	.-18     	; 0x63b2 <disk_initialize+0x32>
		{
			CK_H(); CK_L();
		}
	}
	ty = 0;
	if (send_cmd(CMD0, 0) == 1) {			/* Enter Idle state */
    63c4:	40 e0       	ldi	r20, 0x00	; 0
    63c6:	50 e0       	ldi	r21, 0x00	; 0
    63c8:	ba 01       	movw	r22, r20
    63ca:	80 e0       	ldi	r24, 0x00	; 0
    63cc:	57 df       	rcall	.-338    	; 0x627c <send_cmd>
    63ce:	81 30       	cpi	r24, 0x01	; 1
    63d0:	09 f0       	breq	.+2      	; 0x63d4 <disk_initialize+0x54>
    63d2:	6d c0       	rjmp	.+218    	; 0x64ae <disk_initialize+0x12e>
		if (send_cmd(CMD8, 0x1AA) == 1) {	/* SDv2? */
    63d4:	4a ea       	ldi	r20, 0xAA	; 170
    63d6:	51 e0       	ldi	r21, 0x01	; 1
    63d8:	60 e0       	ldi	r22, 0x00	; 0
    63da:	70 e0       	ldi	r23, 0x00	; 0
    63dc:	88 e0       	ldi	r24, 0x08	; 8
    63de:	4e df       	rcall	.-356    	; 0x627c <send_cmd>
    63e0:	81 30       	cpi	r24, 0x01	; 1
    63e2:	a9 f5       	brne	.+106    	; 0x644e <disk_initialize+0xce>
			rcvr_mmc(buf, 4);							/* Get trailing return value of R7 resp */
    63e4:	64 e0       	ldi	r22, 0x04	; 4
    63e6:	70 e0       	ldi	r23, 0x00	; 0
    63e8:	ce 01       	movw	r24, r28
    63ea:	01 96       	adiw	r24, 0x01	; 1
    63ec:	56 de       	rcall	.-852    	; 0x609a <rcvr_mmc>
			if (buf[2] == 0x01 && buf[3] == 0xAA) {		/* The card can work at vdd range of 2.7-3.6V */
    63ee:	8b 81       	ldd	r24, Y+3	; 0x03
    63f0:	81 30       	cpi	r24, 0x01	; 1
    63f2:	09 f0       	breq	.+2      	; 0x63f6 <disk_initialize+0x76>
    63f4:	5e c0       	rjmp	.+188    	; 0x64b2 <disk_initialize+0x132>
    63f6:	8c 81       	ldd	r24, Y+4	; 0x04
    63f8:	8a 3a       	cpi	r24, 0xAA	; 170
    63fa:	09 f0       	breq	.+2      	; 0x63fe <disk_initialize+0x7e>
    63fc:	5c c0       	rjmp	.+184    	; 0x64b6 <disk_initialize+0x136>
    63fe:	08 ee       	ldi	r16, 0xE8	; 232
    6400:	13 e0       	ldi	r17, 0x03	; 3
				for (tmr = 1000; tmr; tmr--) {			/* Wait for leaving idle state (ACMD41 with HCS bit) */
					if (send_cmd(ACMD41, 1UL << 30) == 0) break;
    6402:	40 e0       	ldi	r20, 0x00	; 0
    6404:	50 e0       	ldi	r21, 0x00	; 0
    6406:	60 e0       	ldi	r22, 0x00	; 0
    6408:	70 e4       	ldi	r23, 0x40	; 64
    640a:	89 ea       	ldi	r24, 0xA9	; 169
    640c:	37 df       	rcall	.-402    	; 0x627c <send_cmd>
    640e:	88 23       	and	r24, r24
    6410:	41 f0       	breq	.+16     	; 0x6422 <disk_initialize+0xa2>
					dly_us(1000);
    6412:	88 ee       	ldi	r24, 0xE8	; 232
    6414:	93 e0       	ldi	r25, 0x03	; 3
    6416:	fa dd       	rcall	.-1036   	; 0x600c <dly_us>
	ty = 0;
	if (send_cmd(CMD0, 0) == 1) {			/* Enter Idle state */
		if (send_cmd(CMD8, 0x1AA) == 1) {	/* SDv2? */
			rcvr_mmc(buf, 4);							/* Get trailing return value of R7 resp */
			if (buf[2] == 0x01 && buf[3] == 0xAA) {		/* The card can work at vdd range of 2.7-3.6V */
				for (tmr = 1000; tmr; tmr--) {			/* Wait for leaving idle state (ACMD41 with HCS bit) */
    6418:	01 50       	subi	r16, 0x01	; 1
    641a:	11 09       	sbc	r17, r1
    641c:	91 f7       	brne	.-28     	; 0x6402 <disk_initialize+0x82>
		for (int i = 0; i < 8; i++)
		{
			CK_H(); CK_L();
		}
	}
	ty = 0;
    641e:	f1 2c       	mov	r15, r1
    6420:	56 c0       	rjmp	.+172    	; 0x64ce <disk_initialize+0x14e>
			if (buf[2] == 0x01 && buf[3] == 0xAA) {		/* The card can work at vdd range of 2.7-3.6V */
				for (tmr = 1000; tmr; tmr--) {			/* Wait for leaving idle state (ACMD41 with HCS bit) */
					if (send_cmd(ACMD41, 1UL << 30) == 0) break;
					dly_us(1000);
				}
				if (tmr && send_cmd(CMD58, 0) == 0) {	/* Check CCS bit in the OCR */
    6422:	01 2b       	or	r16, r17
    6424:	09 f4       	brne	.+2      	; 0x6428 <disk_initialize+0xa8>
    6426:	49 c0       	rjmp	.+146    	; 0x64ba <disk_initialize+0x13a>
    6428:	40 e0       	ldi	r20, 0x00	; 0
    642a:	50 e0       	ldi	r21, 0x00	; 0
    642c:	ba 01       	movw	r22, r20
    642e:	8a e3       	ldi	r24, 0x3A	; 58
    6430:	25 df       	rcall	.-438    	; 0x627c <send_cmd>
    6432:	81 11       	cpse	r24, r1
    6434:	44 c0       	rjmp	.+136    	; 0x64be <disk_initialize+0x13e>
					rcvr_mmc(buf, 4);
    6436:	64 e0       	ldi	r22, 0x04	; 4
    6438:	70 e0       	ldi	r23, 0x00	; 0
    643a:	ce 01       	movw	r24, r28
    643c:	01 96       	adiw	r24, 0x01	; 1
    643e:	2d de       	rcall	.-934    	; 0x609a <rcvr_mmc>
					ty = (buf[0] & 0x40) ? CT_SD2 | CT_BLOCK : CT_SD2;	/* SDv2 */
    6440:	89 81       	ldd	r24, Y+1	; 0x01
    6442:	86 fd       	sbrc	r24, 6
    6444:	3e c0       	rjmp	.+124    	; 0x64c2 <disk_initialize+0x142>
    6446:	68 94       	set
    6448:	ff 24       	eor	r15, r15
    644a:	f2 f8       	bld	r15, 2
    644c:	40 c0       	rjmp	.+128    	; 0x64ce <disk_initialize+0x14e>
				}
			}
		} else {							/* SDv1 or MMCv3 */
			if (send_cmd(ACMD41, 0) <= 1) 	{
    644e:	40 e0       	ldi	r20, 0x00	; 0
    6450:	50 e0       	ldi	r21, 0x00	; 0
    6452:	ba 01       	movw	r22, r20
    6454:	89 ea       	ldi	r24, 0xA9	; 169
    6456:	12 df       	rcall	.-476    	; 0x627c <send_cmd>
    6458:	82 30       	cpi	r24, 0x02	; 2
    645a:	28 f0       	brcs	.+10     	; 0x6466 <disk_initialize+0xe6>
				ty = CT_SD1; cmd = ACMD41;	/* SDv1 */
			} else {
				ty = CT_MMC; cmd = CMD1;	/* MMCv3 */
    645c:	ee 24       	eor	r14, r14
    645e:	e3 94       	inc	r14
    6460:	ff 24       	eor	r15, r15
    6462:	f3 94       	inc	r15
    6464:	07 c0       	rjmp	.+14     	; 0x6474 <disk_initialize+0xf4>
					ty = (buf[0] & 0x40) ? CT_SD2 | CT_BLOCK : CT_SD2;	/* SDv2 */
				}
			}
		} else {							/* SDv1 or MMCv3 */
			if (send_cmd(ACMD41, 0) <= 1) 	{
				ty = CT_SD1; cmd = ACMD41;	/* SDv1 */
    6466:	0f 2e       	mov	r0, r31
    6468:	f9 ea       	ldi	r31, 0xA9	; 169
    646a:	ef 2e       	mov	r14, r31
    646c:	f0 2d       	mov	r31, r0
    646e:	68 94       	set
    6470:	ff 24       	eor	r15, r15
    6472:	f1 f8       	bld	r15, 1
			} else {
				ty = CT_MMC; cmd = CMD1;	/* MMCv3 */
			}
			for (tmr = 1000; tmr; tmr--) {			/* Wait for leaving idle state */
    6474:	08 ee       	ldi	r16, 0xE8	; 232
    6476:	13 e0       	ldi	r17, 0x03	; 3
				if (send_cmd(cmd, 0) == 0) break;
    6478:	40 e0       	ldi	r20, 0x00	; 0
    647a:	50 e0       	ldi	r21, 0x00	; 0
    647c:	ba 01       	movw	r22, r20
    647e:	8e 2d       	mov	r24, r14
    6480:	fd de       	rcall	.-518    	; 0x627c <send_cmd>
    6482:	88 23       	and	r24, r24
    6484:	41 f0       	breq	.+16     	; 0x6496 <disk_initialize+0x116>
				dly_us(1000);
    6486:	88 ee       	ldi	r24, 0xE8	; 232
    6488:	93 e0       	ldi	r25, 0x03	; 3
    648a:	c0 dd       	rcall	.-1152   	; 0x600c <dly_us>
			if (send_cmd(ACMD41, 0) <= 1) 	{
				ty = CT_SD1; cmd = ACMD41;	/* SDv1 */
			} else {
				ty = CT_MMC; cmd = CMD1;	/* MMCv3 */
			}
			for (tmr = 1000; tmr; tmr--) {			/* Wait for leaving idle state */
    648c:	01 50       	subi	r16, 0x01	; 1
    648e:	11 09       	sbc	r17, r1
    6490:	99 f7       	brne	.-26     	; 0x6478 <disk_initialize+0xf8>
				if (send_cmd(cmd, 0) == 0) break;
				dly_us(1000);
			}
			if (!tmr || send_cmd(CMD16, 512) != 0)	/* Set R/W block length to 512 */
				ty = 0;
    6492:	f1 2c       	mov	r15, r1
    6494:	1c c0       	rjmp	.+56     	; 0x64ce <disk_initialize+0x14e>
			}
			for (tmr = 1000; tmr; tmr--) {			/* Wait for leaving idle state */
				if (send_cmd(cmd, 0) == 0) break;
				dly_us(1000);
			}
			if (!tmr || send_cmd(CMD16, 512) != 0)	/* Set R/W block length to 512 */
    6496:	01 2b       	or	r16, r17
    6498:	c9 f0       	breq	.+50     	; 0x64cc <disk_initialize+0x14c>
    649a:	40 e0       	ldi	r20, 0x00	; 0
    649c:	52 e0       	ldi	r21, 0x02	; 2
    649e:	60 e0       	ldi	r22, 0x00	; 0
    64a0:	70 e0       	ldi	r23, 0x00	; 0
    64a2:	80 e1       	ldi	r24, 0x10	; 16
    64a4:	eb de       	rcall	.-554    	; 0x627c <send_cmd>
    64a6:	88 23       	and	r24, r24
    64a8:	91 f0       	breq	.+36     	; 0x64ce <disk_initialize+0x14e>
				ty = 0;
    64aa:	f1 2c       	mov	r15, r1
    64ac:	10 c0       	rjmp	.+32     	; 0x64ce <disk_initialize+0x14e>
		for (int i = 0; i < 8; i++)
		{
			CK_H(); CK_L();
		}
	}
	ty = 0;
    64ae:	f1 2c       	mov	r15, r1
    64b0:	0e c0       	rjmp	.+28     	; 0x64ce <disk_initialize+0x14e>
    64b2:	f1 2c       	mov	r15, r1
    64b4:	0c c0       	rjmp	.+24     	; 0x64ce <disk_initialize+0x14e>
    64b6:	f1 2c       	mov	r15, r1
    64b8:	0a c0       	rjmp	.+20     	; 0x64ce <disk_initialize+0x14e>
    64ba:	f1 2c       	mov	r15, r1
    64bc:	08 c0       	rjmp	.+16     	; 0x64ce <disk_initialize+0x14e>
    64be:	f1 2c       	mov	r15, r1
    64c0:	06 c0       	rjmp	.+12     	; 0x64ce <disk_initialize+0x14e>
					if (send_cmd(ACMD41, 1UL << 30) == 0) break;
					dly_us(1000);
				}
				if (tmr && send_cmd(CMD58, 0) == 0) {	/* Check CCS bit in the OCR */
					rcvr_mmc(buf, 4);
					ty = (buf[0] & 0x40) ? CT_SD2 | CT_BLOCK : CT_SD2;	/* SDv2 */
    64c2:	0f 2e       	mov	r0, r31
    64c4:	fc e0       	ldi	r31, 0x0C	; 12
    64c6:	ff 2e       	mov	r15, r31
    64c8:	f0 2d       	mov	r31, r0
    64ca:	01 c0       	rjmp	.+2      	; 0x64ce <disk_initialize+0x14e>
			for (tmr = 1000; tmr; tmr--) {			/* Wait for leaving idle state */
				if (send_cmd(cmd, 0) == 0) break;
				dly_us(1000);
			}
			if (!tmr || send_cmd(CMD16, 512) != 0)	/* Set R/W block length to 512 */
				ty = 0;
    64cc:	f1 2c       	mov	r15, r1
		}
	}
	CardType = ty;
    64ce:	f0 92 7d 05 	sts	0x057D, r15
	s = ty ? 0 : STA_NOINIT;
    64d2:	11 e0       	ldi	r17, 0x01	; 1
    64d4:	f1 10       	cpse	r15, r1
    64d6:	10 e0       	ldi	r17, 0x00	; 0
	Stat = s;
    64d8:	10 93 00 02 	sts	0x0200, r17

	deselect();
    64dc:	33 de       	rcall	.-922    	; 0x6144 <deselect>

	return s;
    64de:	81 2f       	mov	r24, r17
    64e0:	01 c0       	rjmp	.+2      	; 0x64e4 <disk_initialize+0x164>
	BYTE n, ty, cmd, buf[4];
	UINT tmr;
	DSTATUS s;


	if (drv) return RES_NOTRDY;
    64e2:	83 e0       	ldi	r24, 0x03	; 3
	Stat = s;

	deselect();

	return s;
}
    64e4:	0f 90       	pop	r0
    64e6:	0f 90       	pop	r0
    64e8:	0f 90       	pop	r0
    64ea:	0f 90       	pop	r0
    64ec:	df 91       	pop	r29
    64ee:	cf 91       	pop	r28
    64f0:	1f 91       	pop	r17
    64f2:	0f 91       	pop	r16
    64f4:	ff 90       	pop	r15
    64f6:	ef 90       	pop	r14
    64f8:	08 95       	ret

000064fa <disk_read>:
	BYTE drv,			/* Physical drive nmuber (0) */
	BYTE *buff,			/* Pointer to the data buffer to store read data */
	DWORD sector,		/* Start sector number (LBA) */
	UINT count			/* Sector count (1..128) */
)
{
    64fa:	ff 92       	push	r15
    64fc:	0f 93       	push	r16
    64fe:	1f 93       	push	r17
    6500:	cf 93       	push	r28
    6502:	df 93       	push	r29
    6504:	eb 01       	movw	r28, r22

DSTATUS disk_status (
	BYTE drv			/* Drive number (always 0) */
)
{
	if (drv) return STA_NOINIT;
    6506:	81 11       	cpse	r24, r1
    6508:	3b c0       	rjmp	.+118    	; 0x6580 <disk_read+0x86>
)
{
	BYTE cmd;


	if (disk_status(drv) & STA_NOINIT) return RES_NOTRDY;
    650a:	80 91 00 02 	lds	r24, 0x0200
    650e:	80 fd       	sbrc	r24, 0
    6510:	39 c0       	rjmp	.+114    	; 0x6584 <disk_read+0x8a>
	if (!(CardType & CT_BLOCK)) sector *= 512;	/* Convert LBA to byte address if needed */
    6512:	80 91 7d 05 	lds	r24, 0x057D
    6516:	83 fd       	sbrc	r24, 3
    6518:	09 c0       	rjmp	.+18     	; 0x652c <disk_read+0x32>
    651a:	01 2e       	mov	r0, r17
    651c:	19 e0       	ldi	r17, 0x09	; 9
    651e:	22 0f       	add	r18, r18
    6520:	33 1f       	adc	r19, r19
    6522:	44 1f       	adc	r20, r20
    6524:	55 1f       	adc	r21, r21
    6526:	1a 95       	dec	r17
    6528:	d1 f7       	brne	.-12     	; 0x651e <disk_read+0x24>
    652a:	10 2d       	mov	r17, r0

	cmd = count > 1 ? CMD18 : CMD17;			/*  READ_MULTIPLE_BLOCK : READ_SINGLE_BLOCK */
    652c:	02 30       	cpi	r16, 0x02	; 2
    652e:	11 05       	cpc	r17, r1
    6530:	28 f4       	brcc	.+10     	; 0x653c <disk_read+0x42>
    6532:	0f 2e       	mov	r0, r31
    6534:	f1 e1       	ldi	r31, 0x11	; 17
    6536:	ff 2e       	mov	r15, r31
    6538:	f0 2d       	mov	r31, r0
    653a:	04 c0       	rjmp	.+8      	; 0x6544 <disk_read+0x4a>
    653c:	0f 2e       	mov	r0, r31
    653e:	f2 e1       	ldi	r31, 0x12	; 18
    6540:	ff 2e       	mov	r15, r31
    6542:	f0 2d       	mov	r31, r0
	if (send_cmd(cmd, sector) == 0) {
    6544:	ba 01       	movw	r22, r20
    6546:	a9 01       	movw	r20, r18
    6548:	8f 2d       	mov	r24, r15
    654a:	98 de       	rcall	.-720    	; 0x627c <send_cmd>
    654c:	81 11       	cpse	r24, r1
    654e:	12 c0       	rjmp	.+36     	; 0x6574 <disk_read+0x7a>
		do {
			if (!rcvr_datablock(buff, 512)) break;
    6550:	60 e0       	ldi	r22, 0x00	; 0
    6552:	72 e0       	ldi	r23, 0x02	; 2
    6554:	ce 01       	movw	r24, r28
    6556:	21 de       	rcall	.-958    	; 0x619a <rcvr_datablock>
    6558:	89 2b       	or	r24, r25
    655a:	21 f0       	breq	.+8      	; 0x6564 <disk_read+0x6a>
			buff += 512;
    655c:	de 5f       	subi	r29, 0xFE	; 254
		} while (--count);
    655e:	01 50       	subi	r16, 0x01	; 1
    6560:	11 09       	sbc	r17, r1
    6562:	b1 f7       	brne	.-20     	; 0x6550 <disk_read+0x56>
		if (cmd == CMD18) send_cmd(CMD12, 0);	/* STOP_TRANSMISSION */
    6564:	82 e1       	ldi	r24, 0x12	; 18
    6566:	f8 12       	cpse	r15, r24
    6568:	05 c0       	rjmp	.+10     	; 0x6574 <disk_read+0x7a>
    656a:	40 e0       	ldi	r20, 0x00	; 0
    656c:	50 e0       	ldi	r21, 0x00	; 0
    656e:	ba 01       	movw	r22, r20
    6570:	8c e0       	ldi	r24, 0x0C	; 12
    6572:	84 de       	rcall	.-760    	; 0x627c <send_cmd>
	}
	deselect();
    6574:	e7 dd       	rcall	.-1074   	; 0x6144 <deselect>

	return count ? RES_ERROR : RES_OK;
    6576:	81 e0       	ldi	r24, 0x01	; 1
    6578:	01 2b       	or	r16, r17
    657a:	29 f4       	brne	.+10     	; 0x6586 <disk_read+0x8c>
    657c:	80 e0       	ldi	r24, 0x00	; 0
    657e:	03 c0       	rjmp	.+6      	; 0x6586 <disk_read+0x8c>
)
{
	BYTE cmd;


	if (disk_status(drv) & STA_NOINIT) return RES_NOTRDY;
    6580:	83 e0       	ldi	r24, 0x03	; 3
    6582:	01 c0       	rjmp	.+2      	; 0x6586 <disk_read+0x8c>
    6584:	83 e0       	ldi	r24, 0x03	; 3
		if (cmd == CMD18) send_cmd(CMD12, 0);	/* STOP_TRANSMISSION */
	}
	deselect();

	return count ? RES_ERROR : RES_OK;
}
    6586:	df 91       	pop	r29
    6588:	cf 91       	pop	r28
    658a:	1f 91       	pop	r17
    658c:	0f 91       	pop	r16
    658e:	ff 90       	pop	r15
    6590:	08 95       	ret

00006592 <disk_write>:
	BYTE drv,			/* Physical drive nmuber (0) */
	const BYTE *buff,	/* Pointer to the data to be written */
	DWORD sector,		/* Start sector number (LBA) */
	UINT count			/* Sector count (1..128) */
)
{
    6592:	cf 92       	push	r12
    6594:	df 92       	push	r13
    6596:	ef 92       	push	r14
    6598:	ff 92       	push	r15
    659a:	0f 93       	push	r16
    659c:	1f 93       	push	r17
    659e:	cf 93       	push	r28
    65a0:	df 93       	push	r29
    65a2:	eb 01       	movw	r28, r22
    65a4:	69 01       	movw	r12, r18
    65a6:	7a 01       	movw	r14, r20

DSTATUS disk_status (
	BYTE drv			/* Drive number (always 0) */
)
{
	if (drv) return STA_NOINIT;
    65a8:	81 11       	cpse	r24, r1
    65aa:	49 c0       	rjmp	.+146    	; 0x663e <disk_write+0xac>
	const BYTE *buff,	/* Pointer to the data to be written */
	DWORD sector,		/* Start sector number (LBA) */
	UINT count			/* Sector count (1..128) */
)
{
	if (disk_status(drv) & STA_NOINIT) return RES_NOTRDY;
    65ac:	80 91 00 02 	lds	r24, 0x0200
    65b0:	80 fd       	sbrc	r24, 0
    65b2:	47 c0       	rjmp	.+142    	; 0x6642 <disk_write+0xb0>
	if (!(CardType & CT_BLOCK)) sector *= 512;	/* Convert LBA to byte address if needed */
    65b4:	80 91 7d 05 	lds	r24, 0x057D
    65b8:	83 fd       	sbrc	r24, 3
    65ba:	09 c0       	rjmp	.+18     	; 0x65ce <disk_write+0x3c>
    65bc:	0b 2e       	mov	r0, r27
    65be:	b9 e0       	ldi	r27, 0x09	; 9
    65c0:	cc 0c       	add	r12, r12
    65c2:	dd 1c       	adc	r13, r13
    65c4:	ee 1c       	adc	r14, r14
    65c6:	ff 1c       	adc	r15, r15
    65c8:	ba 95       	dec	r27
    65ca:	d1 f7       	brne	.-12     	; 0x65c0 <disk_write+0x2e>
    65cc:	b0 2d       	mov	r27, r0

	if (count == 1) {	/* Single block write */
    65ce:	01 30       	cpi	r16, 0x01	; 1
    65d0:	11 05       	cpc	r17, r1
    65d2:	89 f4       	brne	.+34     	; 0x65f6 <disk_write+0x64>
		if ((send_cmd(CMD24, sector) == 0)	/* WRITE_BLOCK */
    65d4:	b7 01       	movw	r22, r14
    65d6:	a6 01       	movw	r20, r12
    65d8:	88 e1       	ldi	r24, 0x18	; 24
    65da:	50 de       	rcall	.-864    	; 0x627c <send_cmd>
    65dc:	81 11       	cpse	r24, r1
    65de:	29 c0       	rjmp	.+82     	; 0x6632 <disk_write+0xa0>
			&& xmit_datablock(buff, 0xFE))
    65e0:	6e ef       	ldi	r22, 0xFE	; 254
    65e2:	ce 01       	movw	r24, r28
    65e4:	13 de       	rcall	.-986    	; 0x620c <xmit_datablock>
    65e6:	31 e0       	ldi	r19, 0x01	; 1
    65e8:	20 e0       	ldi	r18, 0x00	; 0
    65ea:	89 2b       	or	r24, r25
    65ec:	09 f0       	breq	.+2      	; 0x65f0 <disk_write+0x5e>
    65ee:	30 e0       	ldi	r19, 0x00	; 0
    65f0:	03 2f       	mov	r16, r19
    65f2:	12 2f       	mov	r17, r18
    65f4:	1e c0       	rjmp	.+60     	; 0x6632 <disk_write+0xa0>
			count = 0;
	}
	else {				/* Multiple block write */
		if (CardType & CT_SDC) send_cmd(ACMD23, count);
    65f6:	86 70       	andi	r24, 0x06	; 6
    65f8:	29 f0       	breq	.+10     	; 0x6604 <disk_write+0x72>
    65fa:	a8 01       	movw	r20, r16
    65fc:	60 e0       	ldi	r22, 0x00	; 0
    65fe:	70 e0       	ldi	r23, 0x00	; 0
    6600:	87 e9       	ldi	r24, 0x97	; 151
    6602:	3c de       	rcall	.-904    	; 0x627c <send_cmd>
		if (send_cmd(CMD25, sector) == 0) {	/* WRITE_MULTIPLE_BLOCK */
    6604:	b7 01       	movw	r22, r14
    6606:	a6 01       	movw	r20, r12
    6608:	89 e1       	ldi	r24, 0x19	; 25
    660a:	38 de       	rcall	.-912    	; 0x627c <send_cmd>
    660c:	81 11       	cpse	r24, r1
    660e:	11 c0       	rjmp	.+34     	; 0x6632 <disk_write+0xa0>
			do {
				if (!xmit_datablock(buff, 0xFC)) break;
    6610:	6c ef       	ldi	r22, 0xFC	; 252
    6612:	ce 01       	movw	r24, r28
    6614:	fb dd       	rcall	.-1034   	; 0x620c <xmit_datablock>
    6616:	89 2b       	or	r24, r25
    6618:	21 f0       	breq	.+8      	; 0x6622 <disk_write+0x90>
				buff += 512;
    661a:	de 5f       	subi	r29, 0xFE	; 254
			} while (--count);
    661c:	01 50       	subi	r16, 0x01	; 1
    661e:	11 09       	sbc	r17, r1
    6620:	b9 f7       	brne	.-18     	; 0x6610 <disk_write+0x7e>
			if (!xmit_datablock(0, 0xFD))	/* STOP_TRAN token */
    6622:	6d ef       	ldi	r22, 0xFD	; 253
    6624:	80 e0       	ldi	r24, 0x00	; 0
    6626:	90 e0       	ldi	r25, 0x00	; 0
    6628:	f1 dd       	rcall	.-1054   	; 0x620c <xmit_datablock>
    662a:	89 2b       	or	r24, r25
    662c:	11 f4       	brne	.+4      	; 0x6632 <disk_write+0xa0>
				count = 1;
    662e:	01 e0       	ldi	r16, 0x01	; 1
    6630:	10 e0       	ldi	r17, 0x00	; 0
		}
	}
	deselect();
    6632:	88 dd       	rcall	.-1264   	; 0x6144 <deselect>

	return count ? RES_ERROR : RES_OK;
    6634:	81 e0       	ldi	r24, 0x01	; 1
    6636:	01 2b       	or	r16, r17
    6638:	29 f4       	brne	.+10     	; 0x6644 <disk_write+0xb2>
    663a:	80 e0       	ldi	r24, 0x00	; 0
    663c:	03 c0       	rjmp	.+6      	; 0x6644 <disk_write+0xb2>
	const BYTE *buff,	/* Pointer to the data to be written */
	DWORD sector,		/* Start sector number (LBA) */
	UINT count			/* Sector count (1..128) */
)
{
	if (disk_status(drv) & STA_NOINIT) return RES_NOTRDY;
    663e:	83 e0       	ldi	r24, 0x03	; 3
    6640:	01 c0       	rjmp	.+2      	; 0x6644 <disk_write+0xb2>
    6642:	83 e0       	ldi	r24, 0x03	; 3
		}
	}
	deselect();

	return count ? RES_ERROR : RES_OK;
}
    6644:	df 91       	pop	r29
    6646:	cf 91       	pop	r28
    6648:	1f 91       	pop	r17
    664a:	0f 91       	pop	r16
    664c:	ff 90       	pop	r15
    664e:	ef 90       	pop	r14
    6650:	df 90       	pop	r13
    6652:	cf 90       	pop	r12
    6654:	08 95       	ret

00006656 <disk_ioctl>:
DRESULT disk_ioctl (
	BYTE drv,		/* Physical drive nmuber (0) */
	BYTE ctrl,		/* Control code */
	void *buff		/* Buffer to send/receive control data */
)
{
    6656:	0f 93       	push	r16
    6658:	1f 93       	push	r17
    665a:	cf 93       	push	r28
    665c:	df 93       	push	r29
    665e:	cd b7       	in	r28, 0x3d	; 61
    6660:	de b7       	in	r29, 0x3e	; 62
    6662:	60 97       	sbiw	r28, 0x10	; 16
    6664:	0f b6       	in	r0, 0x3f	; 63
    6666:	f8 94       	cli
    6668:	de bf       	out	0x3e, r29	; 62
    666a:	0f be       	out	0x3f, r0	; 63
    666c:	cd bf       	out	0x3d, r28	; 61

DSTATUS disk_status (
	BYTE drv			/* Drive number (always 0) */
)
{
	if (drv) return STA_NOINIT;
    666e:	81 11       	cpse	r24, r1
    6670:	98 c0       	rjmp	.+304    	; 0x67a2 <disk_ioctl+0x14c>
	DRESULT res;
	BYTE n, csd[16];
	DWORD cs;


	if (disk_status(drv) & STA_NOINIT) return RES_NOTRDY;	/* Check if card is in the socket */
    6672:	80 91 00 02 	lds	r24, 0x0200
    6676:	80 fd       	sbrc	r24, 0
    6678:	96 c0       	rjmp	.+300    	; 0x67a6 <disk_ioctl+0x150>
    667a:	8a 01       	movw	r16, r20

	res = RES_ERROR;
	switch (ctrl) {
    667c:	61 30       	cpi	r22, 0x01	; 1
    667e:	61 f0       	breq	.+24     	; 0x6698 <disk_ioctl+0x42>
    6680:	20 f0       	brcs	.+8      	; 0x668a <disk_ioctl+0x34>
    6682:	63 30       	cpi	r22, 0x03	; 3
    6684:	09 f4       	brne	.+2      	; 0x6688 <disk_ioctl+0x32>
    6686:	7a c0       	rjmp	.+244    	; 0x677c <disk_ioctl+0x126>
    6688:	84 c0       	rjmp	.+264    	; 0x6792 <disk_ioctl+0x13c>
		case CTRL_SYNC :		/* Make sure that no pending write process */
			if (select()) res = RES_OK;
    668a:	6b dd       	rcall	.-1322   	; 0x6162 <select>
    668c:	11 e0       	ldi	r17, 0x01	; 1
    668e:	89 2b       	or	r24, r25
    6690:	09 f4       	brne	.+2      	; 0x6694 <disk_ioctl+0x3e>
    6692:	84 c0       	rjmp	.+264    	; 0x679c <disk_ioctl+0x146>
    6694:	10 e0       	ldi	r17, 0x00	; 0
    6696:	82 c0       	rjmp	.+260    	; 0x679c <disk_ioctl+0x146>
			break;

		case GET_SECTOR_COUNT :	/* Get number of sectors on the disk (DWORD) */
			if ((send_cmd(CMD9, 0) == 0) && rcvr_datablock(csd, 16)) {
    6698:	40 e0       	ldi	r20, 0x00	; 0
    669a:	50 e0       	ldi	r21, 0x00	; 0
    669c:	ba 01       	movw	r22, r20
    669e:	89 e0       	ldi	r24, 0x09	; 9
    66a0:	ed dd       	rcall	.-1062   	; 0x627c <send_cmd>
    66a2:	81 11       	cpse	r24, r1
    66a4:	78 c0       	rjmp	.+240    	; 0x6796 <disk_ioctl+0x140>
    66a6:	60 e1       	ldi	r22, 0x10	; 16
    66a8:	70 e0       	ldi	r23, 0x00	; 0
    66aa:	ce 01       	movw	r24, r28
    66ac:	01 96       	adiw	r24, 0x01	; 1
    66ae:	75 dd       	rcall	.-1302   	; 0x619a <rcvr_datablock>
    66b0:	89 2b       	or	r24, r25
    66b2:	09 f4       	brne	.+2      	; 0x66b6 <disk_ioctl+0x60>
    66b4:	72 c0       	rjmp	.+228    	; 0x679a <disk_ioctl+0x144>
				if ((csd[0] >> 6) == 1) {	/* SDC ver 2.00 */
    66b6:	89 81       	ldd	r24, Y+1	; 0x01
    66b8:	82 95       	swap	r24
    66ba:	86 95       	lsr	r24
    66bc:	86 95       	lsr	r24
    66be:	83 70       	andi	r24, 0x03	; 3
    66c0:	81 30       	cpi	r24, 0x01	; 1
    66c2:	31 f5       	brne	.+76     	; 0x6710 <disk_ioctl+0xba>
					cs = csd[9] + ((WORD)csd[8] << 8) + ((DWORD)(csd[7] & 63) << 16) + 1;
    66c4:	88 85       	ldd	r24, Y+8	; 0x08
    66c6:	8f 73       	andi	r24, 0x3F	; 63
    66c8:	90 e0       	ldi	r25, 0x00	; 0
    66ca:	a0 e0       	ldi	r26, 0x00	; 0
    66cc:	b0 e0       	ldi	r27, 0x00	; 0
    66ce:	dc 01       	movw	r26, r24
    66d0:	99 27       	eor	r25, r25
    66d2:	88 27       	eor	r24, r24
    66d4:	01 96       	adiw	r24, 0x01	; 1
    66d6:	a1 1d       	adc	r26, r1
    66d8:	b1 1d       	adc	r27, r1
    66da:	29 85       	ldd	r18, Y+9	; 0x09
    66dc:	30 e0       	ldi	r19, 0x00	; 0
    66de:	32 2f       	mov	r19, r18
    66e0:	22 27       	eor	r18, r18
    66e2:	4a 85       	ldd	r20, Y+10	; 0x0a
    66e4:	24 0f       	add	r18, r20
    66e6:	31 1d       	adc	r19, r1
    66e8:	82 0f       	add	r24, r18
    66ea:	93 1f       	adc	r25, r19
    66ec:	a1 1d       	adc	r26, r1
    66ee:	b1 1d       	adc	r27, r1
					*(DWORD*)buff = cs << 10;
    66f0:	07 2e       	mov	r0, r23
    66f2:	7a e0       	ldi	r23, 0x0A	; 10
    66f4:	88 0f       	add	r24, r24
    66f6:	99 1f       	adc	r25, r25
    66f8:	aa 1f       	adc	r26, r26
    66fa:	bb 1f       	adc	r27, r27
    66fc:	7a 95       	dec	r23
    66fe:	d1 f7       	brne	.-12     	; 0x66f4 <disk_ioctl+0x9e>
    6700:	70 2d       	mov	r23, r0
    6702:	f8 01       	movw	r30, r16
    6704:	80 83       	st	Z, r24
    6706:	91 83       	std	Z+1, r25	; 0x01
    6708:	a2 83       	std	Z+2, r26	; 0x02
    670a:	b3 83       	std	Z+3, r27	; 0x03
				} else {					/* SDC ver 1.XX or MMC */
					n = (csd[5] & 15) + ((csd[10] & 128) >> 7) + ((csd[9] & 3) << 1) + 2;
					cs = (csd[8] >> 6) + ((WORD)csd[7] << 2) + ((WORD)(csd[6] & 3) << 10) + 1;
					*(DWORD*)buff = cs << (n - 9);
				}
				res = RES_OK;
    670c:	10 e0       	ldi	r17, 0x00	; 0
    670e:	46 c0       	rjmp	.+140    	; 0x679c <disk_ioctl+0x146>
				if ((csd[0] >> 6) == 1) {	/* SDC ver 2.00 */
					cs = csd[9] + ((WORD)csd[8] << 8) + ((DWORD)(csd[7] & 63) << 16) + 1;
					*(DWORD*)buff = cs << 10;
				} else {					/* SDC ver 1.XX or MMC */
					n = (csd[5] & 15) + ((csd[10] & 128) >> 7) + ((csd[9] & 3) << 1) + 2;
					cs = (csd[8] >> 6) + ((WORD)csd[7] << 2) + ((WORD)(csd[6] & 3) << 10) + 1;
    6710:	89 85       	ldd	r24, Y+9	; 0x09
    6712:	82 95       	swap	r24
    6714:	86 95       	lsr	r24
    6716:	86 95       	lsr	r24
    6718:	83 70       	andi	r24, 0x03	; 3
    671a:	28 85       	ldd	r18, Y+8	; 0x08
    671c:	90 e0       	ldi	r25, 0x00	; 0
    671e:	f4 e0       	ldi	r31, 0x04	; 4
    6720:	2f 9f       	mul	r18, r31
    6722:	80 0d       	add	r24, r0
    6724:	91 1d       	adc	r25, r1
    6726:	11 24       	eor	r1, r1
    6728:	9c 01       	movw	r18, r24
    672a:	2f 5f       	subi	r18, 0xFF	; 255
    672c:	3f 4f       	sbci	r19, 0xFF	; 255
    672e:	9f 81       	ldd	r25, Y+7	; 0x07
    6730:	93 70       	andi	r25, 0x03	; 3
    6732:	89 2f       	mov	r24, r25
    6734:	90 e0       	ldi	r25, 0x00	; 0
    6736:	98 2f       	mov	r25, r24
    6738:	88 27       	eor	r24, r24
    673a:	99 0f       	add	r25, r25
    673c:	99 0f       	add	r25, r25
    673e:	82 0f       	add	r24, r18
    6740:	93 1f       	adc	r25, r19
    6742:	a0 e0       	ldi	r26, 0x00	; 0
    6744:	b0 e0       	ldi	r27, 0x00	; 0
			if ((send_cmd(CMD9, 0) == 0) && rcvr_datablock(csd, 16)) {
				if ((csd[0] >> 6) == 1) {	/* SDC ver 2.00 */
					cs = csd[9] + ((WORD)csd[8] << 8) + ((DWORD)(csd[7] & 63) << 16) + 1;
					*(DWORD*)buff = cs << 10;
				} else {					/* SDC ver 1.XX or MMC */
					n = (csd[5] & 15) + ((csd[10] & 128) >> 7) + ((csd[9] & 3) << 1) + 2;
    6746:	2e 81       	ldd	r18, Y+6	; 0x06
    6748:	32 2f       	mov	r19, r18
    674a:	3f 70       	andi	r19, 0x0F	; 15
    674c:	2b 85       	ldd	r18, Y+11	; 0x0b
    674e:	22 1f       	adc	r18, r18
    6750:	22 27       	eor	r18, r18
    6752:	22 1f       	adc	r18, r18
    6754:	23 0f       	add	r18, r19
    6756:	3a 85       	ldd	r19, Y+10	; 0x0a
    6758:	33 70       	andi	r19, 0x03	; 3
    675a:	33 0f       	add	r19, r19
    675c:	23 0f       	add	r18, r19
					cs = (csd[8] >> 6) + ((WORD)csd[7] << 2) + ((WORD)(csd[6] & 3) << 10) + 1;
					*(DWORD*)buff = cs << (n - 9);
    675e:	27 50       	subi	r18, 0x07	; 7
    6760:	04 c0       	rjmp	.+8      	; 0x676a <disk_ioctl+0x114>
    6762:	88 0f       	add	r24, r24
    6764:	99 1f       	adc	r25, r25
    6766:	aa 1f       	adc	r26, r26
    6768:	bb 1f       	adc	r27, r27
    676a:	2a 95       	dec	r18
    676c:	d2 f7       	brpl	.-12     	; 0x6762 <disk_ioctl+0x10c>
    676e:	f8 01       	movw	r30, r16
    6770:	80 83       	st	Z, r24
    6772:	91 83       	std	Z+1, r25	; 0x01
    6774:	a2 83       	std	Z+2, r26	; 0x02
    6776:	b3 83       	std	Z+3, r27	; 0x03
				}
				res = RES_OK;
    6778:	10 e0       	ldi	r17, 0x00	; 0
    677a:	10 c0       	rjmp	.+32     	; 0x679c <disk_ioctl+0x146>
			}
			break;

		case GET_BLOCK_SIZE :	/* Get erase block size in unit of sector (DWORD) */
			*(DWORD*)buff = 128;
    677c:	80 e8       	ldi	r24, 0x80	; 128
    677e:	90 e0       	ldi	r25, 0x00	; 0
    6780:	a0 e0       	ldi	r26, 0x00	; 0
    6782:	b0 e0       	ldi	r27, 0x00	; 0
    6784:	fa 01       	movw	r30, r20
    6786:	80 83       	st	Z, r24
    6788:	91 83       	std	Z+1, r25	; 0x01
    678a:	a2 83       	std	Z+2, r26	; 0x02
    678c:	b3 83       	std	Z+3, r27	; 0x03
			res = RES_OK;
    678e:	10 e0       	ldi	r17, 0x00	; 0
			break;
    6790:	05 c0       	rjmp	.+10     	; 0x679c <disk_ioctl+0x146>

		default:
			res = RES_PARERR;
    6792:	14 e0       	ldi	r17, 0x04	; 4
    6794:	03 c0       	rjmp	.+6      	; 0x679c <disk_ioctl+0x146>
	DWORD cs;


	if (disk_status(drv) & STA_NOINIT) return RES_NOTRDY;	/* Check if card is in the socket */

	res = RES_ERROR;
    6796:	11 e0       	ldi	r17, 0x01	; 1
    6798:	01 c0       	rjmp	.+2      	; 0x679c <disk_ioctl+0x146>
    679a:	11 e0       	ldi	r17, 0x01	; 1

		default:
			res = RES_PARERR;
	}

	deselect();
    679c:	d3 dc       	rcall	.-1626   	; 0x6144 <deselect>

	return res;
    679e:	81 2f       	mov	r24, r17
    67a0:	03 c0       	rjmp	.+6      	; 0x67a8 <disk_ioctl+0x152>
	DRESULT res;
	BYTE n, csd[16];
	DWORD cs;


	if (disk_status(drv) & STA_NOINIT) return RES_NOTRDY;	/* Check if card is in the socket */
    67a2:	83 e0       	ldi	r24, 0x03	; 3
    67a4:	01 c0       	rjmp	.+2      	; 0x67a8 <disk_ioctl+0x152>
    67a6:	83 e0       	ldi	r24, 0x03	; 3
	}

	deselect();

	return res;
}
    67a8:	60 96       	adiw	r28, 0x10	; 16
    67aa:	0f b6       	in	r0, 0x3f	; 63
    67ac:	f8 94       	cli
    67ae:	de bf       	out	0x3e, r29	; 62
    67b0:	0f be       	out	0x3f, r0	; 63
    67b2:	cd bf       	out	0x3d, r28	; 61
    67b4:	df 91       	pop	r29
    67b6:	cf 91       	pop	r28
    67b8:	1f 91       	pop	r17
    67ba:	0f 91       	pop	r16
    67bc:	08 95       	ret

000067be <__subsf3>:
    67be:	50 58       	subi	r21, 0x80	; 128

000067c0 <__addsf3>:
    67c0:	bb 27       	eor	r27, r27
    67c2:	aa 27       	eor	r26, r26
    67c4:	0e d0       	rcall	.+28     	; 0x67e2 <__addsf3x>
    67c6:	75 c1       	rjmp	.+746    	; 0x6ab2 <__fp_round>
    67c8:	66 d1       	rcall	.+716    	; 0x6a96 <__fp_pscA>
    67ca:	30 f0       	brcs	.+12     	; 0x67d8 <__addsf3+0x18>
    67cc:	6b d1       	rcall	.+726    	; 0x6aa4 <__fp_pscB>
    67ce:	20 f0       	brcs	.+8      	; 0x67d8 <__addsf3+0x18>
    67d0:	31 f4       	brne	.+12     	; 0x67de <__addsf3+0x1e>
    67d2:	9f 3f       	cpi	r25, 0xFF	; 255
    67d4:	11 f4       	brne	.+4      	; 0x67da <__addsf3+0x1a>
    67d6:	1e f4       	brtc	.+6      	; 0x67de <__addsf3+0x1e>
    67d8:	5b c1       	rjmp	.+694    	; 0x6a90 <__fp_nan>
    67da:	0e f4       	brtc	.+2      	; 0x67de <__addsf3+0x1e>
    67dc:	e0 95       	com	r30
    67de:	e7 fb       	bst	r30, 7
    67e0:	51 c1       	rjmp	.+674    	; 0x6a84 <__fp_inf>

000067e2 <__addsf3x>:
    67e2:	e9 2f       	mov	r30, r25
    67e4:	77 d1       	rcall	.+750    	; 0x6ad4 <__fp_split3>
    67e6:	80 f3       	brcs	.-32     	; 0x67c8 <__addsf3+0x8>
    67e8:	ba 17       	cp	r27, r26
    67ea:	62 07       	cpc	r22, r18
    67ec:	73 07       	cpc	r23, r19
    67ee:	84 07       	cpc	r24, r20
    67f0:	95 07       	cpc	r25, r21
    67f2:	18 f0       	brcs	.+6      	; 0x67fa <__addsf3x+0x18>
    67f4:	71 f4       	brne	.+28     	; 0x6812 <__addsf3x+0x30>
    67f6:	9e f5       	brtc	.+102    	; 0x685e <__addsf3x+0x7c>
    67f8:	8f c1       	rjmp	.+798    	; 0x6b18 <__fp_zero>
    67fa:	0e f4       	brtc	.+2      	; 0x67fe <__addsf3x+0x1c>
    67fc:	e0 95       	com	r30
    67fe:	0b 2e       	mov	r0, r27
    6800:	ba 2f       	mov	r27, r26
    6802:	a0 2d       	mov	r26, r0
    6804:	0b 01       	movw	r0, r22
    6806:	b9 01       	movw	r22, r18
    6808:	90 01       	movw	r18, r0
    680a:	0c 01       	movw	r0, r24
    680c:	ca 01       	movw	r24, r20
    680e:	a0 01       	movw	r20, r0
    6810:	11 24       	eor	r1, r1
    6812:	ff 27       	eor	r31, r31
    6814:	59 1b       	sub	r21, r25
    6816:	99 f0       	breq	.+38     	; 0x683e <__addsf3x+0x5c>
    6818:	59 3f       	cpi	r21, 0xF9	; 249
    681a:	50 f4       	brcc	.+20     	; 0x6830 <__addsf3x+0x4e>
    681c:	50 3e       	cpi	r21, 0xE0	; 224
    681e:	68 f1       	brcs	.+90     	; 0x687a <__addsf3x+0x98>
    6820:	1a 16       	cp	r1, r26
    6822:	f0 40       	sbci	r31, 0x00	; 0
    6824:	a2 2f       	mov	r26, r18
    6826:	23 2f       	mov	r18, r19
    6828:	34 2f       	mov	r19, r20
    682a:	44 27       	eor	r20, r20
    682c:	58 5f       	subi	r21, 0xF8	; 248
    682e:	f3 cf       	rjmp	.-26     	; 0x6816 <__addsf3x+0x34>
    6830:	46 95       	lsr	r20
    6832:	37 95       	ror	r19
    6834:	27 95       	ror	r18
    6836:	a7 95       	ror	r26
    6838:	f0 40       	sbci	r31, 0x00	; 0
    683a:	53 95       	inc	r21
    683c:	c9 f7       	brne	.-14     	; 0x6830 <__addsf3x+0x4e>
    683e:	7e f4       	brtc	.+30     	; 0x685e <__addsf3x+0x7c>
    6840:	1f 16       	cp	r1, r31
    6842:	ba 0b       	sbc	r27, r26
    6844:	62 0b       	sbc	r22, r18
    6846:	73 0b       	sbc	r23, r19
    6848:	84 0b       	sbc	r24, r20
    684a:	ba f0       	brmi	.+46     	; 0x687a <__addsf3x+0x98>
    684c:	91 50       	subi	r25, 0x01	; 1
    684e:	a1 f0       	breq	.+40     	; 0x6878 <__addsf3x+0x96>
    6850:	ff 0f       	add	r31, r31
    6852:	bb 1f       	adc	r27, r27
    6854:	66 1f       	adc	r22, r22
    6856:	77 1f       	adc	r23, r23
    6858:	88 1f       	adc	r24, r24
    685a:	c2 f7       	brpl	.-16     	; 0x684c <__addsf3x+0x6a>
    685c:	0e c0       	rjmp	.+28     	; 0x687a <__addsf3x+0x98>
    685e:	ba 0f       	add	r27, r26
    6860:	62 1f       	adc	r22, r18
    6862:	73 1f       	adc	r23, r19
    6864:	84 1f       	adc	r24, r20
    6866:	48 f4       	brcc	.+18     	; 0x687a <__addsf3x+0x98>
    6868:	87 95       	ror	r24
    686a:	77 95       	ror	r23
    686c:	67 95       	ror	r22
    686e:	b7 95       	ror	r27
    6870:	f7 95       	ror	r31
    6872:	9e 3f       	cpi	r25, 0xFE	; 254
    6874:	08 f0       	brcs	.+2      	; 0x6878 <__addsf3x+0x96>
    6876:	b3 cf       	rjmp	.-154    	; 0x67de <__addsf3+0x1e>
    6878:	93 95       	inc	r25
    687a:	88 0f       	add	r24, r24
    687c:	08 f0       	brcs	.+2      	; 0x6880 <__addsf3x+0x9e>
    687e:	99 27       	eor	r25, r25
    6880:	ee 0f       	add	r30, r30
    6882:	97 95       	ror	r25
    6884:	87 95       	ror	r24
    6886:	08 95       	ret

00006888 <__cmpsf2>:
    6888:	d9 d0       	rcall	.+434    	; 0x6a3c <__fp_cmp>
    688a:	08 f4       	brcc	.+2      	; 0x688e <__cmpsf2+0x6>
    688c:	81 e0       	ldi	r24, 0x01	; 1
    688e:	08 95       	ret

00006890 <__divsf3>:
    6890:	0c d0       	rcall	.+24     	; 0x68aa <__divsf3x>
    6892:	0f c1       	rjmp	.+542    	; 0x6ab2 <__fp_round>
    6894:	07 d1       	rcall	.+526    	; 0x6aa4 <__fp_pscB>
    6896:	40 f0       	brcs	.+16     	; 0x68a8 <__divsf3+0x18>
    6898:	fe d0       	rcall	.+508    	; 0x6a96 <__fp_pscA>
    689a:	30 f0       	brcs	.+12     	; 0x68a8 <__divsf3+0x18>
    689c:	21 f4       	brne	.+8      	; 0x68a6 <__divsf3+0x16>
    689e:	5f 3f       	cpi	r21, 0xFF	; 255
    68a0:	19 f0       	breq	.+6      	; 0x68a8 <__divsf3+0x18>
    68a2:	f0 c0       	rjmp	.+480    	; 0x6a84 <__fp_inf>
    68a4:	51 11       	cpse	r21, r1
    68a6:	39 c1       	rjmp	.+626    	; 0x6b1a <__fp_szero>
    68a8:	f3 c0       	rjmp	.+486    	; 0x6a90 <__fp_nan>

000068aa <__divsf3x>:
    68aa:	14 d1       	rcall	.+552    	; 0x6ad4 <__fp_split3>
    68ac:	98 f3       	brcs	.-26     	; 0x6894 <__divsf3+0x4>

000068ae <__divsf3_pse>:
    68ae:	99 23       	and	r25, r25
    68b0:	c9 f3       	breq	.-14     	; 0x68a4 <__divsf3+0x14>
    68b2:	55 23       	and	r21, r21
    68b4:	b1 f3       	breq	.-20     	; 0x68a2 <__divsf3+0x12>
    68b6:	95 1b       	sub	r25, r21
    68b8:	55 0b       	sbc	r21, r21
    68ba:	bb 27       	eor	r27, r27
    68bc:	aa 27       	eor	r26, r26
    68be:	62 17       	cp	r22, r18
    68c0:	73 07       	cpc	r23, r19
    68c2:	84 07       	cpc	r24, r20
    68c4:	38 f0       	brcs	.+14     	; 0x68d4 <__divsf3_pse+0x26>
    68c6:	9f 5f       	subi	r25, 0xFF	; 255
    68c8:	5f 4f       	sbci	r21, 0xFF	; 255
    68ca:	22 0f       	add	r18, r18
    68cc:	33 1f       	adc	r19, r19
    68ce:	44 1f       	adc	r20, r20
    68d0:	aa 1f       	adc	r26, r26
    68d2:	a9 f3       	breq	.-22     	; 0x68be <__divsf3_pse+0x10>
    68d4:	33 d0       	rcall	.+102    	; 0x693c <__divsf3_pse+0x8e>
    68d6:	0e 2e       	mov	r0, r30
    68d8:	3a f0       	brmi	.+14     	; 0x68e8 <__divsf3_pse+0x3a>
    68da:	e0 e8       	ldi	r30, 0x80	; 128
    68dc:	30 d0       	rcall	.+96     	; 0x693e <__divsf3_pse+0x90>
    68de:	91 50       	subi	r25, 0x01	; 1
    68e0:	50 40       	sbci	r21, 0x00	; 0
    68e2:	e6 95       	lsr	r30
    68e4:	00 1c       	adc	r0, r0
    68e6:	ca f7       	brpl	.-14     	; 0x68da <__divsf3_pse+0x2c>
    68e8:	29 d0       	rcall	.+82     	; 0x693c <__divsf3_pse+0x8e>
    68ea:	fe 2f       	mov	r31, r30
    68ec:	27 d0       	rcall	.+78     	; 0x693c <__divsf3_pse+0x8e>
    68ee:	66 0f       	add	r22, r22
    68f0:	77 1f       	adc	r23, r23
    68f2:	88 1f       	adc	r24, r24
    68f4:	bb 1f       	adc	r27, r27
    68f6:	26 17       	cp	r18, r22
    68f8:	37 07       	cpc	r19, r23
    68fa:	48 07       	cpc	r20, r24
    68fc:	ab 07       	cpc	r26, r27
    68fe:	b0 e8       	ldi	r27, 0x80	; 128
    6900:	09 f0       	breq	.+2      	; 0x6904 <__divsf3_pse+0x56>
    6902:	bb 0b       	sbc	r27, r27
    6904:	80 2d       	mov	r24, r0
    6906:	bf 01       	movw	r22, r30
    6908:	ff 27       	eor	r31, r31
    690a:	93 58       	subi	r25, 0x83	; 131
    690c:	5f 4f       	sbci	r21, 0xFF	; 255
    690e:	2a f0       	brmi	.+10     	; 0x691a <__divsf3_pse+0x6c>
    6910:	9e 3f       	cpi	r25, 0xFE	; 254
    6912:	51 05       	cpc	r21, r1
    6914:	68 f0       	brcs	.+26     	; 0x6930 <__divsf3_pse+0x82>
    6916:	b6 c0       	rjmp	.+364    	; 0x6a84 <__fp_inf>
    6918:	00 c1       	rjmp	.+512    	; 0x6b1a <__fp_szero>
    691a:	5f 3f       	cpi	r21, 0xFF	; 255
    691c:	ec f3       	brlt	.-6      	; 0x6918 <__divsf3_pse+0x6a>
    691e:	98 3e       	cpi	r25, 0xE8	; 232
    6920:	dc f3       	brlt	.-10     	; 0x6918 <__divsf3_pse+0x6a>
    6922:	86 95       	lsr	r24
    6924:	77 95       	ror	r23
    6926:	67 95       	ror	r22
    6928:	b7 95       	ror	r27
    692a:	f7 95       	ror	r31
    692c:	9f 5f       	subi	r25, 0xFF	; 255
    692e:	c9 f7       	brne	.-14     	; 0x6922 <__divsf3_pse+0x74>
    6930:	88 0f       	add	r24, r24
    6932:	91 1d       	adc	r25, r1
    6934:	96 95       	lsr	r25
    6936:	87 95       	ror	r24
    6938:	97 f9       	bld	r25, 7
    693a:	08 95       	ret
    693c:	e1 e0       	ldi	r30, 0x01	; 1
    693e:	66 0f       	add	r22, r22
    6940:	77 1f       	adc	r23, r23
    6942:	88 1f       	adc	r24, r24
    6944:	bb 1f       	adc	r27, r27
    6946:	62 17       	cp	r22, r18
    6948:	73 07       	cpc	r23, r19
    694a:	84 07       	cpc	r24, r20
    694c:	ba 07       	cpc	r27, r26
    694e:	20 f0       	brcs	.+8      	; 0x6958 <__divsf3_pse+0xaa>
    6950:	62 1b       	sub	r22, r18
    6952:	73 0b       	sbc	r23, r19
    6954:	84 0b       	sbc	r24, r20
    6956:	ba 0b       	sbc	r27, r26
    6958:	ee 1f       	adc	r30, r30
    695a:	88 f7       	brcc	.-30     	; 0x693e <__divsf3_pse+0x90>
    695c:	e0 95       	com	r30
    695e:	08 95       	ret

00006960 <__fixsfsi>:
    6960:	04 d0       	rcall	.+8      	; 0x696a <__fixunssfsi>
    6962:	68 94       	set
    6964:	b1 11       	cpse	r27, r1
    6966:	d9 c0       	rjmp	.+434    	; 0x6b1a <__fp_szero>
    6968:	08 95       	ret

0000696a <__fixunssfsi>:
    696a:	bc d0       	rcall	.+376    	; 0x6ae4 <__fp_splitA>
    696c:	88 f0       	brcs	.+34     	; 0x6990 <__fixunssfsi+0x26>
    696e:	9f 57       	subi	r25, 0x7F	; 127
    6970:	90 f0       	brcs	.+36     	; 0x6996 <__fixunssfsi+0x2c>
    6972:	b9 2f       	mov	r27, r25
    6974:	99 27       	eor	r25, r25
    6976:	b7 51       	subi	r27, 0x17	; 23
    6978:	a0 f0       	brcs	.+40     	; 0x69a2 <__fixunssfsi+0x38>
    697a:	d1 f0       	breq	.+52     	; 0x69b0 <__fixunssfsi+0x46>
    697c:	66 0f       	add	r22, r22
    697e:	77 1f       	adc	r23, r23
    6980:	88 1f       	adc	r24, r24
    6982:	99 1f       	adc	r25, r25
    6984:	1a f0       	brmi	.+6      	; 0x698c <__fixunssfsi+0x22>
    6986:	ba 95       	dec	r27
    6988:	c9 f7       	brne	.-14     	; 0x697c <__fixunssfsi+0x12>
    698a:	12 c0       	rjmp	.+36     	; 0x69b0 <__fixunssfsi+0x46>
    698c:	b1 30       	cpi	r27, 0x01	; 1
    698e:	81 f0       	breq	.+32     	; 0x69b0 <__fixunssfsi+0x46>
    6990:	c3 d0       	rcall	.+390    	; 0x6b18 <__fp_zero>
    6992:	b1 e0       	ldi	r27, 0x01	; 1
    6994:	08 95       	ret
    6996:	c0 c0       	rjmp	.+384    	; 0x6b18 <__fp_zero>
    6998:	67 2f       	mov	r22, r23
    699a:	78 2f       	mov	r23, r24
    699c:	88 27       	eor	r24, r24
    699e:	b8 5f       	subi	r27, 0xF8	; 248
    69a0:	39 f0       	breq	.+14     	; 0x69b0 <__fixunssfsi+0x46>
    69a2:	b9 3f       	cpi	r27, 0xF9	; 249
    69a4:	cc f3       	brlt	.-14     	; 0x6998 <__fixunssfsi+0x2e>
    69a6:	86 95       	lsr	r24
    69a8:	77 95       	ror	r23
    69aa:	67 95       	ror	r22
    69ac:	b3 95       	inc	r27
    69ae:	d9 f7       	brne	.-10     	; 0x69a6 <__fixunssfsi+0x3c>
    69b0:	3e f4       	brtc	.+14     	; 0x69c0 <__fixunssfsi+0x56>
    69b2:	90 95       	com	r25
    69b4:	80 95       	com	r24
    69b6:	70 95       	com	r23
    69b8:	61 95       	neg	r22
    69ba:	7f 4f       	sbci	r23, 0xFF	; 255
    69bc:	8f 4f       	sbci	r24, 0xFF	; 255
    69be:	9f 4f       	sbci	r25, 0xFF	; 255
    69c0:	08 95       	ret

000069c2 <__floatunsisf>:
    69c2:	e8 94       	clt
    69c4:	09 c0       	rjmp	.+18     	; 0x69d8 <__floatsisf+0x12>

000069c6 <__floatsisf>:
    69c6:	97 fb       	bst	r25, 7
    69c8:	3e f4       	brtc	.+14     	; 0x69d8 <__floatsisf+0x12>
    69ca:	90 95       	com	r25
    69cc:	80 95       	com	r24
    69ce:	70 95       	com	r23
    69d0:	61 95       	neg	r22
    69d2:	7f 4f       	sbci	r23, 0xFF	; 255
    69d4:	8f 4f       	sbci	r24, 0xFF	; 255
    69d6:	9f 4f       	sbci	r25, 0xFF	; 255
    69d8:	99 23       	and	r25, r25
    69da:	a9 f0       	breq	.+42     	; 0x6a06 <__floatsisf+0x40>
    69dc:	f9 2f       	mov	r31, r25
    69de:	96 e9       	ldi	r25, 0x96	; 150
    69e0:	bb 27       	eor	r27, r27
    69e2:	93 95       	inc	r25
    69e4:	f6 95       	lsr	r31
    69e6:	87 95       	ror	r24
    69e8:	77 95       	ror	r23
    69ea:	67 95       	ror	r22
    69ec:	b7 95       	ror	r27
    69ee:	f1 11       	cpse	r31, r1
    69f0:	f8 cf       	rjmp	.-16     	; 0x69e2 <__floatsisf+0x1c>
    69f2:	fa f4       	brpl	.+62     	; 0x6a32 <__floatsisf+0x6c>
    69f4:	bb 0f       	add	r27, r27
    69f6:	11 f4       	brne	.+4      	; 0x69fc <__floatsisf+0x36>
    69f8:	60 ff       	sbrs	r22, 0
    69fa:	1b c0       	rjmp	.+54     	; 0x6a32 <__floatsisf+0x6c>
    69fc:	6f 5f       	subi	r22, 0xFF	; 255
    69fe:	7f 4f       	sbci	r23, 0xFF	; 255
    6a00:	8f 4f       	sbci	r24, 0xFF	; 255
    6a02:	9f 4f       	sbci	r25, 0xFF	; 255
    6a04:	16 c0       	rjmp	.+44     	; 0x6a32 <__floatsisf+0x6c>
    6a06:	88 23       	and	r24, r24
    6a08:	11 f0       	breq	.+4      	; 0x6a0e <__floatsisf+0x48>
    6a0a:	96 e9       	ldi	r25, 0x96	; 150
    6a0c:	11 c0       	rjmp	.+34     	; 0x6a30 <__floatsisf+0x6a>
    6a0e:	77 23       	and	r23, r23
    6a10:	21 f0       	breq	.+8      	; 0x6a1a <__floatsisf+0x54>
    6a12:	9e e8       	ldi	r25, 0x8E	; 142
    6a14:	87 2f       	mov	r24, r23
    6a16:	76 2f       	mov	r23, r22
    6a18:	05 c0       	rjmp	.+10     	; 0x6a24 <__floatsisf+0x5e>
    6a1a:	66 23       	and	r22, r22
    6a1c:	71 f0       	breq	.+28     	; 0x6a3a <__floatsisf+0x74>
    6a1e:	96 e8       	ldi	r25, 0x86	; 134
    6a20:	86 2f       	mov	r24, r22
    6a22:	70 e0       	ldi	r23, 0x00	; 0
    6a24:	60 e0       	ldi	r22, 0x00	; 0
    6a26:	2a f0       	brmi	.+10     	; 0x6a32 <__floatsisf+0x6c>
    6a28:	9a 95       	dec	r25
    6a2a:	66 0f       	add	r22, r22
    6a2c:	77 1f       	adc	r23, r23
    6a2e:	88 1f       	adc	r24, r24
    6a30:	da f7       	brpl	.-10     	; 0x6a28 <__floatsisf+0x62>
    6a32:	88 0f       	add	r24, r24
    6a34:	96 95       	lsr	r25
    6a36:	87 95       	ror	r24
    6a38:	97 f9       	bld	r25, 7
    6a3a:	08 95       	ret

00006a3c <__fp_cmp>:
    6a3c:	99 0f       	add	r25, r25
    6a3e:	00 08       	sbc	r0, r0
    6a40:	55 0f       	add	r21, r21
    6a42:	aa 0b       	sbc	r26, r26
    6a44:	e0 e8       	ldi	r30, 0x80	; 128
    6a46:	fe ef       	ldi	r31, 0xFE	; 254
    6a48:	16 16       	cp	r1, r22
    6a4a:	17 06       	cpc	r1, r23
    6a4c:	e8 07       	cpc	r30, r24
    6a4e:	f9 07       	cpc	r31, r25
    6a50:	c0 f0       	brcs	.+48     	; 0x6a82 <__fp_cmp+0x46>
    6a52:	12 16       	cp	r1, r18
    6a54:	13 06       	cpc	r1, r19
    6a56:	e4 07       	cpc	r30, r20
    6a58:	f5 07       	cpc	r31, r21
    6a5a:	98 f0       	brcs	.+38     	; 0x6a82 <__fp_cmp+0x46>
    6a5c:	62 1b       	sub	r22, r18
    6a5e:	73 0b       	sbc	r23, r19
    6a60:	84 0b       	sbc	r24, r20
    6a62:	95 0b       	sbc	r25, r21
    6a64:	39 f4       	brne	.+14     	; 0x6a74 <__fp_cmp+0x38>
    6a66:	0a 26       	eor	r0, r26
    6a68:	61 f0       	breq	.+24     	; 0x6a82 <__fp_cmp+0x46>
    6a6a:	23 2b       	or	r18, r19
    6a6c:	24 2b       	or	r18, r20
    6a6e:	25 2b       	or	r18, r21
    6a70:	21 f4       	brne	.+8      	; 0x6a7a <__fp_cmp+0x3e>
    6a72:	08 95       	ret
    6a74:	0a 26       	eor	r0, r26
    6a76:	09 f4       	brne	.+2      	; 0x6a7a <__fp_cmp+0x3e>
    6a78:	a1 40       	sbci	r26, 0x01	; 1
    6a7a:	a6 95       	lsr	r26
    6a7c:	8f ef       	ldi	r24, 0xFF	; 255
    6a7e:	81 1d       	adc	r24, r1
    6a80:	81 1d       	adc	r24, r1
    6a82:	08 95       	ret

00006a84 <__fp_inf>:
    6a84:	97 f9       	bld	r25, 7
    6a86:	9f 67       	ori	r25, 0x7F	; 127
    6a88:	80 e8       	ldi	r24, 0x80	; 128
    6a8a:	70 e0       	ldi	r23, 0x00	; 0
    6a8c:	60 e0       	ldi	r22, 0x00	; 0
    6a8e:	08 95       	ret

00006a90 <__fp_nan>:
    6a90:	9f ef       	ldi	r25, 0xFF	; 255
    6a92:	80 ec       	ldi	r24, 0xC0	; 192
    6a94:	08 95       	ret

00006a96 <__fp_pscA>:
    6a96:	00 24       	eor	r0, r0
    6a98:	0a 94       	dec	r0
    6a9a:	16 16       	cp	r1, r22
    6a9c:	17 06       	cpc	r1, r23
    6a9e:	18 06       	cpc	r1, r24
    6aa0:	09 06       	cpc	r0, r25
    6aa2:	08 95       	ret

00006aa4 <__fp_pscB>:
    6aa4:	00 24       	eor	r0, r0
    6aa6:	0a 94       	dec	r0
    6aa8:	12 16       	cp	r1, r18
    6aaa:	13 06       	cpc	r1, r19
    6aac:	14 06       	cpc	r1, r20
    6aae:	05 06       	cpc	r0, r21
    6ab0:	08 95       	ret

00006ab2 <__fp_round>:
    6ab2:	09 2e       	mov	r0, r25
    6ab4:	03 94       	inc	r0
    6ab6:	00 0c       	add	r0, r0
    6ab8:	11 f4       	brne	.+4      	; 0x6abe <__fp_round+0xc>
    6aba:	88 23       	and	r24, r24
    6abc:	52 f0       	brmi	.+20     	; 0x6ad2 <__fp_round+0x20>
    6abe:	bb 0f       	add	r27, r27
    6ac0:	40 f4       	brcc	.+16     	; 0x6ad2 <__fp_round+0x20>
    6ac2:	bf 2b       	or	r27, r31
    6ac4:	11 f4       	brne	.+4      	; 0x6aca <__fp_round+0x18>
    6ac6:	60 ff       	sbrs	r22, 0
    6ac8:	04 c0       	rjmp	.+8      	; 0x6ad2 <__fp_round+0x20>
    6aca:	6f 5f       	subi	r22, 0xFF	; 255
    6acc:	7f 4f       	sbci	r23, 0xFF	; 255
    6ace:	8f 4f       	sbci	r24, 0xFF	; 255
    6ad0:	9f 4f       	sbci	r25, 0xFF	; 255
    6ad2:	08 95       	ret

00006ad4 <__fp_split3>:
    6ad4:	57 fd       	sbrc	r21, 7
    6ad6:	90 58       	subi	r25, 0x80	; 128
    6ad8:	44 0f       	add	r20, r20
    6ada:	55 1f       	adc	r21, r21
    6adc:	59 f0       	breq	.+22     	; 0x6af4 <__fp_splitA+0x10>
    6ade:	5f 3f       	cpi	r21, 0xFF	; 255
    6ae0:	71 f0       	breq	.+28     	; 0x6afe <__fp_splitA+0x1a>
    6ae2:	47 95       	ror	r20

00006ae4 <__fp_splitA>:
    6ae4:	88 0f       	add	r24, r24
    6ae6:	97 fb       	bst	r25, 7
    6ae8:	99 1f       	adc	r25, r25
    6aea:	61 f0       	breq	.+24     	; 0x6b04 <__fp_splitA+0x20>
    6aec:	9f 3f       	cpi	r25, 0xFF	; 255
    6aee:	79 f0       	breq	.+30     	; 0x6b0e <__fp_splitA+0x2a>
    6af0:	87 95       	ror	r24
    6af2:	08 95       	ret
    6af4:	12 16       	cp	r1, r18
    6af6:	13 06       	cpc	r1, r19
    6af8:	14 06       	cpc	r1, r20
    6afa:	55 1f       	adc	r21, r21
    6afc:	f2 cf       	rjmp	.-28     	; 0x6ae2 <__fp_split3+0xe>
    6afe:	46 95       	lsr	r20
    6b00:	f1 df       	rcall	.-30     	; 0x6ae4 <__fp_splitA>
    6b02:	08 c0       	rjmp	.+16     	; 0x6b14 <__fp_splitA+0x30>
    6b04:	16 16       	cp	r1, r22
    6b06:	17 06       	cpc	r1, r23
    6b08:	18 06       	cpc	r1, r24
    6b0a:	99 1f       	adc	r25, r25
    6b0c:	f1 cf       	rjmp	.-30     	; 0x6af0 <__fp_splitA+0xc>
    6b0e:	86 95       	lsr	r24
    6b10:	71 05       	cpc	r23, r1
    6b12:	61 05       	cpc	r22, r1
    6b14:	08 94       	sec
    6b16:	08 95       	ret

00006b18 <__fp_zero>:
    6b18:	e8 94       	clt

00006b1a <__fp_szero>:
    6b1a:	bb 27       	eor	r27, r27
    6b1c:	66 27       	eor	r22, r22
    6b1e:	77 27       	eor	r23, r23
    6b20:	cb 01       	movw	r24, r22
    6b22:	97 f9       	bld	r25, 7
    6b24:	08 95       	ret

00006b26 <__gesf2>:
    6b26:	8a df       	rcall	.-236    	; 0x6a3c <__fp_cmp>
    6b28:	08 f4       	brcc	.+2      	; 0x6b2c <__gesf2+0x6>
    6b2a:	8f ef       	ldi	r24, 0xFF	; 255
    6b2c:	08 95       	ret

00006b2e <__mulsf3>:
    6b2e:	0b d0       	rcall	.+22     	; 0x6b46 <__mulsf3x>
    6b30:	c0 cf       	rjmp	.-128    	; 0x6ab2 <__fp_round>
    6b32:	b1 df       	rcall	.-158    	; 0x6a96 <__fp_pscA>
    6b34:	28 f0       	brcs	.+10     	; 0x6b40 <__mulsf3+0x12>
    6b36:	b6 df       	rcall	.-148    	; 0x6aa4 <__fp_pscB>
    6b38:	18 f0       	brcs	.+6      	; 0x6b40 <__mulsf3+0x12>
    6b3a:	95 23       	and	r25, r21
    6b3c:	09 f0       	breq	.+2      	; 0x6b40 <__mulsf3+0x12>
    6b3e:	a2 cf       	rjmp	.-188    	; 0x6a84 <__fp_inf>
    6b40:	a7 cf       	rjmp	.-178    	; 0x6a90 <__fp_nan>
    6b42:	11 24       	eor	r1, r1
    6b44:	ea cf       	rjmp	.-44     	; 0x6b1a <__fp_szero>

00006b46 <__mulsf3x>:
    6b46:	c6 df       	rcall	.-116    	; 0x6ad4 <__fp_split3>
    6b48:	a0 f3       	brcs	.-24     	; 0x6b32 <__mulsf3+0x4>

00006b4a <__mulsf3_pse>:
    6b4a:	95 9f       	mul	r25, r21
    6b4c:	d1 f3       	breq	.-12     	; 0x6b42 <__mulsf3+0x14>
    6b4e:	95 0f       	add	r25, r21
    6b50:	50 e0       	ldi	r21, 0x00	; 0
    6b52:	55 1f       	adc	r21, r21
    6b54:	62 9f       	mul	r22, r18
    6b56:	f0 01       	movw	r30, r0
    6b58:	72 9f       	mul	r23, r18
    6b5a:	bb 27       	eor	r27, r27
    6b5c:	f0 0d       	add	r31, r0
    6b5e:	b1 1d       	adc	r27, r1
    6b60:	63 9f       	mul	r22, r19
    6b62:	aa 27       	eor	r26, r26
    6b64:	f0 0d       	add	r31, r0
    6b66:	b1 1d       	adc	r27, r1
    6b68:	aa 1f       	adc	r26, r26
    6b6a:	64 9f       	mul	r22, r20
    6b6c:	66 27       	eor	r22, r22
    6b6e:	b0 0d       	add	r27, r0
    6b70:	a1 1d       	adc	r26, r1
    6b72:	66 1f       	adc	r22, r22
    6b74:	82 9f       	mul	r24, r18
    6b76:	22 27       	eor	r18, r18
    6b78:	b0 0d       	add	r27, r0
    6b7a:	a1 1d       	adc	r26, r1
    6b7c:	62 1f       	adc	r22, r18
    6b7e:	73 9f       	mul	r23, r19
    6b80:	b0 0d       	add	r27, r0
    6b82:	a1 1d       	adc	r26, r1
    6b84:	62 1f       	adc	r22, r18
    6b86:	83 9f       	mul	r24, r19
    6b88:	a0 0d       	add	r26, r0
    6b8a:	61 1d       	adc	r22, r1
    6b8c:	22 1f       	adc	r18, r18
    6b8e:	74 9f       	mul	r23, r20
    6b90:	33 27       	eor	r19, r19
    6b92:	a0 0d       	add	r26, r0
    6b94:	61 1d       	adc	r22, r1
    6b96:	23 1f       	adc	r18, r19
    6b98:	84 9f       	mul	r24, r20
    6b9a:	60 0d       	add	r22, r0
    6b9c:	21 1d       	adc	r18, r1
    6b9e:	82 2f       	mov	r24, r18
    6ba0:	76 2f       	mov	r23, r22
    6ba2:	6a 2f       	mov	r22, r26
    6ba4:	11 24       	eor	r1, r1
    6ba6:	9f 57       	subi	r25, 0x7F	; 127
    6ba8:	50 40       	sbci	r21, 0x00	; 0
    6baa:	8a f0       	brmi	.+34     	; 0x6bce <__mulsf3_pse+0x84>
    6bac:	e1 f0       	breq	.+56     	; 0x6be6 <__mulsf3_pse+0x9c>
    6bae:	88 23       	and	r24, r24
    6bb0:	4a f0       	brmi	.+18     	; 0x6bc4 <__mulsf3_pse+0x7a>
    6bb2:	ee 0f       	add	r30, r30
    6bb4:	ff 1f       	adc	r31, r31
    6bb6:	bb 1f       	adc	r27, r27
    6bb8:	66 1f       	adc	r22, r22
    6bba:	77 1f       	adc	r23, r23
    6bbc:	88 1f       	adc	r24, r24
    6bbe:	91 50       	subi	r25, 0x01	; 1
    6bc0:	50 40       	sbci	r21, 0x00	; 0
    6bc2:	a9 f7       	brne	.-22     	; 0x6bae <__mulsf3_pse+0x64>
    6bc4:	9e 3f       	cpi	r25, 0xFE	; 254
    6bc6:	51 05       	cpc	r21, r1
    6bc8:	70 f0       	brcs	.+28     	; 0x6be6 <__mulsf3_pse+0x9c>
    6bca:	5c cf       	rjmp	.-328    	; 0x6a84 <__fp_inf>
    6bcc:	a6 cf       	rjmp	.-180    	; 0x6b1a <__fp_szero>
    6bce:	5f 3f       	cpi	r21, 0xFF	; 255
    6bd0:	ec f3       	brlt	.-6      	; 0x6bcc <__mulsf3_pse+0x82>
    6bd2:	98 3e       	cpi	r25, 0xE8	; 232
    6bd4:	dc f3       	brlt	.-10     	; 0x6bcc <__mulsf3_pse+0x82>
    6bd6:	86 95       	lsr	r24
    6bd8:	77 95       	ror	r23
    6bda:	67 95       	ror	r22
    6bdc:	b7 95       	ror	r27
    6bde:	f7 95       	ror	r31
    6be0:	e7 95       	ror	r30
    6be2:	9f 5f       	subi	r25, 0xFF	; 255
    6be4:	c1 f7       	brne	.-16     	; 0x6bd6 <__mulsf3_pse+0x8c>
    6be6:	fe 2b       	or	r31, r30
    6be8:	88 0f       	add	r24, r24
    6bea:	91 1d       	adc	r25, r1
    6bec:	96 95       	lsr	r25
    6bee:	87 95       	ror	r24
    6bf0:	97 f9       	bld	r25, 7
    6bf2:	08 95       	ret

00006bf4 <__divmodhi4>:
    6bf4:	97 fb       	bst	r25, 7
    6bf6:	07 2e       	mov	r0, r23
    6bf8:	16 f4       	brtc	.+4      	; 0x6bfe <__divmodhi4+0xa>
    6bfa:	00 94       	com	r0
    6bfc:	06 d0       	rcall	.+12     	; 0x6c0a <__divmodhi4_neg1>
    6bfe:	77 fd       	sbrc	r23, 7
    6c00:	08 d0       	rcall	.+16     	; 0x6c12 <__divmodhi4_neg2>
    6c02:	53 d0       	rcall	.+166    	; 0x6caa <__udivmodhi4>
    6c04:	07 fc       	sbrc	r0, 7
    6c06:	05 d0       	rcall	.+10     	; 0x6c12 <__divmodhi4_neg2>
    6c08:	3e f4       	brtc	.+14     	; 0x6c18 <__divmodhi4_exit>

00006c0a <__divmodhi4_neg1>:
    6c0a:	90 95       	com	r25
    6c0c:	81 95       	neg	r24
    6c0e:	9f 4f       	sbci	r25, 0xFF	; 255
    6c10:	08 95       	ret

00006c12 <__divmodhi4_neg2>:
    6c12:	70 95       	com	r23
    6c14:	61 95       	neg	r22
    6c16:	7f 4f       	sbci	r23, 0xFF	; 255

00006c18 <__divmodhi4_exit>:
    6c18:	08 95       	ret

00006c1a <__udivmodsi4>:
    6c1a:	a1 e2       	ldi	r26, 0x21	; 33
    6c1c:	1a 2e       	mov	r1, r26
    6c1e:	aa 1b       	sub	r26, r26
    6c20:	bb 1b       	sub	r27, r27
    6c22:	fd 01       	movw	r30, r26
    6c24:	0d c0       	rjmp	.+26     	; 0x6c40 <__udivmodsi4_ep>

00006c26 <__udivmodsi4_loop>:
    6c26:	aa 1f       	adc	r26, r26
    6c28:	bb 1f       	adc	r27, r27
    6c2a:	ee 1f       	adc	r30, r30
    6c2c:	ff 1f       	adc	r31, r31
    6c2e:	a2 17       	cp	r26, r18
    6c30:	b3 07       	cpc	r27, r19
    6c32:	e4 07       	cpc	r30, r20
    6c34:	f5 07       	cpc	r31, r21
    6c36:	20 f0       	brcs	.+8      	; 0x6c40 <__udivmodsi4_ep>
    6c38:	a2 1b       	sub	r26, r18
    6c3a:	b3 0b       	sbc	r27, r19
    6c3c:	e4 0b       	sbc	r30, r20
    6c3e:	f5 0b       	sbc	r31, r21

00006c40 <__udivmodsi4_ep>:
    6c40:	66 1f       	adc	r22, r22
    6c42:	77 1f       	adc	r23, r23
    6c44:	88 1f       	adc	r24, r24
    6c46:	99 1f       	adc	r25, r25
    6c48:	1a 94       	dec	r1
    6c4a:	69 f7       	brne	.-38     	; 0x6c26 <__udivmodsi4_loop>
    6c4c:	60 95       	com	r22
    6c4e:	70 95       	com	r23
    6c50:	80 95       	com	r24
    6c52:	90 95       	com	r25
    6c54:	9b 01       	movw	r18, r22
    6c56:	ac 01       	movw	r20, r24
    6c58:	bd 01       	movw	r22, r26
    6c5a:	cf 01       	movw	r24, r30
    6c5c:	08 95       	ret

00006c5e <__divmodsi4>:
    6c5e:	05 2e       	mov	r0, r21
    6c60:	97 fb       	bst	r25, 7
    6c62:	16 f4       	brtc	.+4      	; 0x6c68 <__divmodsi4+0xa>
    6c64:	00 94       	com	r0
    6c66:	0f d0       	rcall	.+30     	; 0x6c86 <__negsi2>
    6c68:	57 fd       	sbrc	r21, 7
    6c6a:	05 d0       	rcall	.+10     	; 0x6c76 <__divmodsi4_neg2>
    6c6c:	d6 df       	rcall	.-84     	; 0x6c1a <__udivmodsi4>
    6c6e:	07 fc       	sbrc	r0, 7
    6c70:	02 d0       	rcall	.+4      	; 0x6c76 <__divmodsi4_neg2>
    6c72:	46 f4       	brtc	.+16     	; 0x6c84 <__divmodsi4_exit>
    6c74:	08 c0       	rjmp	.+16     	; 0x6c86 <__negsi2>

00006c76 <__divmodsi4_neg2>:
    6c76:	50 95       	com	r21
    6c78:	40 95       	com	r20
    6c7a:	30 95       	com	r19
    6c7c:	21 95       	neg	r18
    6c7e:	3f 4f       	sbci	r19, 0xFF	; 255
    6c80:	4f 4f       	sbci	r20, 0xFF	; 255
    6c82:	5f 4f       	sbci	r21, 0xFF	; 255

00006c84 <__divmodsi4_exit>:
    6c84:	08 95       	ret

00006c86 <__negsi2>:
    6c86:	90 95       	com	r25
    6c88:	80 95       	com	r24
    6c8a:	70 95       	com	r23
    6c8c:	61 95       	neg	r22
    6c8e:	7f 4f       	sbci	r23, 0xFF	; 255
    6c90:	8f 4f       	sbci	r24, 0xFF	; 255
    6c92:	9f 4f       	sbci	r25, 0xFF	; 255
    6c94:	08 95       	ret

00006c96 <__muluhisi3>:
    6c96:	1d d0       	rcall	.+58     	; 0x6cd2 <__umulhisi3>
    6c98:	a5 9f       	mul	r26, r21
    6c9a:	90 0d       	add	r25, r0
    6c9c:	b4 9f       	mul	r27, r20
    6c9e:	90 0d       	add	r25, r0
    6ca0:	a4 9f       	mul	r26, r20
    6ca2:	80 0d       	add	r24, r0
    6ca4:	91 1d       	adc	r25, r1
    6ca6:	11 24       	eor	r1, r1
    6ca8:	08 95       	ret

00006caa <__udivmodhi4>:
    6caa:	aa 1b       	sub	r26, r26
    6cac:	bb 1b       	sub	r27, r27
    6cae:	51 e1       	ldi	r21, 0x11	; 17
    6cb0:	07 c0       	rjmp	.+14     	; 0x6cc0 <__udivmodhi4_ep>

00006cb2 <__udivmodhi4_loop>:
    6cb2:	aa 1f       	adc	r26, r26
    6cb4:	bb 1f       	adc	r27, r27
    6cb6:	a6 17       	cp	r26, r22
    6cb8:	b7 07       	cpc	r27, r23
    6cba:	10 f0       	brcs	.+4      	; 0x6cc0 <__udivmodhi4_ep>
    6cbc:	a6 1b       	sub	r26, r22
    6cbe:	b7 0b       	sbc	r27, r23

00006cc0 <__udivmodhi4_ep>:
    6cc0:	88 1f       	adc	r24, r24
    6cc2:	99 1f       	adc	r25, r25
    6cc4:	5a 95       	dec	r21
    6cc6:	a9 f7       	brne	.-22     	; 0x6cb2 <__udivmodhi4_loop>
    6cc8:	80 95       	com	r24
    6cca:	90 95       	com	r25
    6ccc:	bc 01       	movw	r22, r24
    6cce:	cd 01       	movw	r24, r26
    6cd0:	08 95       	ret

00006cd2 <__umulhisi3>:
    6cd2:	a2 9f       	mul	r26, r18
    6cd4:	b0 01       	movw	r22, r0
    6cd6:	b3 9f       	mul	r27, r19
    6cd8:	c0 01       	movw	r24, r0
    6cda:	a3 9f       	mul	r26, r19
    6cdc:	70 0d       	add	r23, r0
    6cde:	81 1d       	adc	r24, r1
    6ce0:	11 24       	eor	r1, r1
    6ce2:	91 1d       	adc	r25, r1
    6ce4:	b2 9f       	mul	r27, r18
    6ce6:	70 0d       	add	r23, r0
    6ce8:	81 1d       	adc	r24, r1
    6cea:	11 24       	eor	r1, r1
    6cec:	91 1d       	adc	r25, r1
    6cee:	08 95       	ret

00006cf0 <strncpy>:
    6cf0:	fb 01       	movw	r30, r22
    6cf2:	dc 01       	movw	r26, r24
    6cf4:	41 50       	subi	r20, 0x01	; 1
    6cf6:	50 40       	sbci	r21, 0x00	; 0
    6cf8:	48 f0       	brcs	.+18     	; 0x6d0c <strncpy+0x1c>
    6cfa:	01 90       	ld	r0, Z+
    6cfc:	0d 92       	st	X+, r0
    6cfe:	00 20       	and	r0, r0
    6d00:	c9 f7       	brne	.-14     	; 0x6cf4 <strncpy+0x4>
    6d02:	01 c0       	rjmp	.+2      	; 0x6d06 <strncpy+0x16>
    6d04:	1d 92       	st	X+, r1
    6d06:	41 50       	subi	r20, 0x01	; 1
    6d08:	50 40       	sbci	r21, 0x00	; 0
    6d0a:	e0 f7       	brcc	.-8      	; 0x6d04 <strncpy+0x14>
    6d0c:	08 95       	ret

00006d0e <sprintf>:
    6d0e:	0f 93       	push	r16
    6d10:	1f 93       	push	r17
    6d12:	cf 93       	push	r28
    6d14:	df 93       	push	r29
    6d16:	cd b7       	in	r28, 0x3d	; 61
    6d18:	de b7       	in	r29, 0x3e	; 62
    6d1a:	2e 97       	sbiw	r28, 0x0e	; 14
    6d1c:	0f b6       	in	r0, 0x3f	; 63
    6d1e:	f8 94       	cli
    6d20:	de bf       	out	0x3e, r29	; 62
    6d22:	0f be       	out	0x3f, r0	; 63
    6d24:	cd bf       	out	0x3d, r28	; 61
    6d26:	0e 89       	ldd	r16, Y+22	; 0x16
    6d28:	1f 89       	ldd	r17, Y+23	; 0x17
    6d2a:	86 e0       	ldi	r24, 0x06	; 6
    6d2c:	8c 83       	std	Y+4, r24	; 0x04
    6d2e:	1a 83       	std	Y+2, r17	; 0x02
    6d30:	09 83       	std	Y+1, r16	; 0x01
    6d32:	8f ef       	ldi	r24, 0xFF	; 255
    6d34:	9f e7       	ldi	r25, 0x7F	; 127
    6d36:	9e 83       	std	Y+6, r25	; 0x06
    6d38:	8d 83       	std	Y+5, r24	; 0x05
    6d3a:	ae 01       	movw	r20, r28
    6d3c:	46 5e       	subi	r20, 0xE6	; 230
    6d3e:	5f 4f       	sbci	r21, 0xFF	; 255
    6d40:	68 8d       	ldd	r22, Y+24	; 0x18
    6d42:	79 8d       	ldd	r23, Y+25	; 0x19
    6d44:	ce 01       	movw	r24, r28
    6d46:	01 96       	adiw	r24, 0x01	; 1
    6d48:	32 d0       	rcall	.+100    	; 0x6dae <vfprintf>
    6d4a:	2f 81       	ldd	r18, Y+7	; 0x07
    6d4c:	38 85       	ldd	r19, Y+8	; 0x08
    6d4e:	f8 01       	movw	r30, r16
    6d50:	e2 0f       	add	r30, r18
    6d52:	f3 1f       	adc	r31, r19
    6d54:	10 82       	st	Z, r1
    6d56:	2e 96       	adiw	r28, 0x0e	; 14
    6d58:	0f b6       	in	r0, 0x3f	; 63
    6d5a:	f8 94       	cli
    6d5c:	de bf       	out	0x3e, r29	; 62
    6d5e:	0f be       	out	0x3f, r0	; 63
    6d60:	cd bf       	out	0x3d, r28	; 61
    6d62:	df 91       	pop	r29
    6d64:	cf 91       	pop	r28
    6d66:	1f 91       	pop	r17
    6d68:	0f 91       	pop	r16
    6d6a:	08 95       	ret

00006d6c <sscanf>:
    6d6c:	cf 93       	push	r28
    6d6e:	df 93       	push	r29
    6d70:	cd b7       	in	r28, 0x3d	; 61
    6d72:	de b7       	in	r29, 0x3e	; 62
    6d74:	2e 97       	sbiw	r28, 0x0e	; 14
    6d76:	0f b6       	in	r0, 0x3f	; 63
    6d78:	f8 94       	cli
    6d7a:	de bf       	out	0x3e, r29	; 62
    6d7c:	0f be       	out	0x3f, r0	; 63
    6d7e:	cd bf       	out	0x3d, r28	; 61
    6d80:	85 e0       	ldi	r24, 0x05	; 5
    6d82:	8c 83       	std	Y+4, r24	; 0x04
    6d84:	8c 89       	ldd	r24, Y+20	; 0x14
    6d86:	9d 89       	ldd	r25, Y+21	; 0x15
    6d88:	9a 83       	std	Y+2, r25	; 0x02
    6d8a:	89 83       	std	Y+1, r24	; 0x01
    6d8c:	ae 01       	movw	r20, r28
    6d8e:	48 5e       	subi	r20, 0xE8	; 232
    6d90:	5f 4f       	sbci	r21, 0xFF	; 255
    6d92:	6e 89       	ldd	r22, Y+22	; 0x16
    6d94:	7f 89       	ldd	r23, Y+23	; 0x17
    6d96:	ce 01       	movw	r24, r28
    6d98:	01 96       	adiw	r24, 0x01	; 1
    6d9a:	9e d3       	rcall	.+1852   	; 0x74d8 <vfscanf>
    6d9c:	2e 96       	adiw	r28, 0x0e	; 14
    6d9e:	0f b6       	in	r0, 0x3f	; 63
    6da0:	f8 94       	cli
    6da2:	de bf       	out	0x3e, r29	; 62
    6da4:	0f be       	out	0x3f, r0	; 63
    6da6:	cd bf       	out	0x3d, r28	; 61
    6da8:	df 91       	pop	r29
    6daa:	cf 91       	pop	r28
    6dac:	08 95       	ret

00006dae <vfprintf>:
    6dae:	2f 92       	push	r2
    6db0:	3f 92       	push	r3
    6db2:	4f 92       	push	r4
    6db4:	5f 92       	push	r5
    6db6:	6f 92       	push	r6
    6db8:	7f 92       	push	r7
    6dba:	8f 92       	push	r8
    6dbc:	9f 92       	push	r9
    6dbe:	af 92       	push	r10
    6dc0:	bf 92       	push	r11
    6dc2:	cf 92       	push	r12
    6dc4:	df 92       	push	r13
    6dc6:	ef 92       	push	r14
    6dc8:	ff 92       	push	r15
    6dca:	0f 93       	push	r16
    6dcc:	1f 93       	push	r17
    6dce:	cf 93       	push	r28
    6dd0:	df 93       	push	r29
    6dd2:	cd b7       	in	r28, 0x3d	; 61
    6dd4:	de b7       	in	r29, 0x3e	; 62
    6dd6:	2c 97       	sbiw	r28, 0x0c	; 12
    6dd8:	0f b6       	in	r0, 0x3f	; 63
    6dda:	f8 94       	cli
    6ddc:	de bf       	out	0x3e, r29	; 62
    6dde:	0f be       	out	0x3f, r0	; 63
    6de0:	cd bf       	out	0x3d, r28	; 61
    6de2:	7c 01       	movw	r14, r24
    6de4:	6b 01       	movw	r12, r22
    6de6:	8a 01       	movw	r16, r20
    6de8:	fc 01       	movw	r30, r24
    6dea:	17 82       	std	Z+7, r1	; 0x07
    6dec:	16 82       	std	Z+6, r1	; 0x06
    6dee:	83 81       	ldd	r24, Z+3	; 0x03
    6df0:	81 ff       	sbrs	r24, 1
    6df2:	b0 c1       	rjmp	.+864    	; 0x7154 <vfprintf+0x3a6>
    6df4:	ce 01       	movw	r24, r28
    6df6:	01 96       	adiw	r24, 0x01	; 1
    6df8:	4c 01       	movw	r8, r24
    6dfa:	f7 01       	movw	r30, r14
    6dfc:	93 81       	ldd	r25, Z+3	; 0x03
    6dfe:	f6 01       	movw	r30, r12
    6e00:	93 fd       	sbrc	r25, 3
    6e02:	85 91       	lpm	r24, Z+
    6e04:	93 ff       	sbrs	r25, 3
    6e06:	81 91       	ld	r24, Z+
    6e08:	6f 01       	movw	r12, r30
    6e0a:	88 23       	and	r24, r24
    6e0c:	09 f4       	brne	.+2      	; 0x6e10 <vfprintf+0x62>
    6e0e:	9e c1       	rjmp	.+828    	; 0x714c <vfprintf+0x39e>
    6e10:	85 32       	cpi	r24, 0x25	; 37
    6e12:	39 f4       	brne	.+14     	; 0x6e22 <vfprintf+0x74>
    6e14:	93 fd       	sbrc	r25, 3
    6e16:	85 91       	lpm	r24, Z+
    6e18:	93 ff       	sbrs	r25, 3
    6e1a:	81 91       	ld	r24, Z+
    6e1c:	6f 01       	movw	r12, r30
    6e1e:	85 32       	cpi	r24, 0x25	; 37
    6e20:	21 f4       	brne	.+8      	; 0x6e2a <vfprintf+0x7c>
    6e22:	b7 01       	movw	r22, r14
    6e24:	90 e0       	ldi	r25, 0x00	; 0
    6e26:	df d4       	rcall	.+2494   	; 0x77e6 <fputc>
    6e28:	e8 cf       	rjmp	.-48     	; 0x6dfa <vfprintf+0x4c>
    6e2a:	51 2c       	mov	r5, r1
    6e2c:	31 2c       	mov	r3, r1
    6e2e:	20 e0       	ldi	r18, 0x00	; 0
    6e30:	20 32       	cpi	r18, 0x20	; 32
    6e32:	a0 f4       	brcc	.+40     	; 0x6e5c <vfprintf+0xae>
    6e34:	8b 32       	cpi	r24, 0x2B	; 43
    6e36:	69 f0       	breq	.+26     	; 0x6e52 <vfprintf+0xa4>
    6e38:	30 f4       	brcc	.+12     	; 0x6e46 <vfprintf+0x98>
    6e3a:	80 32       	cpi	r24, 0x20	; 32
    6e3c:	59 f0       	breq	.+22     	; 0x6e54 <vfprintf+0xa6>
    6e3e:	83 32       	cpi	r24, 0x23	; 35
    6e40:	69 f4       	brne	.+26     	; 0x6e5c <vfprintf+0xae>
    6e42:	20 61       	ori	r18, 0x10	; 16
    6e44:	2c c0       	rjmp	.+88     	; 0x6e9e <vfprintf+0xf0>
    6e46:	8d 32       	cpi	r24, 0x2D	; 45
    6e48:	39 f0       	breq	.+14     	; 0x6e58 <vfprintf+0xaa>
    6e4a:	80 33       	cpi	r24, 0x30	; 48
    6e4c:	39 f4       	brne	.+14     	; 0x6e5c <vfprintf+0xae>
    6e4e:	21 60       	ori	r18, 0x01	; 1
    6e50:	26 c0       	rjmp	.+76     	; 0x6e9e <vfprintf+0xf0>
    6e52:	22 60       	ori	r18, 0x02	; 2
    6e54:	24 60       	ori	r18, 0x04	; 4
    6e56:	23 c0       	rjmp	.+70     	; 0x6e9e <vfprintf+0xf0>
    6e58:	28 60       	ori	r18, 0x08	; 8
    6e5a:	21 c0       	rjmp	.+66     	; 0x6e9e <vfprintf+0xf0>
    6e5c:	27 fd       	sbrc	r18, 7
    6e5e:	27 c0       	rjmp	.+78     	; 0x6eae <vfprintf+0x100>
    6e60:	30 ed       	ldi	r19, 0xD0	; 208
    6e62:	38 0f       	add	r19, r24
    6e64:	3a 30       	cpi	r19, 0x0A	; 10
    6e66:	78 f4       	brcc	.+30     	; 0x6e86 <vfprintf+0xd8>
    6e68:	26 ff       	sbrs	r18, 6
    6e6a:	06 c0       	rjmp	.+12     	; 0x6e78 <vfprintf+0xca>
    6e6c:	fa e0       	ldi	r31, 0x0A	; 10
    6e6e:	5f 9e       	mul	r5, r31
    6e70:	30 0d       	add	r19, r0
    6e72:	11 24       	eor	r1, r1
    6e74:	53 2e       	mov	r5, r19
    6e76:	13 c0       	rjmp	.+38     	; 0x6e9e <vfprintf+0xf0>
    6e78:	8a e0       	ldi	r24, 0x0A	; 10
    6e7a:	38 9e       	mul	r3, r24
    6e7c:	30 0d       	add	r19, r0
    6e7e:	11 24       	eor	r1, r1
    6e80:	33 2e       	mov	r3, r19
    6e82:	20 62       	ori	r18, 0x20	; 32
    6e84:	0c c0       	rjmp	.+24     	; 0x6e9e <vfprintf+0xf0>
    6e86:	8e 32       	cpi	r24, 0x2E	; 46
    6e88:	21 f4       	brne	.+8      	; 0x6e92 <vfprintf+0xe4>
    6e8a:	26 fd       	sbrc	r18, 6
    6e8c:	5f c1       	rjmp	.+702    	; 0x714c <vfprintf+0x39e>
    6e8e:	20 64       	ori	r18, 0x40	; 64
    6e90:	06 c0       	rjmp	.+12     	; 0x6e9e <vfprintf+0xf0>
    6e92:	8c 36       	cpi	r24, 0x6C	; 108
    6e94:	11 f4       	brne	.+4      	; 0x6e9a <vfprintf+0xec>
    6e96:	20 68       	ori	r18, 0x80	; 128
    6e98:	02 c0       	rjmp	.+4      	; 0x6e9e <vfprintf+0xf0>
    6e9a:	88 36       	cpi	r24, 0x68	; 104
    6e9c:	41 f4       	brne	.+16     	; 0x6eae <vfprintf+0x100>
    6e9e:	f6 01       	movw	r30, r12
    6ea0:	93 fd       	sbrc	r25, 3
    6ea2:	85 91       	lpm	r24, Z+
    6ea4:	93 ff       	sbrs	r25, 3
    6ea6:	81 91       	ld	r24, Z+
    6ea8:	6f 01       	movw	r12, r30
    6eaa:	81 11       	cpse	r24, r1
    6eac:	c1 cf       	rjmp	.-126    	; 0x6e30 <vfprintf+0x82>
    6eae:	98 2f       	mov	r25, r24
    6eb0:	9f 7d       	andi	r25, 0xDF	; 223
    6eb2:	95 54       	subi	r25, 0x45	; 69
    6eb4:	93 30       	cpi	r25, 0x03	; 3
    6eb6:	28 f4       	brcc	.+10     	; 0x6ec2 <vfprintf+0x114>
    6eb8:	0c 5f       	subi	r16, 0xFC	; 252
    6eba:	1f 4f       	sbci	r17, 0xFF	; 255
    6ebc:	ff e3       	ldi	r31, 0x3F	; 63
    6ebe:	f9 83       	std	Y+1, r31	; 0x01
    6ec0:	0d c0       	rjmp	.+26     	; 0x6edc <vfprintf+0x12e>
    6ec2:	83 36       	cpi	r24, 0x63	; 99
    6ec4:	31 f0       	breq	.+12     	; 0x6ed2 <vfprintf+0x124>
    6ec6:	83 37       	cpi	r24, 0x73	; 115
    6ec8:	71 f0       	breq	.+28     	; 0x6ee6 <vfprintf+0x138>
    6eca:	83 35       	cpi	r24, 0x53	; 83
    6ecc:	09 f0       	breq	.+2      	; 0x6ed0 <vfprintf+0x122>
    6ece:	57 c0       	rjmp	.+174    	; 0x6f7e <vfprintf+0x1d0>
    6ed0:	21 c0       	rjmp	.+66     	; 0x6f14 <vfprintf+0x166>
    6ed2:	f8 01       	movw	r30, r16
    6ed4:	80 81       	ld	r24, Z
    6ed6:	89 83       	std	Y+1, r24	; 0x01
    6ed8:	0e 5f       	subi	r16, 0xFE	; 254
    6eda:	1f 4f       	sbci	r17, 0xFF	; 255
    6edc:	44 24       	eor	r4, r4
    6ede:	43 94       	inc	r4
    6ee0:	51 2c       	mov	r5, r1
    6ee2:	54 01       	movw	r10, r8
    6ee4:	14 c0       	rjmp	.+40     	; 0x6f0e <vfprintf+0x160>
    6ee6:	38 01       	movw	r6, r16
    6ee8:	f2 e0       	ldi	r31, 0x02	; 2
    6eea:	6f 0e       	add	r6, r31
    6eec:	71 1c       	adc	r7, r1
    6eee:	f8 01       	movw	r30, r16
    6ef0:	a0 80       	ld	r10, Z
    6ef2:	b1 80       	ldd	r11, Z+1	; 0x01
    6ef4:	26 ff       	sbrs	r18, 6
    6ef6:	03 c0       	rjmp	.+6      	; 0x6efe <vfprintf+0x150>
    6ef8:	65 2d       	mov	r22, r5
    6efa:	70 e0       	ldi	r23, 0x00	; 0
    6efc:	02 c0       	rjmp	.+4      	; 0x6f02 <vfprintf+0x154>
    6efe:	6f ef       	ldi	r22, 0xFF	; 255
    6f00:	7f ef       	ldi	r23, 0xFF	; 255
    6f02:	c5 01       	movw	r24, r10
    6f04:	2c 87       	std	Y+12, r18	; 0x0c
    6f06:	26 d4       	rcall	.+2124   	; 0x7754 <strnlen>
    6f08:	2c 01       	movw	r4, r24
    6f0a:	83 01       	movw	r16, r6
    6f0c:	2c 85       	ldd	r18, Y+12	; 0x0c
    6f0e:	2f 77       	andi	r18, 0x7F	; 127
    6f10:	22 2e       	mov	r2, r18
    6f12:	16 c0       	rjmp	.+44     	; 0x6f40 <vfprintf+0x192>
    6f14:	38 01       	movw	r6, r16
    6f16:	f2 e0       	ldi	r31, 0x02	; 2
    6f18:	6f 0e       	add	r6, r31
    6f1a:	71 1c       	adc	r7, r1
    6f1c:	f8 01       	movw	r30, r16
    6f1e:	a0 80       	ld	r10, Z
    6f20:	b1 80       	ldd	r11, Z+1	; 0x01
    6f22:	26 ff       	sbrs	r18, 6
    6f24:	03 c0       	rjmp	.+6      	; 0x6f2c <vfprintf+0x17e>
    6f26:	65 2d       	mov	r22, r5
    6f28:	70 e0       	ldi	r23, 0x00	; 0
    6f2a:	02 c0       	rjmp	.+4      	; 0x6f30 <vfprintf+0x182>
    6f2c:	6f ef       	ldi	r22, 0xFF	; 255
    6f2e:	7f ef       	ldi	r23, 0xFF	; 255
    6f30:	c5 01       	movw	r24, r10
    6f32:	2c 87       	std	Y+12, r18	; 0x0c
    6f34:	04 d4       	rcall	.+2056   	; 0x773e <strnlen_P>
    6f36:	2c 01       	movw	r4, r24
    6f38:	2c 85       	ldd	r18, Y+12	; 0x0c
    6f3a:	20 68       	ori	r18, 0x80	; 128
    6f3c:	22 2e       	mov	r2, r18
    6f3e:	83 01       	movw	r16, r6
    6f40:	23 fc       	sbrc	r2, 3
    6f42:	19 c0       	rjmp	.+50     	; 0x6f76 <vfprintf+0x1c8>
    6f44:	83 2d       	mov	r24, r3
    6f46:	90 e0       	ldi	r25, 0x00	; 0
    6f48:	48 16       	cp	r4, r24
    6f4a:	59 06       	cpc	r5, r25
    6f4c:	a0 f4       	brcc	.+40     	; 0x6f76 <vfprintf+0x1c8>
    6f4e:	b7 01       	movw	r22, r14
    6f50:	80 e2       	ldi	r24, 0x20	; 32
    6f52:	90 e0       	ldi	r25, 0x00	; 0
    6f54:	48 d4       	rcall	.+2192   	; 0x77e6 <fputc>
    6f56:	3a 94       	dec	r3
    6f58:	f5 cf       	rjmp	.-22     	; 0x6f44 <vfprintf+0x196>
    6f5a:	f5 01       	movw	r30, r10
    6f5c:	27 fc       	sbrc	r2, 7
    6f5e:	85 91       	lpm	r24, Z+
    6f60:	27 fe       	sbrs	r2, 7
    6f62:	81 91       	ld	r24, Z+
    6f64:	5f 01       	movw	r10, r30
    6f66:	b7 01       	movw	r22, r14
    6f68:	90 e0       	ldi	r25, 0x00	; 0
    6f6a:	3d d4       	rcall	.+2170   	; 0x77e6 <fputc>
    6f6c:	31 10       	cpse	r3, r1
    6f6e:	3a 94       	dec	r3
    6f70:	f1 e0       	ldi	r31, 0x01	; 1
    6f72:	4f 1a       	sub	r4, r31
    6f74:	51 08       	sbc	r5, r1
    6f76:	41 14       	cp	r4, r1
    6f78:	51 04       	cpc	r5, r1
    6f7a:	79 f7       	brne	.-34     	; 0x6f5a <vfprintf+0x1ac>
    6f7c:	de c0       	rjmp	.+444    	; 0x713a <vfprintf+0x38c>
    6f7e:	84 36       	cpi	r24, 0x64	; 100
    6f80:	11 f0       	breq	.+4      	; 0x6f86 <vfprintf+0x1d8>
    6f82:	89 36       	cpi	r24, 0x69	; 105
    6f84:	31 f5       	brne	.+76     	; 0x6fd2 <vfprintf+0x224>
    6f86:	f8 01       	movw	r30, r16
    6f88:	27 ff       	sbrs	r18, 7
    6f8a:	07 c0       	rjmp	.+14     	; 0x6f9a <vfprintf+0x1ec>
    6f8c:	60 81       	ld	r22, Z
    6f8e:	71 81       	ldd	r23, Z+1	; 0x01
    6f90:	82 81       	ldd	r24, Z+2	; 0x02
    6f92:	93 81       	ldd	r25, Z+3	; 0x03
    6f94:	0c 5f       	subi	r16, 0xFC	; 252
    6f96:	1f 4f       	sbci	r17, 0xFF	; 255
    6f98:	08 c0       	rjmp	.+16     	; 0x6faa <vfprintf+0x1fc>
    6f9a:	60 81       	ld	r22, Z
    6f9c:	71 81       	ldd	r23, Z+1	; 0x01
    6f9e:	07 2e       	mov	r0, r23
    6fa0:	00 0c       	add	r0, r0
    6fa2:	88 0b       	sbc	r24, r24
    6fa4:	99 0b       	sbc	r25, r25
    6fa6:	0e 5f       	subi	r16, 0xFE	; 254
    6fa8:	1f 4f       	sbci	r17, 0xFF	; 255
    6faa:	2f 76       	andi	r18, 0x6F	; 111
    6fac:	72 2e       	mov	r7, r18
    6fae:	97 ff       	sbrs	r25, 7
    6fb0:	09 c0       	rjmp	.+18     	; 0x6fc4 <vfprintf+0x216>
    6fb2:	90 95       	com	r25
    6fb4:	80 95       	com	r24
    6fb6:	70 95       	com	r23
    6fb8:	61 95       	neg	r22
    6fba:	7f 4f       	sbci	r23, 0xFF	; 255
    6fbc:	8f 4f       	sbci	r24, 0xFF	; 255
    6fbe:	9f 4f       	sbci	r25, 0xFF	; 255
    6fc0:	20 68       	ori	r18, 0x80	; 128
    6fc2:	72 2e       	mov	r7, r18
    6fc4:	2a e0       	ldi	r18, 0x0A	; 10
    6fc6:	30 e0       	ldi	r19, 0x00	; 0
    6fc8:	a4 01       	movw	r20, r8
    6fca:	5e d4       	rcall	.+2236   	; 0x7888 <__ultoa_invert>
    6fcc:	a8 2e       	mov	r10, r24
    6fce:	a8 18       	sub	r10, r8
    6fd0:	43 c0       	rjmp	.+134    	; 0x7058 <vfprintf+0x2aa>
    6fd2:	85 37       	cpi	r24, 0x75	; 117
    6fd4:	29 f4       	brne	.+10     	; 0x6fe0 <vfprintf+0x232>
    6fd6:	2f 7e       	andi	r18, 0xEF	; 239
    6fd8:	b2 2e       	mov	r11, r18
    6fda:	2a e0       	ldi	r18, 0x0A	; 10
    6fdc:	30 e0       	ldi	r19, 0x00	; 0
    6fde:	25 c0       	rjmp	.+74     	; 0x702a <vfprintf+0x27c>
    6fe0:	f2 2f       	mov	r31, r18
    6fe2:	f9 7f       	andi	r31, 0xF9	; 249
    6fe4:	bf 2e       	mov	r11, r31
    6fe6:	8f 36       	cpi	r24, 0x6F	; 111
    6fe8:	c1 f0       	breq	.+48     	; 0x701a <vfprintf+0x26c>
    6fea:	18 f4       	brcc	.+6      	; 0x6ff2 <vfprintf+0x244>
    6fec:	88 35       	cpi	r24, 0x58	; 88
    6fee:	79 f0       	breq	.+30     	; 0x700e <vfprintf+0x260>
    6ff0:	ad c0       	rjmp	.+346    	; 0x714c <vfprintf+0x39e>
    6ff2:	80 37       	cpi	r24, 0x70	; 112
    6ff4:	19 f0       	breq	.+6      	; 0x6ffc <vfprintf+0x24e>
    6ff6:	88 37       	cpi	r24, 0x78	; 120
    6ff8:	21 f0       	breq	.+8      	; 0x7002 <vfprintf+0x254>
    6ffa:	a8 c0       	rjmp	.+336    	; 0x714c <vfprintf+0x39e>
    6ffc:	2f 2f       	mov	r18, r31
    6ffe:	20 61       	ori	r18, 0x10	; 16
    7000:	b2 2e       	mov	r11, r18
    7002:	b4 fe       	sbrs	r11, 4
    7004:	0d c0       	rjmp	.+26     	; 0x7020 <vfprintf+0x272>
    7006:	8b 2d       	mov	r24, r11
    7008:	84 60       	ori	r24, 0x04	; 4
    700a:	b8 2e       	mov	r11, r24
    700c:	09 c0       	rjmp	.+18     	; 0x7020 <vfprintf+0x272>
    700e:	24 ff       	sbrs	r18, 4
    7010:	0a c0       	rjmp	.+20     	; 0x7026 <vfprintf+0x278>
    7012:	9f 2f       	mov	r25, r31
    7014:	96 60       	ori	r25, 0x06	; 6
    7016:	b9 2e       	mov	r11, r25
    7018:	06 c0       	rjmp	.+12     	; 0x7026 <vfprintf+0x278>
    701a:	28 e0       	ldi	r18, 0x08	; 8
    701c:	30 e0       	ldi	r19, 0x00	; 0
    701e:	05 c0       	rjmp	.+10     	; 0x702a <vfprintf+0x27c>
    7020:	20 e1       	ldi	r18, 0x10	; 16
    7022:	30 e0       	ldi	r19, 0x00	; 0
    7024:	02 c0       	rjmp	.+4      	; 0x702a <vfprintf+0x27c>
    7026:	20 e1       	ldi	r18, 0x10	; 16
    7028:	32 e0       	ldi	r19, 0x02	; 2
    702a:	f8 01       	movw	r30, r16
    702c:	b7 fe       	sbrs	r11, 7
    702e:	07 c0       	rjmp	.+14     	; 0x703e <vfprintf+0x290>
    7030:	60 81       	ld	r22, Z
    7032:	71 81       	ldd	r23, Z+1	; 0x01
    7034:	82 81       	ldd	r24, Z+2	; 0x02
    7036:	93 81       	ldd	r25, Z+3	; 0x03
    7038:	0c 5f       	subi	r16, 0xFC	; 252
    703a:	1f 4f       	sbci	r17, 0xFF	; 255
    703c:	06 c0       	rjmp	.+12     	; 0x704a <vfprintf+0x29c>
    703e:	60 81       	ld	r22, Z
    7040:	71 81       	ldd	r23, Z+1	; 0x01
    7042:	80 e0       	ldi	r24, 0x00	; 0
    7044:	90 e0       	ldi	r25, 0x00	; 0
    7046:	0e 5f       	subi	r16, 0xFE	; 254
    7048:	1f 4f       	sbci	r17, 0xFF	; 255
    704a:	a4 01       	movw	r20, r8
    704c:	1d d4       	rcall	.+2106   	; 0x7888 <__ultoa_invert>
    704e:	a8 2e       	mov	r10, r24
    7050:	a8 18       	sub	r10, r8
    7052:	fb 2d       	mov	r31, r11
    7054:	ff 77       	andi	r31, 0x7F	; 127
    7056:	7f 2e       	mov	r7, r31
    7058:	76 fe       	sbrs	r7, 6
    705a:	0b c0       	rjmp	.+22     	; 0x7072 <vfprintf+0x2c4>
    705c:	37 2d       	mov	r19, r7
    705e:	3e 7f       	andi	r19, 0xFE	; 254
    7060:	a5 14       	cp	r10, r5
    7062:	50 f4       	brcc	.+20     	; 0x7078 <vfprintf+0x2ca>
    7064:	74 fe       	sbrs	r7, 4
    7066:	0a c0       	rjmp	.+20     	; 0x707c <vfprintf+0x2ce>
    7068:	72 fc       	sbrc	r7, 2
    706a:	08 c0       	rjmp	.+16     	; 0x707c <vfprintf+0x2ce>
    706c:	37 2d       	mov	r19, r7
    706e:	3e 7e       	andi	r19, 0xEE	; 238
    7070:	05 c0       	rjmp	.+10     	; 0x707c <vfprintf+0x2ce>
    7072:	ba 2c       	mov	r11, r10
    7074:	37 2d       	mov	r19, r7
    7076:	03 c0       	rjmp	.+6      	; 0x707e <vfprintf+0x2d0>
    7078:	ba 2c       	mov	r11, r10
    707a:	01 c0       	rjmp	.+2      	; 0x707e <vfprintf+0x2d0>
    707c:	b5 2c       	mov	r11, r5
    707e:	34 ff       	sbrs	r19, 4
    7080:	0d c0       	rjmp	.+26     	; 0x709c <vfprintf+0x2ee>
    7082:	fe 01       	movw	r30, r28
    7084:	ea 0d       	add	r30, r10
    7086:	f1 1d       	adc	r31, r1
    7088:	80 81       	ld	r24, Z
    708a:	80 33       	cpi	r24, 0x30	; 48
    708c:	11 f4       	brne	.+4      	; 0x7092 <vfprintf+0x2e4>
    708e:	39 7e       	andi	r19, 0xE9	; 233
    7090:	09 c0       	rjmp	.+18     	; 0x70a4 <vfprintf+0x2f6>
    7092:	32 ff       	sbrs	r19, 2
    7094:	06 c0       	rjmp	.+12     	; 0x70a2 <vfprintf+0x2f4>
    7096:	b3 94       	inc	r11
    7098:	b3 94       	inc	r11
    709a:	04 c0       	rjmp	.+8      	; 0x70a4 <vfprintf+0x2f6>
    709c:	83 2f       	mov	r24, r19
    709e:	86 78       	andi	r24, 0x86	; 134
    70a0:	09 f0       	breq	.+2      	; 0x70a4 <vfprintf+0x2f6>
    70a2:	b3 94       	inc	r11
    70a4:	33 fd       	sbrc	r19, 3
    70a6:	12 c0       	rjmp	.+36     	; 0x70cc <vfprintf+0x31e>
    70a8:	30 ff       	sbrs	r19, 0
    70aa:	06 c0       	rjmp	.+12     	; 0x70b8 <vfprintf+0x30a>
    70ac:	5a 2c       	mov	r5, r10
    70ae:	b3 14       	cp	r11, r3
    70b0:	18 f4       	brcc	.+6      	; 0x70b8 <vfprintf+0x30a>
    70b2:	53 0c       	add	r5, r3
    70b4:	5b 18       	sub	r5, r11
    70b6:	b3 2c       	mov	r11, r3
    70b8:	b3 14       	cp	r11, r3
    70ba:	60 f4       	brcc	.+24     	; 0x70d4 <vfprintf+0x326>
    70bc:	b7 01       	movw	r22, r14
    70be:	80 e2       	ldi	r24, 0x20	; 32
    70c0:	90 e0       	ldi	r25, 0x00	; 0
    70c2:	3c 87       	std	Y+12, r19	; 0x0c
    70c4:	90 d3       	rcall	.+1824   	; 0x77e6 <fputc>
    70c6:	b3 94       	inc	r11
    70c8:	3c 85       	ldd	r19, Y+12	; 0x0c
    70ca:	f6 cf       	rjmp	.-20     	; 0x70b8 <vfprintf+0x30a>
    70cc:	b3 14       	cp	r11, r3
    70ce:	10 f4       	brcc	.+4      	; 0x70d4 <vfprintf+0x326>
    70d0:	3b 18       	sub	r3, r11
    70d2:	01 c0       	rjmp	.+2      	; 0x70d6 <vfprintf+0x328>
    70d4:	31 2c       	mov	r3, r1
    70d6:	34 ff       	sbrs	r19, 4
    70d8:	11 c0       	rjmp	.+34     	; 0x70fc <vfprintf+0x34e>
    70da:	b7 01       	movw	r22, r14
    70dc:	80 e3       	ldi	r24, 0x30	; 48
    70de:	90 e0       	ldi	r25, 0x00	; 0
    70e0:	3c 87       	std	Y+12, r19	; 0x0c
    70e2:	81 d3       	rcall	.+1794   	; 0x77e6 <fputc>
    70e4:	3c 85       	ldd	r19, Y+12	; 0x0c
    70e6:	32 ff       	sbrs	r19, 2
    70e8:	16 c0       	rjmp	.+44     	; 0x7116 <vfprintf+0x368>
    70ea:	31 fd       	sbrc	r19, 1
    70ec:	03 c0       	rjmp	.+6      	; 0x70f4 <vfprintf+0x346>
    70ee:	88 e7       	ldi	r24, 0x78	; 120
    70f0:	90 e0       	ldi	r25, 0x00	; 0
    70f2:	02 c0       	rjmp	.+4      	; 0x70f8 <vfprintf+0x34a>
    70f4:	88 e5       	ldi	r24, 0x58	; 88
    70f6:	90 e0       	ldi	r25, 0x00	; 0
    70f8:	b7 01       	movw	r22, r14
    70fa:	0c c0       	rjmp	.+24     	; 0x7114 <vfprintf+0x366>
    70fc:	83 2f       	mov	r24, r19
    70fe:	86 78       	andi	r24, 0x86	; 134
    7100:	51 f0       	breq	.+20     	; 0x7116 <vfprintf+0x368>
    7102:	31 ff       	sbrs	r19, 1
    7104:	02 c0       	rjmp	.+4      	; 0x710a <vfprintf+0x35c>
    7106:	8b e2       	ldi	r24, 0x2B	; 43
    7108:	01 c0       	rjmp	.+2      	; 0x710c <vfprintf+0x35e>
    710a:	80 e2       	ldi	r24, 0x20	; 32
    710c:	37 fd       	sbrc	r19, 7
    710e:	8d e2       	ldi	r24, 0x2D	; 45
    7110:	b7 01       	movw	r22, r14
    7112:	90 e0       	ldi	r25, 0x00	; 0
    7114:	68 d3       	rcall	.+1744   	; 0x77e6 <fputc>
    7116:	a5 14       	cp	r10, r5
    7118:	30 f4       	brcc	.+12     	; 0x7126 <vfprintf+0x378>
    711a:	b7 01       	movw	r22, r14
    711c:	80 e3       	ldi	r24, 0x30	; 48
    711e:	90 e0       	ldi	r25, 0x00	; 0
    7120:	62 d3       	rcall	.+1732   	; 0x77e6 <fputc>
    7122:	5a 94       	dec	r5
    7124:	f8 cf       	rjmp	.-16     	; 0x7116 <vfprintf+0x368>
    7126:	aa 94       	dec	r10
    7128:	f4 01       	movw	r30, r8
    712a:	ea 0d       	add	r30, r10
    712c:	f1 1d       	adc	r31, r1
    712e:	80 81       	ld	r24, Z
    7130:	b7 01       	movw	r22, r14
    7132:	90 e0       	ldi	r25, 0x00	; 0
    7134:	58 d3       	rcall	.+1712   	; 0x77e6 <fputc>
    7136:	a1 10       	cpse	r10, r1
    7138:	f6 cf       	rjmp	.-20     	; 0x7126 <vfprintf+0x378>
    713a:	33 20       	and	r3, r3
    713c:	09 f4       	brne	.+2      	; 0x7140 <vfprintf+0x392>
    713e:	5d ce       	rjmp	.-838    	; 0x6dfa <vfprintf+0x4c>
    7140:	b7 01       	movw	r22, r14
    7142:	80 e2       	ldi	r24, 0x20	; 32
    7144:	90 e0       	ldi	r25, 0x00	; 0
    7146:	4f d3       	rcall	.+1694   	; 0x77e6 <fputc>
    7148:	3a 94       	dec	r3
    714a:	f7 cf       	rjmp	.-18     	; 0x713a <vfprintf+0x38c>
    714c:	f7 01       	movw	r30, r14
    714e:	86 81       	ldd	r24, Z+6	; 0x06
    7150:	97 81       	ldd	r25, Z+7	; 0x07
    7152:	02 c0       	rjmp	.+4      	; 0x7158 <vfprintf+0x3aa>
    7154:	8f ef       	ldi	r24, 0xFF	; 255
    7156:	9f ef       	ldi	r25, 0xFF	; 255
    7158:	2c 96       	adiw	r28, 0x0c	; 12
    715a:	0f b6       	in	r0, 0x3f	; 63
    715c:	f8 94       	cli
    715e:	de bf       	out	0x3e, r29	; 62
    7160:	0f be       	out	0x3f, r0	; 63
    7162:	cd bf       	out	0x3d, r28	; 61
    7164:	df 91       	pop	r29
    7166:	cf 91       	pop	r28
    7168:	1f 91       	pop	r17
    716a:	0f 91       	pop	r16
    716c:	ff 90       	pop	r15
    716e:	ef 90       	pop	r14
    7170:	df 90       	pop	r13
    7172:	cf 90       	pop	r12
    7174:	bf 90       	pop	r11
    7176:	af 90       	pop	r10
    7178:	9f 90       	pop	r9
    717a:	8f 90       	pop	r8
    717c:	7f 90       	pop	r7
    717e:	6f 90       	pop	r6
    7180:	5f 90       	pop	r5
    7182:	4f 90       	pop	r4
    7184:	3f 90       	pop	r3
    7186:	2f 90       	pop	r2
    7188:	08 95       	ret

0000718a <putval>:
    718a:	20 fd       	sbrc	r18, 0
    718c:	09 c0       	rjmp	.+18     	; 0x71a0 <putval+0x16>
    718e:	fc 01       	movw	r30, r24
    7190:	23 fd       	sbrc	r18, 3
    7192:	05 c0       	rjmp	.+10     	; 0x719e <putval+0x14>
    7194:	22 ff       	sbrs	r18, 2
    7196:	02 c0       	rjmp	.+4      	; 0x719c <putval+0x12>
    7198:	73 83       	std	Z+3, r23	; 0x03
    719a:	62 83       	std	Z+2, r22	; 0x02
    719c:	51 83       	std	Z+1, r21	; 0x01
    719e:	40 83       	st	Z, r20
    71a0:	08 95       	ret

000071a2 <mulacc>:
    71a2:	44 fd       	sbrc	r20, 4
    71a4:	10 c0       	rjmp	.+32     	; 0x71c6 <mulacc+0x24>
    71a6:	46 fd       	sbrc	r20, 6
    71a8:	10 c0       	rjmp	.+32     	; 0x71ca <mulacc+0x28>
    71aa:	db 01       	movw	r26, r22
    71ac:	fc 01       	movw	r30, r24
    71ae:	aa 0f       	add	r26, r26
    71b0:	bb 1f       	adc	r27, r27
    71b2:	ee 1f       	adc	r30, r30
    71b4:	ff 1f       	adc	r31, r31
    71b6:	10 94       	com	r1
    71b8:	d1 f7       	brne	.-12     	; 0x71ae <mulacc+0xc>
    71ba:	6a 0f       	add	r22, r26
    71bc:	7b 1f       	adc	r23, r27
    71be:	8e 1f       	adc	r24, r30
    71c0:	9f 1f       	adc	r25, r31
    71c2:	31 e0       	ldi	r19, 0x01	; 1
    71c4:	03 c0       	rjmp	.+6      	; 0x71cc <mulacc+0x2a>
    71c6:	33 e0       	ldi	r19, 0x03	; 3
    71c8:	01 c0       	rjmp	.+2      	; 0x71cc <mulacc+0x2a>
    71ca:	34 e0       	ldi	r19, 0x04	; 4
    71cc:	66 0f       	add	r22, r22
    71ce:	77 1f       	adc	r23, r23
    71d0:	88 1f       	adc	r24, r24
    71d2:	99 1f       	adc	r25, r25
    71d4:	31 50       	subi	r19, 0x01	; 1
    71d6:	d1 f7       	brne	.-12     	; 0x71cc <mulacc+0x2a>
    71d8:	62 0f       	add	r22, r18
    71da:	71 1d       	adc	r23, r1
    71dc:	81 1d       	adc	r24, r1
    71de:	91 1d       	adc	r25, r1
    71e0:	08 95       	ret

000071e2 <skip_spaces>:
    71e2:	0f 93       	push	r16
    71e4:	1f 93       	push	r17
    71e6:	cf 93       	push	r28
    71e8:	df 93       	push	r29
    71ea:	8c 01       	movw	r16, r24
    71ec:	c8 01       	movw	r24, r16
    71ee:	bd d2       	rcall	.+1402   	; 0x776a <fgetc>
    71f0:	ec 01       	movw	r28, r24
    71f2:	97 fd       	sbrc	r25, 7
    71f4:	06 c0       	rjmp	.+12     	; 0x7202 <skip_spaces+0x20>
    71f6:	90 d2       	rcall	.+1312   	; 0x7718 <isspace>
    71f8:	89 2b       	or	r24, r25
    71fa:	c1 f7       	brne	.-16     	; 0x71ec <skip_spaces+0xa>
    71fc:	b8 01       	movw	r22, r16
    71fe:	ce 01       	movw	r24, r28
    7200:	2a d3       	rcall	.+1620   	; 0x7856 <ungetc>
    7202:	ce 01       	movw	r24, r28
    7204:	df 91       	pop	r29
    7206:	cf 91       	pop	r28
    7208:	1f 91       	pop	r17
    720a:	0f 91       	pop	r16
    720c:	08 95       	ret

0000720e <conv_int>:
    720e:	8f 92       	push	r8
    7210:	9f 92       	push	r9
    7212:	af 92       	push	r10
    7214:	bf 92       	push	r11
    7216:	cf 92       	push	r12
    7218:	df 92       	push	r13
    721a:	ef 92       	push	r14
    721c:	ff 92       	push	r15
    721e:	0f 93       	push	r16
    7220:	1f 93       	push	r17
    7222:	cf 93       	push	r28
    7224:	df 93       	push	r29
    7226:	1f 92       	push	r1
    7228:	cd b7       	in	r28, 0x3d	; 61
    722a:	de b7       	in	r29, 0x3e	; 62
    722c:	8c 01       	movw	r16, r24
    722e:	c6 2e       	mov	r12, r22
    7230:	7a 01       	movw	r14, r20
    7232:	29 83       	std	Y+1, r18	; 0x01
    7234:	9a d2       	rcall	.+1332   	; 0x776a <fgetc>
    7236:	ac 01       	movw	r20, r24
    7238:	55 27       	eor	r21, r21
    723a:	29 81       	ldd	r18, Y+1	; 0x01
    723c:	4b 32       	cpi	r20, 0x2B	; 43
    723e:	51 05       	cpc	r21, r1
    7240:	21 f0       	breq	.+8      	; 0x724a <conv_int+0x3c>
    7242:	4d 32       	cpi	r20, 0x2D	; 45
    7244:	51 05       	cpc	r21, r1
    7246:	61 f4       	brne	.+24     	; 0x7260 <conv_int+0x52>
    7248:	20 68       	ori	r18, 0x80	; 128
    724a:	ca 94       	dec	r12
    724c:	c1 10       	cpse	r12, r1
    724e:	02 c0       	rjmp	.+4      	; 0x7254 <conv_int+0x46>
    7250:	80 e0       	ldi	r24, 0x00	; 0
    7252:	6f c0       	rjmp	.+222    	; 0x7332 <conv_int+0x124>
    7254:	c8 01       	movw	r24, r16
    7256:	29 83       	std	Y+1, r18	; 0x01
    7258:	88 d2       	rcall	.+1296   	; 0x776a <fgetc>
    725a:	29 81       	ldd	r18, Y+1	; 0x01
    725c:	97 fd       	sbrc	r25, 7
    725e:	f8 cf       	rjmp	.-16     	; 0x7250 <conv_int+0x42>
    7260:	32 2f       	mov	r19, r18
    7262:	3d 7f       	andi	r19, 0xFD	; 253
    7264:	d3 2e       	mov	r13, r19
    7266:	32 2f       	mov	r19, r18
    7268:	30 73       	andi	r19, 0x30	; 48
    726a:	39 f5       	brne	.+78     	; 0x72ba <conv_int+0xac>
    726c:	80 33       	cpi	r24, 0x30	; 48
    726e:	29 f5       	brne	.+74     	; 0x72ba <conv_int+0xac>
    7270:	bb 24       	eor	r11, r11
    7272:	ba 94       	dec	r11
    7274:	bc 0c       	add	r11, r12
    7276:	09 f4       	brne	.+2      	; 0x727a <conv_int+0x6c>
    7278:	49 c0       	rjmp	.+146    	; 0x730c <conv_int+0xfe>
    727a:	c8 01       	movw	r24, r16
    727c:	29 83       	std	Y+1, r18	; 0x01
    727e:	75 d2       	rcall	.+1258   	; 0x776a <fgetc>
    7280:	29 81       	ldd	r18, Y+1	; 0x01
    7282:	97 fd       	sbrc	r25, 7
    7284:	43 c0       	rjmp	.+134    	; 0x730c <conv_int+0xfe>
    7286:	38 2f       	mov	r19, r24
    7288:	3f 7d       	andi	r19, 0xDF	; 223
    728a:	38 35       	cpi	r19, 0x58	; 88
    728c:	61 f4       	brne	.+24     	; 0x72a6 <conv_int+0x98>
    728e:	8d 2d       	mov	r24, r13
    7290:	82 64       	ori	r24, 0x42	; 66
    7292:	d8 2e       	mov	r13, r24
    7294:	ca 94       	dec	r12
    7296:	ca 94       	dec	r12
    7298:	cc 20       	and	r12, r12
    729a:	c1 f1       	breq	.+112    	; 0x730c <conv_int+0xfe>
    729c:	c8 01       	movw	r24, r16
    729e:	65 d2       	rcall	.+1226   	; 0x776a <fgetc>
    72a0:	97 ff       	sbrs	r25, 7
    72a2:	0b c0       	rjmp	.+22     	; 0x72ba <conv_int+0xac>
    72a4:	33 c0       	rjmp	.+102    	; 0x730c <conv_int+0xfe>
    72a6:	26 ff       	sbrs	r18, 6
    72a8:	04 c0       	rjmp	.+8      	; 0x72b2 <conv_int+0xa4>
    72aa:	2d 2d       	mov	r18, r13
    72ac:	22 60       	ori	r18, 0x02	; 2
    72ae:	d2 2e       	mov	r13, r18
    72b0:	03 c0       	rjmp	.+6      	; 0x72b8 <conv_int+0xaa>
    72b2:	3d 2d       	mov	r19, r13
    72b4:	32 61       	ori	r19, 0x12	; 18
    72b6:	d3 2e       	mov	r13, r19
    72b8:	cb 2c       	mov	r12, r11
    72ba:	81 2c       	mov	r8, r1
    72bc:	91 2c       	mov	r9, r1
    72be:	54 01       	movw	r10, r8
    72c0:	20 ed       	ldi	r18, 0xD0	; 208
    72c2:	28 0f       	add	r18, r24
    72c4:	28 30       	cpi	r18, 0x08	; 8
    72c6:	78 f0       	brcs	.+30     	; 0x72e6 <conv_int+0xd8>
    72c8:	d4 fe       	sbrs	r13, 4
    72ca:	03 c0       	rjmp	.+6      	; 0x72d2 <conv_int+0xc4>
    72cc:	b8 01       	movw	r22, r16
    72ce:	c3 d2       	rcall	.+1414   	; 0x7856 <ungetc>
    72d0:	1a c0       	rjmp	.+52     	; 0x7306 <conv_int+0xf8>
    72d2:	2a 30       	cpi	r18, 0x0A	; 10
    72d4:	40 f0       	brcs	.+16     	; 0x72e6 <conv_int+0xd8>
    72d6:	d6 fe       	sbrs	r13, 6
    72d8:	f9 cf       	rjmp	.-14     	; 0x72cc <conv_int+0xbe>
    72da:	2f 7d       	andi	r18, 0xDF	; 223
    72dc:	3f ee       	ldi	r19, 0xEF	; 239
    72de:	32 0f       	add	r19, r18
    72e0:	36 30       	cpi	r19, 0x06	; 6
    72e2:	a0 f7       	brcc	.-24     	; 0x72cc <conv_int+0xbe>
    72e4:	27 50       	subi	r18, 0x07	; 7
    72e6:	4d 2d       	mov	r20, r13
    72e8:	c5 01       	movw	r24, r10
    72ea:	b4 01       	movw	r22, r8
    72ec:	5a df       	rcall	.-332    	; 0x71a2 <mulacc>
    72ee:	4b 01       	movw	r8, r22
    72f0:	5c 01       	movw	r10, r24
    72f2:	8d 2d       	mov	r24, r13
    72f4:	82 60       	ori	r24, 0x02	; 2
    72f6:	d8 2e       	mov	r13, r24
    72f8:	ca 94       	dec	r12
    72fa:	cc 20       	and	r12, r12
    72fc:	51 f0       	breq	.+20     	; 0x7312 <conv_int+0x104>
    72fe:	c8 01       	movw	r24, r16
    7300:	34 d2       	rcall	.+1128   	; 0x776a <fgetc>
    7302:	97 ff       	sbrs	r25, 7
    7304:	dd cf       	rjmp	.-70     	; 0x72c0 <conv_int+0xb2>
    7306:	d1 fc       	sbrc	r13, 1
    7308:	04 c0       	rjmp	.+8      	; 0x7312 <conv_int+0x104>
    730a:	a2 cf       	rjmp	.-188    	; 0x7250 <conv_int+0x42>
    730c:	81 2c       	mov	r8, r1
    730e:	91 2c       	mov	r9, r1
    7310:	54 01       	movw	r10, r8
    7312:	d7 fe       	sbrs	r13, 7
    7314:	08 c0       	rjmp	.+16     	; 0x7326 <conv_int+0x118>
    7316:	b0 94       	com	r11
    7318:	a0 94       	com	r10
    731a:	90 94       	com	r9
    731c:	80 94       	com	r8
    731e:	81 1c       	adc	r8, r1
    7320:	91 1c       	adc	r9, r1
    7322:	a1 1c       	adc	r10, r1
    7324:	b1 1c       	adc	r11, r1
    7326:	2d 2d       	mov	r18, r13
    7328:	b5 01       	movw	r22, r10
    732a:	a4 01       	movw	r20, r8
    732c:	c7 01       	movw	r24, r14
    732e:	2d df       	rcall	.-422    	; 0x718a <putval>
    7330:	81 e0       	ldi	r24, 0x01	; 1
    7332:	0f 90       	pop	r0
    7334:	df 91       	pop	r29
    7336:	cf 91       	pop	r28
    7338:	1f 91       	pop	r17
    733a:	0f 91       	pop	r16
    733c:	ff 90       	pop	r15
    733e:	ef 90       	pop	r14
    7340:	df 90       	pop	r13
    7342:	cf 90       	pop	r12
    7344:	bf 90       	pop	r11
    7346:	af 90       	pop	r10
    7348:	9f 90       	pop	r9
    734a:	8f 90       	pop	r8
    734c:	08 95       	ret

0000734e <conv_brk>:
    734e:	6f 92       	push	r6
    7350:	7f 92       	push	r7
    7352:	8f 92       	push	r8
    7354:	9f 92       	push	r9
    7356:	af 92       	push	r10
    7358:	bf 92       	push	r11
    735a:	cf 92       	push	r12
    735c:	df 92       	push	r13
    735e:	ef 92       	push	r14
    7360:	ff 92       	push	r15
    7362:	0f 93       	push	r16
    7364:	1f 93       	push	r17
    7366:	cf 93       	push	r28
    7368:	df 93       	push	r29
    736a:	cd b7       	in	r28, 0x3d	; 61
    736c:	de b7       	in	r29, 0x3e	; 62
    736e:	a1 97       	sbiw	r28, 0x21	; 33
    7370:	0f b6       	in	r0, 0x3f	; 63
    7372:	f8 94       	cli
    7374:	de bf       	out	0x3e, r29	; 62
    7376:	0f be       	out	0x3f, r0	; 63
    7378:	cd bf       	out	0x3d, r28	; 61
    737a:	5c 01       	movw	r10, r24
    737c:	7a 01       	movw	r14, r20
    737e:	ce 01       	movw	r24, r28
    7380:	01 96       	adiw	r24, 0x01	; 1
    7382:	6c 01       	movw	r12, r24
    7384:	80 e2       	ldi	r24, 0x20	; 32
    7386:	f6 01       	movw	r30, r12
    7388:	11 92       	st	Z+, r1
    738a:	8a 95       	dec	r24
    738c:	e9 f7       	brne	.-6      	; 0x7388 <conv_brk+0x3a>
    738e:	f5 01       	movw	r30, r10
    7390:	83 80       	ldd	r8, Z+3	; 0x03
    7392:	40 e0       	ldi	r20, 0x00	; 0
    7394:	50 e0       	ldi	r21, 0x00	; 0
    7396:	91 2c       	mov	r9, r1
    7398:	71 2c       	mov	r7, r1
    739a:	70 e0       	ldi	r23, 0x00	; 0
    739c:	a1 e0       	ldi	r26, 0x01	; 1
    739e:	b0 e0       	ldi	r27, 0x00	; 0
    73a0:	f9 01       	movw	r30, r18
    73a2:	83 fc       	sbrc	r8, 3
    73a4:	85 91       	lpm	r24, Z+
    73a6:	83 fe       	sbrs	r8, 3
    73a8:	81 91       	ld	r24, Z+
    73aa:	8f 01       	movw	r16, r30
    73ac:	98 2f       	mov	r25, r24
    73ae:	9f 01       	movw	r18, r30
    73b0:	81 11       	cpse	r24, r1
    73b2:	03 c0       	rjmp	.+6      	; 0x73ba <conv_brk+0x6c>
    73b4:	80 e0       	ldi	r24, 0x00	; 0
    73b6:	90 e0       	ldi	r25, 0x00	; 0
    73b8:	7a c0       	rjmp	.+244    	; 0x74ae <conv_brk+0x160>
    73ba:	8e 35       	cpi	r24, 0x5E	; 94
    73bc:	19 f4       	brne	.+6      	; 0x73c4 <conv_brk+0x76>
    73be:	41 15       	cp	r20, r1
    73c0:	51 05       	cpc	r21, r1
    73c2:	49 f1       	breq	.+82     	; 0x7416 <conv_brk+0xc8>
    73c4:	e7 2f       	mov	r30, r23
    73c6:	f0 e0       	ldi	r31, 0x00	; 0
    73c8:	e4 17       	cp	r30, r20
    73ca:	f5 07       	cpc	r31, r21
    73cc:	3c f4       	brge	.+14     	; 0x73dc <conv_brk+0x8e>
    73ce:	8d 35       	cpi	r24, 0x5D	; 93
    73d0:	59 f1       	breq	.+86     	; 0x7428 <conv_brk+0xda>
    73d2:	8d 32       	cpi	r24, 0x2D	; 45
    73d4:	19 f4       	brne	.+6      	; 0x73dc <conv_brk+0x8e>
    73d6:	77 20       	and	r7, r7
    73d8:	01 f1       	breq	.+64     	; 0x741a <conv_brk+0xcc>
    73da:	03 c0       	rjmp	.+6      	; 0x73e2 <conv_brk+0x94>
    73dc:	71 10       	cpse	r7, r1
    73de:	01 c0       	rjmp	.+2      	; 0x73e2 <conv_brk+0x94>
    73e0:	98 2e       	mov	r9, r24
    73e2:	89 2f       	mov	r24, r25
    73e4:	86 95       	lsr	r24
    73e6:	86 95       	lsr	r24
    73e8:	86 95       	lsr	r24
    73ea:	86 01       	movw	r16, r12
    73ec:	08 0f       	add	r16, r24
    73ee:	11 1d       	adc	r17, r1
    73f0:	89 2f       	mov	r24, r25
    73f2:	87 70       	andi	r24, 0x07	; 7
    73f4:	3d 01       	movw	r6, r26
    73f6:	01 c0       	rjmp	.+2      	; 0x73fa <conv_brk+0xac>
    73f8:	66 0c       	add	r6, r6
    73fa:	8a 95       	dec	r24
    73fc:	ea f7       	brpl	.-6      	; 0x73f8 <conv_brk+0xaa>
    73fe:	f8 01       	movw	r30, r16
    7400:	80 81       	ld	r24, Z
    7402:	86 29       	or	r24, r6
    7404:	80 83       	st	Z, r24
    7406:	99 15       	cp	r25, r9
    7408:	59 f0       	breq	.+22     	; 0x7420 <conv_brk+0xd2>
    740a:	99 15       	cp	r25, r9
    740c:	10 f4       	brcc	.+4      	; 0x7412 <conv_brk+0xc4>
    740e:	9f 5f       	subi	r25, 0xFF	; 255
    7410:	e8 cf       	rjmp	.-48     	; 0x73e2 <conv_brk+0x94>
    7412:	91 50       	subi	r25, 0x01	; 1
    7414:	e6 cf       	rjmp	.-52     	; 0x73e2 <conv_brk+0x94>
    7416:	71 e0       	ldi	r23, 0x01	; 1
    7418:	04 c0       	rjmp	.+8      	; 0x7422 <conv_brk+0xd4>
    741a:	77 24       	eor	r7, r7
    741c:	73 94       	inc	r7
    741e:	01 c0       	rjmp	.+2      	; 0x7422 <conv_brk+0xd4>
    7420:	71 2c       	mov	r7, r1
    7422:	4f 5f       	subi	r20, 0xFF	; 255
    7424:	5f 4f       	sbci	r21, 0xFF	; 255
    7426:	bc cf       	rjmp	.-136    	; 0x73a0 <conv_brk+0x52>
    7428:	77 20       	and	r7, r7
    742a:	19 f0       	breq	.+6      	; 0x7432 <conv_brk+0xe4>
    742c:	8e 81       	ldd	r24, Y+6	; 0x06
    742e:	80 62       	ori	r24, 0x20	; 32
    7430:	8e 83       	std	Y+6, r24	; 0x06
    7432:	71 11       	cpse	r23, r1
    7434:	03 c0       	rjmp	.+6      	; 0x743c <conv_brk+0xee>
    7436:	99 24       	eor	r9, r9
    7438:	93 94       	inc	r9
    743a:	16 c0       	rjmp	.+44     	; 0x7468 <conv_brk+0x11a>
    743c:	f6 01       	movw	r30, r12
    743e:	9e 01       	movw	r18, r28
    7440:	2f 5d       	subi	r18, 0xDF	; 223
    7442:	3f 4f       	sbci	r19, 0xFF	; 255
    7444:	80 81       	ld	r24, Z
    7446:	80 95       	com	r24
    7448:	81 93       	st	Z+, r24
    744a:	e2 17       	cp	r30, r18
    744c:	f3 07       	cpc	r31, r19
    744e:	d1 f7       	brne	.-12     	; 0x7444 <conv_brk+0xf6>
    7450:	f2 cf       	rjmp	.-28     	; 0x7436 <conv_brk+0xe8>
    7452:	e1 14       	cp	r14, r1
    7454:	f1 04       	cpc	r15, r1
    7456:	29 f0       	breq	.+10     	; 0x7462 <conv_brk+0x114>
    7458:	f7 01       	movw	r30, r14
    745a:	80 83       	st	Z, r24
    745c:	c7 01       	movw	r24, r14
    745e:	01 96       	adiw	r24, 0x01	; 1
    7460:	7c 01       	movw	r14, r24
    7462:	61 50       	subi	r22, 0x01	; 1
    7464:	91 2c       	mov	r9, r1
    7466:	e9 f0       	breq	.+58     	; 0x74a2 <conv_brk+0x154>
    7468:	c5 01       	movw	r24, r10
    746a:	69 a3       	std	Y+33, r22	; 0x21
    746c:	7e d1       	rcall	.+764    	; 0x776a <fgetc>
    746e:	69 a1       	ldd	r22, Y+33	; 0x21
    7470:	97 fd       	sbrc	r25, 7
    7472:	15 c0       	rjmp	.+42     	; 0x749e <conv_brk+0x150>
    7474:	28 2f       	mov	r18, r24
    7476:	26 95       	lsr	r18
    7478:	26 95       	lsr	r18
    747a:	26 95       	lsr	r18
    747c:	f6 01       	movw	r30, r12
    747e:	e2 0f       	add	r30, r18
    7480:	f1 1d       	adc	r31, r1
    7482:	20 81       	ld	r18, Z
    7484:	30 e0       	ldi	r19, 0x00	; 0
    7486:	ac 01       	movw	r20, r24
    7488:	47 70       	andi	r20, 0x07	; 7
    748a:	55 27       	eor	r21, r21
    748c:	02 c0       	rjmp	.+4      	; 0x7492 <conv_brk+0x144>
    748e:	35 95       	asr	r19
    7490:	27 95       	ror	r18
    7492:	4a 95       	dec	r20
    7494:	e2 f7       	brpl	.-8      	; 0x748e <conv_brk+0x140>
    7496:	20 fd       	sbrc	r18, 0
    7498:	dc cf       	rjmp	.-72     	; 0x7452 <conv_brk+0x104>
    749a:	b5 01       	movw	r22, r10
    749c:	dc d1       	rcall	.+952    	; 0x7856 <ungetc>
    749e:	91 10       	cpse	r9, r1
    74a0:	89 cf       	rjmp	.-238    	; 0x73b4 <conv_brk+0x66>
    74a2:	e1 14       	cp	r14, r1
    74a4:	f1 04       	cpc	r15, r1
    74a6:	11 f0       	breq	.+4      	; 0x74ac <conv_brk+0x15e>
    74a8:	f7 01       	movw	r30, r14
    74aa:	10 82       	st	Z, r1
    74ac:	c8 01       	movw	r24, r16
    74ae:	a1 96       	adiw	r28, 0x21	; 33
    74b0:	0f b6       	in	r0, 0x3f	; 63
    74b2:	f8 94       	cli
    74b4:	de bf       	out	0x3e, r29	; 62
    74b6:	0f be       	out	0x3f, r0	; 63
    74b8:	cd bf       	out	0x3d, r28	; 61
    74ba:	df 91       	pop	r29
    74bc:	cf 91       	pop	r28
    74be:	1f 91       	pop	r17
    74c0:	0f 91       	pop	r16
    74c2:	ff 90       	pop	r15
    74c4:	ef 90       	pop	r14
    74c6:	df 90       	pop	r13
    74c8:	cf 90       	pop	r12
    74ca:	bf 90       	pop	r11
    74cc:	af 90       	pop	r10
    74ce:	9f 90       	pop	r9
    74d0:	8f 90       	pop	r8
    74d2:	7f 90       	pop	r7
    74d4:	6f 90       	pop	r6
    74d6:	08 95       	ret

000074d8 <vfscanf>:
    74d8:	4f 92       	push	r4
    74da:	5f 92       	push	r5
    74dc:	7f 92       	push	r7
    74de:	8f 92       	push	r8
    74e0:	9f 92       	push	r9
    74e2:	af 92       	push	r10
    74e4:	bf 92       	push	r11
    74e6:	cf 92       	push	r12
    74e8:	df 92       	push	r13
    74ea:	ef 92       	push	r14
    74ec:	ff 92       	push	r15
    74ee:	0f 93       	push	r16
    74f0:	1f 93       	push	r17
    74f2:	cf 93       	push	r28
    74f4:	df 93       	push	r29
    74f6:	1f 92       	push	r1
    74f8:	cd b7       	in	r28, 0x3d	; 61
    74fa:	de b7       	in	r29, 0x3e	; 62
    74fc:	6c 01       	movw	r12, r24
    74fe:	2b 01       	movw	r4, r22
    7500:	5a 01       	movw	r10, r20
    7502:	fc 01       	movw	r30, r24
    7504:	17 82       	std	Z+7, r1	; 0x07
    7506:	16 82       	std	Z+6, r1	; 0x06
    7508:	71 2c       	mov	r7, r1
    750a:	f6 01       	movw	r30, r12
    750c:	f3 80       	ldd	r15, Z+3	; 0x03
    750e:	f2 01       	movw	r30, r4
    7510:	f3 fc       	sbrc	r15, 3
    7512:	85 91       	lpm	r24, Z+
    7514:	f3 fe       	sbrs	r15, 3
    7516:	81 91       	ld	r24, Z+
    7518:	38 2f       	mov	r19, r24
    751a:	2f 01       	movw	r4, r30
    751c:	88 23       	and	r24, r24
    751e:	09 f4       	brne	.+2      	; 0x7522 <vfscanf+0x4a>
    7520:	e5 c0       	rjmp	.+458    	; 0x76ec <vfscanf+0x214>
    7522:	90 e0       	ldi	r25, 0x00	; 0
    7524:	39 83       	std	Y+1, r19	; 0x01
    7526:	f8 d0       	rcall	.+496    	; 0x7718 <isspace>
    7528:	39 81       	ldd	r19, Y+1	; 0x01
    752a:	89 2b       	or	r24, r25
    752c:	19 f0       	breq	.+6      	; 0x7534 <vfscanf+0x5c>
    752e:	c6 01       	movw	r24, r12
    7530:	58 de       	rcall	.-848    	; 0x71e2 <skip_spaces>
    7532:	eb cf       	rjmp	.-42     	; 0x750a <vfscanf+0x32>
    7534:	35 32       	cpi	r19, 0x25	; 37
    7536:	41 f4       	brne	.+16     	; 0x7548 <vfscanf+0x70>
    7538:	f2 01       	movw	r30, r4
    753a:	f3 fc       	sbrc	r15, 3
    753c:	35 91       	lpm	r19, Z+
    753e:	f3 fe       	sbrs	r15, 3
    7540:	31 91       	ld	r19, Z+
    7542:	2f 01       	movw	r4, r30
    7544:	35 32       	cpi	r19, 0x25	; 37
    7546:	59 f4       	brne	.+22     	; 0x755e <vfscanf+0x86>
    7548:	c6 01       	movw	r24, r12
    754a:	39 83       	std	Y+1, r19	; 0x01
    754c:	0e d1       	rcall	.+540    	; 0x776a <fgetc>
    754e:	39 81       	ldd	r19, Y+1	; 0x01
    7550:	97 fd       	sbrc	r25, 7
    7552:	ca c0       	rjmp	.+404    	; 0x76e8 <vfscanf+0x210>
    7554:	38 17       	cp	r19, r24
    7556:	c9 f2       	breq	.-78     	; 0x750a <vfscanf+0x32>
    7558:	b6 01       	movw	r22, r12
    755a:	7d d1       	rcall	.+762    	; 0x7856 <ungetc>
    755c:	c7 c0       	rjmp	.+398    	; 0x76ec <vfscanf+0x214>
    755e:	3a 32       	cpi	r19, 0x2A	; 42
    7560:	39 f4       	brne	.+14     	; 0x7570 <vfscanf+0x98>
    7562:	f3 fc       	sbrc	r15, 3
    7564:	35 91       	lpm	r19, Z+
    7566:	f3 fe       	sbrs	r15, 3
    7568:	31 91       	ld	r19, Z+
    756a:	2f 01       	movw	r4, r30
    756c:	51 e0       	ldi	r21, 0x01	; 1
    756e:	01 c0       	rjmp	.+2      	; 0x7572 <vfscanf+0x9a>
    7570:	50 e0       	ldi	r21, 0x00	; 0
    7572:	42 01       	movw	r8, r4
    7574:	10 e0       	ldi	r17, 0x00	; 0
    7576:	20 ed       	ldi	r18, 0xD0	; 208
    7578:	23 0f       	add	r18, r19
    757a:	2a 30       	cpi	r18, 0x0A	; 10
    757c:	88 f4       	brcc	.+34     	; 0x75a0 <vfscanf+0xc8>
    757e:	52 60       	ori	r21, 0x02	; 2
    7580:	61 2f       	mov	r22, r17
    7582:	70 e0       	ldi	r23, 0x00	; 0
    7584:	80 e0       	ldi	r24, 0x00	; 0
    7586:	90 e0       	ldi	r25, 0x00	; 0
    7588:	40 e2       	ldi	r20, 0x20	; 32
    758a:	59 83       	std	Y+1, r21	; 0x01
    758c:	0a de       	rcall	.-1004   	; 0x71a2 <mulacc>
    758e:	16 2f       	mov	r17, r22
    7590:	f4 01       	movw	r30, r8
    7592:	f3 fc       	sbrc	r15, 3
    7594:	35 91       	lpm	r19, Z+
    7596:	f3 fe       	sbrs	r15, 3
    7598:	31 91       	ld	r19, Z+
    759a:	4f 01       	movw	r8, r30
    759c:	59 81       	ldd	r21, Y+1	; 0x01
    759e:	eb cf       	rjmp	.-42     	; 0x7576 <vfscanf+0x9e>
    75a0:	05 2f       	mov	r16, r21
    75a2:	23 2f       	mov	r18, r19
    75a4:	24 01       	movw	r4, r8
    75a6:	51 ff       	sbrs	r21, 1
    75a8:	03 c0       	rjmp	.+6      	; 0x75b0 <vfscanf+0xd8>
    75aa:	11 11       	cpse	r17, r1
    75ac:	02 c0       	rjmp	.+4      	; 0x75b2 <vfscanf+0xda>
    75ae:	9e c0       	rjmp	.+316    	; 0x76ec <vfscanf+0x214>
    75b0:	1f ef       	ldi	r17, 0xFF	; 255
    75b2:	38 36       	cpi	r19, 0x68	; 104
    75b4:	19 f0       	breq	.+6      	; 0x75bc <vfscanf+0xe4>
    75b6:	3c 36       	cpi	r19, 0x6C	; 108
    75b8:	59 f0       	breq	.+22     	; 0x75d0 <vfscanf+0xf8>
    75ba:	11 c0       	rjmp	.+34     	; 0x75de <vfscanf+0x106>
    75bc:	f4 01       	movw	r30, r8
    75be:	f3 fc       	sbrc	r15, 3
    75c0:	25 91       	lpm	r18, Z+
    75c2:	f3 fe       	sbrs	r15, 3
    75c4:	21 91       	ld	r18, Z+
    75c6:	2f 01       	movw	r4, r30
    75c8:	28 36       	cpi	r18, 0x68	; 104
    75ca:	49 f4       	brne	.+18     	; 0x75de <vfscanf+0x106>
    75cc:	05 2f       	mov	r16, r21
    75ce:	08 60       	ori	r16, 0x08	; 8
    75d0:	04 60       	ori	r16, 0x04	; 4
    75d2:	f2 01       	movw	r30, r4
    75d4:	f3 fc       	sbrc	r15, 3
    75d6:	25 91       	lpm	r18, Z+
    75d8:	f3 fe       	sbrs	r15, 3
    75da:	21 91       	ld	r18, Z+
    75dc:	2f 01       	movw	r4, r30
    75de:	22 23       	and	r18, r18
    75e0:	09 f4       	brne	.+2      	; 0x75e4 <vfscanf+0x10c>
    75e2:	84 c0       	rjmp	.+264    	; 0x76ec <vfscanf+0x214>
    75e4:	62 2f       	mov	r22, r18
    75e6:	70 e0       	ldi	r23, 0x00	; 0
    75e8:	84 ee       	ldi	r24, 0xE4	; 228
    75ea:	90 e0       	ldi	r25, 0x00	; 0
    75ec:	29 83       	std	Y+1, r18	; 0x01
    75ee:	9c d0       	rcall	.+312    	; 0x7728 <strchr_P>
    75f0:	29 81       	ldd	r18, Y+1	; 0x01
    75f2:	89 2b       	or	r24, r25
    75f4:	09 f4       	brne	.+2      	; 0x75f8 <vfscanf+0x120>
    75f6:	7a c0       	rjmp	.+244    	; 0x76ec <vfscanf+0x214>
    75f8:	00 fd       	sbrc	r16, 0
    75fa:	07 c0       	rjmp	.+14     	; 0x760a <vfscanf+0x132>
    75fc:	f5 01       	movw	r30, r10
    75fe:	e0 80       	ld	r14, Z
    7600:	f1 80       	ldd	r15, Z+1	; 0x01
    7602:	c5 01       	movw	r24, r10
    7604:	02 96       	adiw	r24, 0x02	; 2
    7606:	5c 01       	movw	r10, r24
    7608:	02 c0       	rjmp	.+4      	; 0x760e <vfscanf+0x136>
    760a:	e1 2c       	mov	r14, r1
    760c:	f1 2c       	mov	r15, r1
    760e:	2e 36       	cpi	r18, 0x6E	; 110
    7610:	49 f4       	brne	.+18     	; 0x7624 <vfscanf+0x14c>
    7612:	f6 01       	movw	r30, r12
    7614:	46 81       	ldd	r20, Z+6	; 0x06
    7616:	57 81       	ldd	r21, Z+7	; 0x07
    7618:	60 e0       	ldi	r22, 0x00	; 0
    761a:	70 e0       	ldi	r23, 0x00	; 0
    761c:	20 2f       	mov	r18, r16
    761e:	c7 01       	movw	r24, r14
    7620:	b4 dd       	rcall	.-1176   	; 0x718a <putval>
    7622:	73 cf       	rjmp	.-282    	; 0x750a <vfscanf+0x32>
    7624:	23 36       	cpi	r18, 0x63	; 99
    7626:	89 f4       	brne	.+34     	; 0x764a <vfscanf+0x172>
    7628:	01 ff       	sbrs	r16, 1
    762a:	11 e0       	ldi	r17, 0x01	; 1
    762c:	c6 01       	movw	r24, r12
    762e:	9d d0       	rcall	.+314    	; 0x776a <fgetc>
    7630:	97 fd       	sbrc	r25, 7
    7632:	5a c0       	rjmp	.+180    	; 0x76e8 <vfscanf+0x210>
    7634:	e1 14       	cp	r14, r1
    7636:	f1 04       	cpc	r15, r1
    7638:	29 f0       	breq	.+10     	; 0x7644 <vfscanf+0x16c>
    763a:	f7 01       	movw	r30, r14
    763c:	80 83       	st	Z, r24
    763e:	c7 01       	movw	r24, r14
    7640:	01 96       	adiw	r24, 0x01	; 1
    7642:	7c 01       	movw	r14, r24
    7644:	11 50       	subi	r17, 0x01	; 1
    7646:	91 f7       	brne	.-28     	; 0x762c <vfscanf+0x154>
    7648:	4b c0       	rjmp	.+150    	; 0x76e0 <vfscanf+0x208>
    764a:	2b 35       	cpi	r18, 0x5B	; 91
    764c:	51 f4       	brne	.+20     	; 0x7662 <vfscanf+0x18a>
    764e:	92 01       	movw	r18, r4
    7650:	a7 01       	movw	r20, r14
    7652:	61 2f       	mov	r22, r17
    7654:	c6 01       	movw	r24, r12
    7656:	7b de       	rcall	.-778    	; 0x734e <conv_brk>
    7658:	2c 01       	movw	r4, r24
    765a:	89 2b       	or	r24, r25
    765c:	09 f0       	breq	.+2      	; 0x7660 <vfscanf+0x188>
    765e:	40 c0       	rjmp	.+128    	; 0x76e0 <vfscanf+0x208>
    7660:	3a c0       	rjmp	.+116    	; 0x76d6 <vfscanf+0x1fe>
    7662:	c6 01       	movw	r24, r12
    7664:	29 83       	std	Y+1, r18	; 0x01
    7666:	bd dd       	rcall	.-1158   	; 0x71e2 <skip_spaces>
    7668:	29 81       	ldd	r18, Y+1	; 0x01
    766a:	97 fd       	sbrc	r25, 7
    766c:	3d c0       	rjmp	.+122    	; 0x76e8 <vfscanf+0x210>
    766e:	2f 36       	cpi	r18, 0x6F	; 111
    7670:	41 f1       	breq	.+80     	; 0x76c2 <vfscanf+0x1ea>
    7672:	28 f4       	brcc	.+10     	; 0x767e <vfscanf+0x1a6>
    7674:	24 36       	cpi	r18, 0x64	; 100
    7676:	19 f1       	breq	.+70     	; 0x76be <vfscanf+0x1e6>
    7678:	29 36       	cpi	r18, 0x69	; 105
    767a:	31 f1       	breq	.+76     	; 0x76c8 <vfscanf+0x1f0>
    767c:	24 c0       	rjmp	.+72     	; 0x76c6 <vfscanf+0x1ee>
    767e:	23 37       	cpi	r18, 0x73	; 115
    7680:	69 f0       	breq	.+26     	; 0x769c <vfscanf+0x1c4>
    7682:	25 37       	cpi	r18, 0x75	; 117
    7684:	e1 f0       	breq	.+56     	; 0x76be <vfscanf+0x1e6>
    7686:	1f c0       	rjmp	.+62     	; 0x76c6 <vfscanf+0x1ee>
    7688:	e1 14       	cp	r14, r1
    768a:	f1 04       	cpc	r15, r1
    768c:	29 f0       	breq	.+10     	; 0x7698 <vfscanf+0x1c0>
    768e:	f7 01       	movw	r30, r14
    7690:	80 82       	st	Z, r8
    7692:	c7 01       	movw	r24, r14
    7694:	01 96       	adiw	r24, 0x01	; 1
    7696:	7c 01       	movw	r14, r24
    7698:	11 50       	subi	r17, 0x01	; 1
    769a:	59 f0       	breq	.+22     	; 0x76b2 <vfscanf+0x1da>
    769c:	c6 01       	movw	r24, r12
    769e:	65 d0       	rcall	.+202    	; 0x776a <fgetc>
    76a0:	4c 01       	movw	r8, r24
    76a2:	97 fd       	sbrc	r25, 7
    76a4:	06 c0       	rjmp	.+12     	; 0x76b2 <vfscanf+0x1da>
    76a6:	38 d0       	rcall	.+112    	; 0x7718 <isspace>
    76a8:	89 2b       	or	r24, r25
    76aa:	71 f3       	breq	.-36     	; 0x7688 <vfscanf+0x1b0>
    76ac:	b6 01       	movw	r22, r12
    76ae:	c4 01       	movw	r24, r8
    76b0:	d2 d0       	rcall	.+420    	; 0x7856 <ungetc>
    76b2:	e1 14       	cp	r14, r1
    76b4:	f1 04       	cpc	r15, r1
    76b6:	a1 f0       	breq	.+40     	; 0x76e0 <vfscanf+0x208>
    76b8:	f7 01       	movw	r30, r14
    76ba:	10 82       	st	Z, r1
    76bc:	11 c0       	rjmp	.+34     	; 0x76e0 <vfscanf+0x208>
    76be:	00 62       	ori	r16, 0x20	; 32
    76c0:	03 c0       	rjmp	.+6      	; 0x76c8 <vfscanf+0x1f0>
    76c2:	00 61       	ori	r16, 0x10	; 16
    76c4:	01 c0       	rjmp	.+2      	; 0x76c8 <vfscanf+0x1f0>
    76c6:	00 64       	ori	r16, 0x40	; 64
    76c8:	20 2f       	mov	r18, r16
    76ca:	a7 01       	movw	r20, r14
    76cc:	61 2f       	mov	r22, r17
    76ce:	c6 01       	movw	r24, r12
    76d0:	9e dd       	rcall	.-1220   	; 0x720e <conv_int>
    76d2:	81 11       	cpse	r24, r1
    76d4:	05 c0       	rjmp	.+10     	; 0x76e0 <vfscanf+0x208>
    76d6:	f6 01       	movw	r30, r12
    76d8:	83 81       	ldd	r24, Z+3	; 0x03
    76da:	80 73       	andi	r24, 0x30	; 48
    76dc:	29 f4       	brne	.+10     	; 0x76e8 <vfscanf+0x210>
    76de:	06 c0       	rjmp	.+12     	; 0x76ec <vfscanf+0x214>
    76e0:	00 fd       	sbrc	r16, 0
    76e2:	13 cf       	rjmp	.-474    	; 0x750a <vfscanf+0x32>
    76e4:	73 94       	inc	r7
    76e6:	11 cf       	rjmp	.-478    	; 0x750a <vfscanf+0x32>
    76e8:	77 20       	and	r7, r7
    76ea:	19 f0       	breq	.+6      	; 0x76f2 <vfscanf+0x21a>
    76ec:	87 2d       	mov	r24, r7
    76ee:	90 e0       	ldi	r25, 0x00	; 0
    76f0:	02 c0       	rjmp	.+4      	; 0x76f6 <vfscanf+0x21e>
    76f2:	8f ef       	ldi	r24, 0xFF	; 255
    76f4:	9f ef       	ldi	r25, 0xFF	; 255
    76f6:	0f 90       	pop	r0
    76f8:	df 91       	pop	r29
    76fa:	cf 91       	pop	r28
    76fc:	1f 91       	pop	r17
    76fe:	0f 91       	pop	r16
    7700:	ff 90       	pop	r15
    7702:	ef 90       	pop	r14
    7704:	df 90       	pop	r13
    7706:	cf 90       	pop	r12
    7708:	bf 90       	pop	r11
    770a:	af 90       	pop	r10
    770c:	9f 90       	pop	r9
    770e:	8f 90       	pop	r8
    7710:	7f 90       	pop	r7
    7712:	5f 90       	pop	r5
    7714:	4f 90       	pop	r4
    7716:	08 95       	ret

00007718 <isspace>:
    7718:	91 11       	cpse	r25, r1
    771a:	14 c1       	rjmp	.+552    	; 0x7944 <__ctype_isfalse>
    771c:	80 32       	cpi	r24, 0x20	; 32
    771e:	19 f0       	breq	.+6      	; 0x7726 <isspace+0xe>
    7720:	89 50       	subi	r24, 0x09	; 9
    7722:	85 50       	subi	r24, 0x05	; 5
    7724:	d0 f7       	brcc	.-12     	; 0x771a <isspace+0x2>
    7726:	08 95       	ret

00007728 <strchr_P>:
    7728:	fc 01       	movw	r30, r24
    772a:	05 90       	lpm	r0, Z+
    772c:	06 16       	cp	r0, r22
    772e:	21 f0       	breq	.+8      	; 0x7738 <strchr_P+0x10>
    7730:	00 20       	and	r0, r0
    7732:	d9 f7       	brne	.-10     	; 0x772a <strchr_P+0x2>
    7734:	c0 01       	movw	r24, r0
    7736:	08 95       	ret
    7738:	31 97       	sbiw	r30, 0x01	; 1
    773a:	cf 01       	movw	r24, r30
    773c:	08 95       	ret

0000773e <strnlen_P>:
    773e:	fc 01       	movw	r30, r24
    7740:	05 90       	lpm	r0, Z+
    7742:	61 50       	subi	r22, 0x01	; 1
    7744:	70 40       	sbci	r23, 0x00	; 0
    7746:	01 10       	cpse	r0, r1
    7748:	d8 f7       	brcc	.-10     	; 0x7740 <strnlen_P+0x2>
    774a:	80 95       	com	r24
    774c:	90 95       	com	r25
    774e:	8e 0f       	add	r24, r30
    7750:	9f 1f       	adc	r25, r31
    7752:	08 95       	ret

00007754 <strnlen>:
    7754:	fc 01       	movw	r30, r24
    7756:	61 50       	subi	r22, 0x01	; 1
    7758:	70 40       	sbci	r23, 0x00	; 0
    775a:	01 90       	ld	r0, Z+
    775c:	01 10       	cpse	r0, r1
    775e:	d8 f7       	brcc	.-10     	; 0x7756 <strnlen+0x2>
    7760:	80 95       	com	r24
    7762:	90 95       	com	r25
    7764:	8e 0f       	add	r24, r30
    7766:	9f 1f       	adc	r25, r31
    7768:	08 95       	ret

0000776a <fgetc>:
    776a:	cf 93       	push	r28
    776c:	df 93       	push	r29
    776e:	ec 01       	movw	r28, r24
    7770:	2b 81       	ldd	r18, Y+3	; 0x03
    7772:	20 ff       	sbrs	r18, 0
    7774:	33 c0       	rjmp	.+102    	; 0x77dc <fgetc+0x72>
    7776:	26 ff       	sbrs	r18, 6
    7778:	0a c0       	rjmp	.+20     	; 0x778e <fgetc+0x24>
    777a:	2f 7b       	andi	r18, 0xBF	; 191
    777c:	2b 83       	std	Y+3, r18	; 0x03
    777e:	8e 81       	ldd	r24, Y+6	; 0x06
    7780:	9f 81       	ldd	r25, Y+7	; 0x07
    7782:	01 96       	adiw	r24, 0x01	; 1
    7784:	9f 83       	std	Y+7, r25	; 0x07
    7786:	8e 83       	std	Y+6, r24	; 0x06
    7788:	8a 81       	ldd	r24, Y+2	; 0x02
    778a:	90 e0       	ldi	r25, 0x00	; 0
    778c:	29 c0       	rjmp	.+82     	; 0x77e0 <fgetc+0x76>
    778e:	22 ff       	sbrs	r18, 2
    7790:	0f c0       	rjmp	.+30     	; 0x77b0 <fgetc+0x46>
    7792:	e8 81       	ld	r30, Y
    7794:	f9 81       	ldd	r31, Y+1	; 0x01
    7796:	80 81       	ld	r24, Z
    7798:	08 2e       	mov	r0, r24
    779a:	00 0c       	add	r0, r0
    779c:	99 0b       	sbc	r25, r25
    779e:	00 97       	sbiw	r24, 0x00	; 0
    77a0:	19 f4       	brne	.+6      	; 0x77a8 <fgetc+0x3e>
    77a2:	20 62       	ori	r18, 0x20	; 32
    77a4:	2b 83       	std	Y+3, r18	; 0x03
    77a6:	1a c0       	rjmp	.+52     	; 0x77dc <fgetc+0x72>
    77a8:	31 96       	adiw	r30, 0x01	; 1
    77aa:	f9 83       	std	Y+1, r31	; 0x01
    77ac:	e8 83       	st	Y, r30
    77ae:	0e c0       	rjmp	.+28     	; 0x77cc <fgetc+0x62>
    77b0:	ea 85       	ldd	r30, Y+10	; 0x0a
    77b2:	fb 85       	ldd	r31, Y+11	; 0x0b
    77b4:	19 95       	eicall
    77b6:	97 ff       	sbrs	r25, 7
    77b8:	09 c0       	rjmp	.+18     	; 0x77cc <fgetc+0x62>
    77ba:	2b 81       	ldd	r18, Y+3	; 0x03
    77bc:	01 96       	adiw	r24, 0x01	; 1
    77be:	11 f0       	breq	.+4      	; 0x77c4 <fgetc+0x5a>
    77c0:	80 e2       	ldi	r24, 0x20	; 32
    77c2:	01 c0       	rjmp	.+2      	; 0x77c6 <fgetc+0x5c>
    77c4:	80 e1       	ldi	r24, 0x10	; 16
    77c6:	82 2b       	or	r24, r18
    77c8:	8b 83       	std	Y+3, r24	; 0x03
    77ca:	08 c0       	rjmp	.+16     	; 0x77dc <fgetc+0x72>
    77cc:	2e 81       	ldd	r18, Y+6	; 0x06
    77ce:	3f 81       	ldd	r19, Y+7	; 0x07
    77d0:	2f 5f       	subi	r18, 0xFF	; 255
    77d2:	3f 4f       	sbci	r19, 0xFF	; 255
    77d4:	3f 83       	std	Y+7, r19	; 0x07
    77d6:	2e 83       	std	Y+6, r18	; 0x06
    77d8:	99 27       	eor	r25, r25
    77da:	02 c0       	rjmp	.+4      	; 0x77e0 <fgetc+0x76>
    77dc:	8f ef       	ldi	r24, 0xFF	; 255
    77de:	9f ef       	ldi	r25, 0xFF	; 255
    77e0:	df 91       	pop	r29
    77e2:	cf 91       	pop	r28
    77e4:	08 95       	ret

000077e6 <fputc>:
    77e6:	0f 93       	push	r16
    77e8:	1f 93       	push	r17
    77ea:	cf 93       	push	r28
    77ec:	df 93       	push	r29
    77ee:	fb 01       	movw	r30, r22
    77f0:	23 81       	ldd	r18, Z+3	; 0x03
    77f2:	21 fd       	sbrc	r18, 1
    77f4:	03 c0       	rjmp	.+6      	; 0x77fc <fputc+0x16>
    77f6:	8f ef       	ldi	r24, 0xFF	; 255
    77f8:	9f ef       	ldi	r25, 0xFF	; 255
    77fa:	28 c0       	rjmp	.+80     	; 0x784c <fputc+0x66>
    77fc:	22 ff       	sbrs	r18, 2
    77fe:	16 c0       	rjmp	.+44     	; 0x782c <fputc+0x46>
    7800:	46 81       	ldd	r20, Z+6	; 0x06
    7802:	57 81       	ldd	r21, Z+7	; 0x07
    7804:	24 81       	ldd	r18, Z+4	; 0x04
    7806:	35 81       	ldd	r19, Z+5	; 0x05
    7808:	42 17       	cp	r20, r18
    780a:	53 07       	cpc	r21, r19
    780c:	44 f4       	brge	.+16     	; 0x781e <fputc+0x38>
    780e:	a0 81       	ld	r26, Z
    7810:	b1 81       	ldd	r27, Z+1	; 0x01
    7812:	9d 01       	movw	r18, r26
    7814:	2f 5f       	subi	r18, 0xFF	; 255
    7816:	3f 4f       	sbci	r19, 0xFF	; 255
    7818:	31 83       	std	Z+1, r19	; 0x01
    781a:	20 83       	st	Z, r18
    781c:	8c 93       	st	X, r24
    781e:	26 81       	ldd	r18, Z+6	; 0x06
    7820:	37 81       	ldd	r19, Z+7	; 0x07
    7822:	2f 5f       	subi	r18, 0xFF	; 255
    7824:	3f 4f       	sbci	r19, 0xFF	; 255
    7826:	37 83       	std	Z+7, r19	; 0x07
    7828:	26 83       	std	Z+6, r18	; 0x06
    782a:	10 c0       	rjmp	.+32     	; 0x784c <fputc+0x66>
    782c:	eb 01       	movw	r28, r22
    782e:	09 2f       	mov	r16, r25
    7830:	18 2f       	mov	r17, r24
    7832:	00 84       	ldd	r0, Z+8	; 0x08
    7834:	f1 85       	ldd	r31, Z+9	; 0x09
    7836:	e0 2d       	mov	r30, r0
    7838:	19 95       	eicall
    783a:	89 2b       	or	r24, r25
    783c:	e1 f6       	brne	.-72     	; 0x77f6 <fputc+0x10>
    783e:	8e 81       	ldd	r24, Y+6	; 0x06
    7840:	9f 81       	ldd	r25, Y+7	; 0x07
    7842:	01 96       	adiw	r24, 0x01	; 1
    7844:	9f 83       	std	Y+7, r25	; 0x07
    7846:	8e 83       	std	Y+6, r24	; 0x06
    7848:	81 2f       	mov	r24, r17
    784a:	90 2f       	mov	r25, r16
    784c:	df 91       	pop	r29
    784e:	cf 91       	pop	r28
    7850:	1f 91       	pop	r17
    7852:	0f 91       	pop	r16
    7854:	08 95       	ret

00007856 <ungetc>:
    7856:	fb 01       	movw	r30, r22
    7858:	23 81       	ldd	r18, Z+3	; 0x03
    785a:	20 ff       	sbrs	r18, 0
    785c:	12 c0       	rjmp	.+36     	; 0x7882 <ungetc+0x2c>
    785e:	26 fd       	sbrc	r18, 6
    7860:	10 c0       	rjmp	.+32     	; 0x7882 <ungetc+0x2c>
    7862:	8f 3f       	cpi	r24, 0xFF	; 255
    7864:	3f ef       	ldi	r19, 0xFF	; 255
    7866:	93 07       	cpc	r25, r19
    7868:	61 f0       	breq	.+24     	; 0x7882 <ungetc+0x2c>
    786a:	82 83       	std	Z+2, r24	; 0x02
    786c:	2f 7d       	andi	r18, 0xDF	; 223
    786e:	20 64       	ori	r18, 0x40	; 64
    7870:	23 83       	std	Z+3, r18	; 0x03
    7872:	26 81       	ldd	r18, Z+6	; 0x06
    7874:	37 81       	ldd	r19, Z+7	; 0x07
    7876:	21 50       	subi	r18, 0x01	; 1
    7878:	31 09       	sbc	r19, r1
    787a:	37 83       	std	Z+7, r19	; 0x07
    787c:	26 83       	std	Z+6, r18	; 0x06
    787e:	99 27       	eor	r25, r25
    7880:	08 95       	ret
    7882:	8f ef       	ldi	r24, 0xFF	; 255
    7884:	9f ef       	ldi	r25, 0xFF	; 255
    7886:	08 95       	ret

00007888 <__ultoa_invert>:
    7888:	fa 01       	movw	r30, r20
    788a:	aa 27       	eor	r26, r26
    788c:	28 30       	cpi	r18, 0x08	; 8
    788e:	51 f1       	breq	.+84     	; 0x78e4 <__ultoa_invert+0x5c>
    7890:	20 31       	cpi	r18, 0x10	; 16
    7892:	81 f1       	breq	.+96     	; 0x78f4 <__ultoa_invert+0x6c>
    7894:	e8 94       	clt
    7896:	6f 93       	push	r22
    7898:	6e 7f       	andi	r22, 0xFE	; 254
    789a:	6e 5f       	subi	r22, 0xFE	; 254
    789c:	7f 4f       	sbci	r23, 0xFF	; 255
    789e:	8f 4f       	sbci	r24, 0xFF	; 255
    78a0:	9f 4f       	sbci	r25, 0xFF	; 255
    78a2:	af 4f       	sbci	r26, 0xFF	; 255
    78a4:	b1 e0       	ldi	r27, 0x01	; 1
    78a6:	3e d0       	rcall	.+124    	; 0x7924 <__ultoa_invert+0x9c>
    78a8:	b4 e0       	ldi	r27, 0x04	; 4
    78aa:	3c d0       	rcall	.+120    	; 0x7924 <__ultoa_invert+0x9c>
    78ac:	67 0f       	add	r22, r23
    78ae:	78 1f       	adc	r23, r24
    78b0:	89 1f       	adc	r24, r25
    78b2:	9a 1f       	adc	r25, r26
    78b4:	a1 1d       	adc	r26, r1
    78b6:	68 0f       	add	r22, r24
    78b8:	79 1f       	adc	r23, r25
    78ba:	8a 1f       	adc	r24, r26
    78bc:	91 1d       	adc	r25, r1
    78be:	a1 1d       	adc	r26, r1
    78c0:	6a 0f       	add	r22, r26
    78c2:	71 1d       	adc	r23, r1
    78c4:	81 1d       	adc	r24, r1
    78c6:	91 1d       	adc	r25, r1
    78c8:	a1 1d       	adc	r26, r1
    78ca:	20 d0       	rcall	.+64     	; 0x790c <__ultoa_invert+0x84>
    78cc:	09 f4       	brne	.+2      	; 0x78d0 <__ultoa_invert+0x48>
    78ce:	68 94       	set
    78d0:	3f 91       	pop	r19
    78d2:	2a e0       	ldi	r18, 0x0A	; 10
    78d4:	26 9f       	mul	r18, r22
    78d6:	11 24       	eor	r1, r1
    78d8:	30 19       	sub	r19, r0
    78da:	30 5d       	subi	r19, 0xD0	; 208
    78dc:	31 93       	st	Z+, r19
    78de:	de f6       	brtc	.-74     	; 0x7896 <__ultoa_invert+0xe>
    78e0:	cf 01       	movw	r24, r30
    78e2:	08 95       	ret
    78e4:	46 2f       	mov	r20, r22
    78e6:	47 70       	andi	r20, 0x07	; 7
    78e8:	40 5d       	subi	r20, 0xD0	; 208
    78ea:	41 93       	st	Z+, r20
    78ec:	b3 e0       	ldi	r27, 0x03	; 3
    78ee:	0f d0       	rcall	.+30     	; 0x790e <__ultoa_invert+0x86>
    78f0:	c9 f7       	brne	.-14     	; 0x78e4 <__ultoa_invert+0x5c>
    78f2:	f6 cf       	rjmp	.-20     	; 0x78e0 <__ultoa_invert+0x58>
    78f4:	46 2f       	mov	r20, r22
    78f6:	4f 70       	andi	r20, 0x0F	; 15
    78f8:	40 5d       	subi	r20, 0xD0	; 208
    78fa:	4a 33       	cpi	r20, 0x3A	; 58
    78fc:	18 f0       	brcs	.+6      	; 0x7904 <__ultoa_invert+0x7c>
    78fe:	49 5d       	subi	r20, 0xD9	; 217
    7900:	31 fd       	sbrc	r19, 1
    7902:	40 52       	subi	r20, 0x20	; 32
    7904:	41 93       	st	Z+, r20
    7906:	02 d0       	rcall	.+4      	; 0x790c <__ultoa_invert+0x84>
    7908:	a9 f7       	brne	.-22     	; 0x78f4 <__ultoa_invert+0x6c>
    790a:	ea cf       	rjmp	.-44     	; 0x78e0 <__ultoa_invert+0x58>
    790c:	b4 e0       	ldi	r27, 0x04	; 4
    790e:	a6 95       	lsr	r26
    7910:	97 95       	ror	r25
    7912:	87 95       	ror	r24
    7914:	77 95       	ror	r23
    7916:	67 95       	ror	r22
    7918:	ba 95       	dec	r27
    791a:	c9 f7       	brne	.-14     	; 0x790e <__ultoa_invert+0x86>
    791c:	00 97       	sbiw	r24, 0x00	; 0
    791e:	61 05       	cpc	r22, r1
    7920:	71 05       	cpc	r23, r1
    7922:	08 95       	ret
    7924:	9b 01       	movw	r18, r22
    7926:	ac 01       	movw	r20, r24
    7928:	0a 2e       	mov	r0, r26
    792a:	06 94       	lsr	r0
    792c:	57 95       	ror	r21
    792e:	47 95       	ror	r20
    7930:	37 95       	ror	r19
    7932:	27 95       	ror	r18
    7934:	ba 95       	dec	r27
    7936:	c9 f7       	brne	.-14     	; 0x792a <__ultoa_invert+0xa2>
    7938:	62 0f       	add	r22, r18
    793a:	73 1f       	adc	r23, r19
    793c:	84 1f       	adc	r24, r20
    793e:	95 1f       	adc	r25, r21
    7940:	a0 1d       	adc	r26, r0
    7942:	08 95       	ret

00007944 <__ctype_isfalse>:
    7944:	99 27       	eor	r25, r25
    7946:	88 27       	eor	r24, r24

00007948 <__ctype_istrue>:
    7948:	08 95       	ret

0000794a <_exit>:
    794a:	f8 94       	cli

0000794c <__stop_program>:
    794c:	ff cf       	rjmp	.-2      	; 0x794c <__stop_program>
